
build/DRNL.elf:     file format elf32-littlearm
build/DRNL.elf
architecture: armv5te, flags 0x00000112:
EXEC_P, HAS_SYMS, D_PAGED
start address 0x00000000

Program Header:
    LOAD off    0x00010000 vaddr 0x00000000 paddr 0x00000000 align 2**16
         filesz 0x00007c7d memsz 0x00007c7d flags r-x
    LOAD off    0x00020000 vaddr 0x00400000 paddr 0x00400000 align 2**16
         filesz 0x00000440 memsz 0x00000cb4 flags rw-
private flags = 5000200: [Version5 EABI] [soft-float ABI]

Sections:
Idx Name          Size      VMA       LMA       File off  Algn
  0 RO_DATA       00007c7d  00000000  00000000  00010000  2**3
                  CONTENTS, ALLOC, LOAD, READONLY, CODE
  1 RW_DATA       00000440  00400000  00400000  00020000  2**3
                  CONTENTS, ALLOC, LOAD, DATA
  2 ZI_DATA       00000874  00400440  00400440  00020440  2**2
                  ALLOC
  3 .debug_info   000179a4  00000000  00000000  00020440  2**0
                  CONTENTS, READONLY, DEBUGGING
  4 .debug_abbrev 00002fad  00000000  00000000  00037de4  2**0
                  CONTENTS, READONLY, DEBUGGING
  5 .debug_loc    00005876  00000000  00000000  0003ad91  2**0
                  CONTENTS, READONLY, DEBUGGING
  6 .debug_aranges 00000728  00000000  00000000  00040607  2**0
                  CONTENTS, READONLY, DEBUGGING
  7 .debug_ranges 00000b80  00000000  00000000  00040d2f  2**0
                  CONTENTS, READONLY, DEBUGGING
  8 .debug_line   000027d5  00000000  00000000  000418af  2**0
                  CONTENTS, READONLY, DEBUGGING
  9 .debug_str    00002b2d  00000000  00000000  00044084  2**0
                  CONTENTS, READONLY, DEBUGGING
 10 .comment      0000007f  00000000  00000000  00046bb1  2**0
                  CONTENTS, READONLY
 11 .ARM.attributes 00000029  00000000  00000000  00046c30  2**0
                  CONTENTS, READONLY
 12 .debug_frame  00001ecc  00000000  00000000  00046c5c  2**2
                  CONTENTS, READONLY, DEBUGGING
SYMBOL TABLE:
00000000 l    d  RO_DATA	00000000 RO_DATA
00400000 l    d  RW_DATA	00000000 RW_DATA
00400440 l    d  ZI_DATA	00000000 ZI_DATA
00000000 l    d  .debug_info	00000000 .debug_info
00000000 l    d  .debug_abbrev	00000000 .debug_abbrev
00000000 l    d  .debug_loc	00000000 .debug_loc
00000000 l    d  .debug_aranges	00000000 .debug_aranges
00000000 l    d  .debug_ranges	00000000 .debug_ranges
00000000 l    d  .debug_line	00000000 .debug_line
00000000 l    d  .debug_str	00000000 .debug_str
00000000 l    d  .comment	00000000 .comment
00000000 l    d  .ARM.attributes	00000000 .ARM.attributes
00000000 l    d  .debug_frame	00000000 .debug_frame
00000000 l    df *ABS*	00000000 sark.o
00000001 l       *ABS*	00000000 GNU
00000000 l       *ABS*	00000000 NULL
80000000 l       *ABS*	00000000 BIT_31
00000001 l       *ABS*	00000000 BUF_WRITE
00000012 l       *ABS*	00000000 NUM_CPUS
00000006 l       *ABS*	00000000 NUM_LINKS
00000000 l       *ABS*	00000000 ITCM_BASE
00008000 l       *ABS*	00000000 ITCM_SIZE
00008000 l       *ABS*	00000000 ITCM_TOP
00400000 l       *ABS*	00000000 DTCM_BASE
00010000 l       *ABS*	00000000 DTCM_SIZE
00410000 l       *ABS*	00000000 DTCM_TOP
70000000 l       *ABS*	00000000 SDRAM_BASE_UNBUF
60000000 l       *ABS*	00000000 SDRAM_BASE_BUF
60000000 l       *ABS*	00000000 SDRAM_BASE
08000000 l       *ABS*	00000000 SDRAM_SIZE
68000000 l       *ABS*	00000000 SDRAM_TOP
f5000000 l       *ABS*	00000000 SYSRAM_BASE_UNBUF
e5000000 l       *ABS*	00000000 SYSRAM_BASE_BUF
e5000000 l       *ABS*	00000000 SYSRAM_BASE
00008000 l       *ABS*	00000000 SYSRAM_SIZE
e5008000 l       *ABS*	00000000 SYSRAM_TOP
f6000000 l       *ABS*	00000000 ROM_BASE
00008000 l       *ABS*	00000000 ROM_SIZE
f6008000 l       *ABS*	00000000 ROM_TOP
10000000 l       *ABS*	00000000 CC_BASE_UNBUF
20000000 l       *ABS*	00000000 CC_BASE_BUF
20000000 l       *ABS*	00000000 CC_BASE
00000000 l       *ABS*	00000000 CC_TCR
00000004 l       *ABS*	00000000 CC_TXDATA
00000008 l       *ABS*	00000000 CC_TXKEY
0000000c l       *ABS*	00000000 CC_RSR
00000010 l       *ABS*	00000000 CC_RXDATA
00000014 l       *ABS*	00000000 CC_RXKEY
00000018 l       *ABS*	00000000 CC_SAR
0000001c l       *ABS*	00000000 CC_TEST
11000000 l       *ABS*	00000000 TIMER_BASE_UNBUF
21000000 l       *ABS*	00000000 TIMER_BASE_BUF
21000000 l       *ABS*	00000000 TIMER_BASE
00000020 l       *ABS*	00000000 TIMER_OFFSET
21000000 l       *ABS*	00000000 TIMER1_BASE
21000020 l       *ABS*	00000000 TIMER2_BASE
00000000 l       *ABS*	00000000 TC_LOAD
00000004 l       *ABS*	00000000 TC_COUNT
00000008 l       *ABS*	00000000 TC_CONTROL
0000000c l       *ABS*	00000000 TC_INT_CLR
00000010 l       *ABS*	00000000 TC_RAW_INT
00000014 l       *ABS*	00000000 TC_MASK_INT
00000018 l       *ABS*	00000000 TC_BG_LOAD
00000000 l       *ABS*	00000000 T1_LOAD
00000004 l       *ABS*	00000000 T1_COUNT
00000008 l       *ABS*	00000000 T1_CONTROL
0000000c l       *ABS*	00000000 T1_INT_CLR
00000010 l       *ABS*	00000000 T1_RAW_INT
00000014 l       *ABS*	00000000 T1_MASK_INT
00000018 l       *ABS*	00000000 T1_BG_LOAD
00000020 l       *ABS*	00000000 T2_LOAD
00000024 l       *ABS*	00000000 T2_COUNT
00000028 l       *ABS*	00000000 T2_CONTROL
0000002c l       *ABS*	00000000 T2_INT_CLR
00000030 l       *ABS*	00000000 T2_RAW_INT
00000034 l       *ABS*	00000000 T2_MASK_INT
00000038 l       *ABS*	00000000 T2_BG_LOAD
1f000000 l       *ABS*	00000000 VIC_BASE_UNBUF
2f000000 l       *ABS*	00000000 VIC_BASE_BUF
2f000000 l       *ABS*	00000000 VIC_BASE
00000000 l       *ABS*	00000000 VIC_IRQST
00000004 l       *ABS*	00000000 VIC_FIQST
00000008 l       *ABS*	00000000 VIC_RAW
0000000c l       *ABS*	00000000 VIC_SELECT
00000010 l       *ABS*	00000000 VIC_ENABLE
00000014 l       *ABS*	00000000 VIC_DISABLE
00000018 l       *ABS*	00000000 VIC_SOFT_SET
0000001c l       *ABS*	00000000 VIC_SOFT_CLR
00000020 l       *ABS*	00000000 VIC_PROTECT
00000030 l       *ABS*	00000000 VIC_VADDR
00000034 l       *ABS*	00000000 VIC_DEFADDR
00000100 l       *ABS*	00000000 VIC_ADDR
00000100 l       *ABS*	00000000 VIC_ADDR0
00000104 l       *ABS*	00000000 VIC_ADDR1
00000108 l       *ABS*	00000000 VIC_ADDR2
0000010c l       *ABS*	00000000 VIC_ADDR3
00000110 l       *ABS*	00000000 VIC_ADDR4
00000114 l       *ABS*	00000000 VIC_ADDR5
00000118 l       *ABS*	00000000 VIC_ADDR6
0000011c l       *ABS*	00000000 VIC_ADDR7
00000120 l       *ABS*	00000000 VIC_ADDR8
00000124 l       *ABS*	00000000 VIC_ADDR9
00000128 l       *ABS*	00000000 VIC_ADDR10
0000012c l       *ABS*	00000000 VIC_ADDR11
00000130 l       *ABS*	00000000 VIC_ADDR12
00000134 l       *ABS*	00000000 VIC_ADDR13
00000138 l       *ABS*	00000000 VIC_ADDR14
0000013c l       *ABS*	00000000 VIC_ADDR15
00000200 l       *ABS*	00000000 VIC_CNTL
00000200 l       *ABS*	00000000 VIC_CNTL0
00000204 l       *ABS*	00000000 VIC_CNTL1
00000208 l       *ABS*	00000000 VIC_CNTL2
0000020c l       *ABS*	00000000 VIC_CNTL3
00000210 l       *ABS*	00000000 VIC_CNTL4
00000214 l       *ABS*	00000000 VIC_CNTL5
00000218 l       *ABS*	00000000 VIC_CNTL6
0000021c l       *ABS*	00000000 VIC_CNTL7
00000220 l       *ABS*	00000000 VIC_CNTL8
00000224 l       *ABS*	00000000 VIC_CNTL9
00000228 l       *ABS*	00000000 VIC_CNTL10
0000022c l       *ABS*	00000000 VIC_CNTL11
00000230 l       *ABS*	00000000 VIC_CNTL12
00000234 l       *ABS*	00000000 VIC_CNTL13
00000238 l       *ABS*	00000000 VIC_CNTL14
0000023c l       *ABS*	00000000 VIC_CNTL15
00000000 l       *ABS*	00000000 WDOG_INT
00000001 l       *ABS*	00000000 SOFTWARE_INT
00000002 l       *ABS*	00000000 COMM_RX_INT
00000003 l       *ABS*	00000000 COMM_TX_INT
00000004 l       *ABS*	00000000 TIMER1_INT
00000005 l       *ABS*	00000000 TIMER2_INT
00000006 l       *ABS*	00000000 CC_RDY_INT
00000007 l       *ABS*	00000000 CC_RPE_INT
00000008 l       *ABS*	00000000 CC_RFE_INT
00000009 l       *ABS*	00000000 CC_TFL_INT
0000000a l       *ABS*	00000000 CC_TOV_INT
0000000b l       *ABS*	00000000 CC_TMT_INT
0000000c l       *ABS*	00000000 DMA_DONE_INT
0000000d l       *ABS*	00000000 DMA_ERR_INT
0000000e l       *ABS*	00000000 DMA_TO_INT
0000000f l       *ABS*	00000000 RTR_DIAG_INT
00000010 l       *ABS*	00000000 RTR_DUMP_INT
00000011 l       *ABS*	00000000 RTR_ERR_INT
00000012 l       *ABS*	00000000 CPU_INT
00000013 l       *ABS*	00000000 ETH_TX_INT
00000014 l       *ABS*	00000000 ETH_RX_INT
00000015 l       *ABS*	00000000 ETH_PHY_INT
00000016 l       *ABS*	00000000 SLOW_CLK_INT
00000017 l       *ABS*	00000000 CC_TNF_INT
00000018 l       *ABS*	00000000 CC_MC_INT
00000019 l       *ABS*	00000000 CC_P2P_INT
0000001a l       *ABS*	00000000 CC_NN_INT
0000001b l       *ABS*	00000000 CC_FR_INT
0000001c l       *ABS*	00000000 INT0_INT
0000001d l       *ABS*	00000000 INT1_INT
0000001e l       *ABS*	00000000 GPIO8_INT
0000001f l       *ABS*	00000000 GPIO9_INT
30000000 l       *ABS*	00000000 DMA_BASE_UNBUF
40000000 l       *ABS*	00000000 DMA_BASE_BUF
40000000 l       *ABS*	00000000 DMA_BASE
00000004 l       *ABS*	00000000 DMA_ADRS
00000008 l       *ABS*	00000000 DMA_ADRT
0000000c l       *ABS*	00000000 DMA_DESC
00000010 l       *ABS*	00000000 DMA_CTRL
00000014 l       *ABS*	00000000 DMA_STAT
00000018 l       *ABS*	00000000 DMA_GCTL
0000001c l       *ABS*	00000000 DMA_CRCC
00000020 l       *ABS*	00000000 DMA_CRCR
00000024 l       *ABS*	00000000 DMA_TMTV
00000028 l       *ABS*	00000000 DMA_SCTL
00000040 l       *ABS*	00000000 DMA_STAT0
00000044 l       *ABS*	00000000 DMA_STAT1
00000048 l       *ABS*	00000000 DMA_STAT2
0000004c l       *ABS*	00000000 DMA_STAT3
00000050 l       *ABS*	00000000 DMA_STAT4
00000054 l       *ABS*	00000000 DMA_STAT5
00000058 l       *ABS*	00000000 DMA_STAT6
0000005c l       *ABS*	00000000 DMA_STAT7
00000104 l       *ABS*	00000000 DMA_AD2S
00000108 l       *ABS*	00000000 DMA_AD2T
0000010c l       *ABS*	00000000 DMA_DES2
00000180 l       *ABS*	00000000 DMA_CRCT
f0000000 l       *ABS*	00000000 PL340_BASE_UNBUF
e0000000 l       *ABS*	00000000 PL340_BASE_BUF
e0000000 l       *ABS*	00000000 PL340_BASE
00000000 l       *ABS*	00000000 MC_STAT
00000004 l       *ABS*	00000000 MC_CMD
00000008 l       *ABS*	00000000 MC_DIRC
0000000c l       *ABS*	00000000 MC_MCFG
00000010 l       *ABS*	00000000 MC_REFP
00000014 l       *ABS*	00000000 MC_CASL
00000018 l       *ABS*	00000000 MC_DQSS
0000001c l       *ABS*	00000000 MC_MRD
00000020 l       *ABS*	00000000 MC_RAS
00000024 l       *ABS*	00000000 MC_RC
00000028 l       *ABS*	00000000 MC_RCD
0000002c l       *ABS*	00000000 MC_RFC
00000030 l       *ABS*	00000000 MC_RP
00000034 l       *ABS*	00000000 MC_RRD
00000038 l       *ABS*	00000000 MC_WR
0000003c l       *ABS*	00000000 MC_WTR
00000040 l       *ABS*	00000000 MC_XP
00000044 l       *ABS*	00000000 MC_XSR
00000048 l       *ABS*	00000000 MC_ESR
0000004c l       *ABS*	00000000 MC_MCFG2
00000050 l       *ABS*	00000000 MC_MCFG3
00000100 l       *ABS*	00000000 MC_QOS0
00000104 l       *ABS*	00000000 MC_QOS1
00000108 l       *ABS*	00000000 MC_QOS2
0000010c l       *ABS*	00000000 MC_QOS3
00000110 l       *ABS*	00000000 MC_QOS4
00000114 l       *ABS*	00000000 MC_QOS5
00000118 l       *ABS*	00000000 MC_QOS6
0000011c l       *ABS*	00000000 MC_QOS7
00000120 l       *ABS*	00000000 MC_QOS8
00000124 l       *ABS*	00000000 MC_QOS9
00000128 l       *ABS*	00000000 MC_QOS10
0000012c l       *ABS*	00000000 MC_QOS11
00000130 l       *ABS*	00000000 MC_QOS12
00000134 l       *ABS*	00000000 MC_QOS13
00000138 l       *ABS*	00000000 MC_QOS14
0000013c l       *ABS*	00000000 MC_QOS15
00000200 l       *ABS*	00000000 MC_CCFG0
00000204 l       *ABS*	00000000 MC_CCFG1
00000208 l       *ABS*	00000000 MC_CCFG2
0000020c l       *ABS*	00000000 MC_CCFG3
00000300 l       *ABS*	00000000 DLL_STATUS
00000304 l       *ABS*	00000000 DLL_CONFIG0
00000308 l       *ABS*	00000000 DLL_CONFIG1
f1000000 l       *ABS*	00000000 RTR_BASE_UNBUF
e1000000 l       *ABS*	00000000 RTR_BASE_BUF
e1000000 l       *ABS*	00000000 RTR_BASE
00000000 l       *ABS*	00000000 RTR_CONTROL
00000004 l       *ABS*	00000000 RTR_STATUS
00000008 l       *ABS*	00000000 RTR_EHDR
0000000c l       *ABS*	00000000 RTR_EKEY
00000010 l       *ABS*	00000000 RTR_EDAT
00000014 l       *ABS*	00000000 RTR_ESTAT
00000018 l       *ABS*	00000000 RTR_DHDR
0000001c l       *ABS*	00000000 RTR_DKEY
00000020 l       *ABS*	00000000 RTR_DDAT
00000024 l       *ABS*	00000000 RTR_DLINK
00000028 l       *ABS*	00000000 RTR_DSTAT
0000002c l       *ABS*	00000000 RTR_DGEN
00000084 l       *ABS*	00000000 RTR_FR
00000200 l       *ABS*	00000000 RTR_DGF0
00000204 l       *ABS*	00000000 RTR_DGF1
00000208 l       *ABS*	00000000 RTR_DGF2
0000020c l       *ABS*	00000000 RTR_DGF3
00000210 l       *ABS*	00000000 RTR_DGF4
00000214 l       *ABS*	00000000 RTR_DGF5
00000218 l       *ABS*	00000000 RTR_DGF6
0000021c l       *ABS*	00000000 RTR_DGF7
00000220 l       *ABS*	00000000 RTR_DGF8
00000224 l       *ABS*	00000000 RTR_DGF9
00000228 l       *ABS*	00000000 RTR_DGF10
0000022c l       *ABS*	00000000 RTR_DGF11
00000230 l       *ABS*	00000000 RTR_DGF12
00000234 l       *ABS*	00000000 RTR_DGF13
00000238 l       *ABS*	00000000 RTR_DGF14
0000023c l       *ABS*	00000000 RTR_DGF15
00000300 l       *ABS*	00000000 RTR_DGC0
00000304 l       *ABS*	00000000 RTR_DGC1
00000308 l       *ABS*	00000000 RTR_DGC2
0000030c l       *ABS*	00000000 RTR_DGC3
00000310 l       *ABS*	00000000 RTR_DGC4
00000314 l       *ABS*	00000000 RTR_DGC5
00000318 l       *ABS*	00000000 RTR_DGC6
0000031c l       *ABS*	00000000 RTR_DGC7
00000320 l       *ABS*	00000000 RTR_DGC8
00000324 l       *ABS*	00000000 RTR_DGC9
00000328 l       *ABS*	00000000 RTR_DGC10
0000032c l       *ABS*	00000000 RTR_DGC11
00000330 l       *ABS*	00000000 RTR_DGC12
00000334 l       *ABS*	00000000 RTR_DGC13
00000338 l       *ABS*	00000000 RTR_DGC14
0000033c l       *ABS*	00000000 RTR_DGC15
00000f00 l       *ABS*	00000000 RTR_TST1
00000f04 l       *ABS*	00000000 RTR_TST2
00002000 l       *ABS*	00000000 P2P_TABLE_SIZE
00000400 l       *ABS*	00000000 MC_TABLE_SIZE
00000018 l       *ABS*	00000000 MC_RAM_WIDTH
00ffffff l       *ABS*	00000000 MC_RAM_MASK
00000008 l       *ABS*	00000000 P2P_EPW
00000003 l       *ABS*	00000000 P2P_LOG_EPW
00000007 l       *ABS*	00000000 P2P_EMASK
00000003 l       *ABS*	00000000 P2P_BPE
00000007 l       *ABS*	00000000 P2P_BMASK
00db6db6 l       *ABS*	00000000 P2P_INIT
e1004000 l       *ABS*	00000000 RTR_MCRAM_BASE
e1005000 l       *ABS*	00000000 RTR_MCRAM_TOP
e1008000 l       *ABS*	00000000 RTR_MCKEY_BASE
e1009000 l       *ABS*	00000000 RTR_MCKEY_TOP
e100c000 l       *ABS*	00000000 RTR_MCMASK_BASE
e100d000 l       *ABS*	00000000 RTR_MCMASK_TOP
e1010000 l       *ABS*	00000000 RTR_P2P_BASE
e1018000 l       *ABS*	00000000 RTR_P2P_TOP
00000020 l       *ABS*	00000000 MC_CAM_WIDTH
f2000000 l       *ABS*	00000000 SYSCTL_BASE_UNBUF
e2000000 l       *ABS*	00000000 SYSCTL_BASE_BUF
e2000000 l       *ABS*	00000000 SYSCTL_BASE
5ec00000 l       *ABS*	00000000 SC_CODE
59111012 l       *ABS*	00000000 CHIP_ID_CODE
00000000 l       *ABS*	00000000 SC_CHIP_ID
00000004 l       *ABS*	00000000 SC_CPU_DIS
00000008 l       *ABS*	00000000 SC_SET_IRQ
0000000c l       *ABS*	00000000 SC_CLR_IRQ
00000010 l       *ABS*	00000000 SC_SET_OK
00000010 l       *ABS*	00000000 SC_CPU_OK
00000014 l       *ABS*	00000000 SC_CLR_OK
00000018 l       *ABS*	00000000 SC_SOFT_RST_L
0000001c l       *ABS*	00000000 SC_HARD_RST_L
00000020 l       *ABS*	00000000 SC_SUBS_RST_L
00000024 l       *ABS*	00000000 SC_SOFT_RST_P
00000028 l       *ABS*	00000000 SC_HARD_RST_P
0000002c l       *ABS*	00000000 SC_SUBS_RST_P
00000030 l       *ABS*	00000000 SC_RST_CODE
00000034 l       *ABS*	00000000 SC_MON_ID
00000038 l       *ABS*	00000000 SC_MISC_CTRL
0000003c l       *ABS*	00000000 GPIO_RES
00000040 l       *ABS*	00000000 GPIO_PORT
00000044 l       *ABS*	00000000 GPIO_DIR
00000048 l       *ABS*	00000000 GPIO_SET
0000004c l       *ABS*	00000000 GPIO_CLR
00000048 l       *ABS*	00000000 GPIO_READ
00000050 l       *ABS*	00000000 SC_PLL1
00000054 l       *ABS*	00000000 SC_PLL2
00000058 l       *ABS*	00000000 SC_FLAG
00000058 l       *ABS*	00000000 SC_SETFLAG
0000005c l       *ABS*	00000000 SC_CLRFLAG
00000060 l       *ABS*	00000000 SC_CLKMUX
00000064 l       *ABS*	00000000 SC_SLEEP
00000068 l       *ABS*	00000000 SC_TS0
0000006c l       *ABS*	00000000 SC_TS1
00000070 l       *ABS*	00000000 SC_TS2
00000080 l       *ABS*	00000000 SC_ARB0
00000100 l       *ABS*	00000000 SC_TAS0
00000180 l       *ABS*	00000000 SC_TAC0
00000200 l       *ABS*	00000000 SC_LINK_DIS
00000000 l       *ABS*	00000000 RST_POR
00000001 l       *ABS*	00000000 RST_WDT
00000002 l       *ABS*	00000000 RST_USER
00000003 l       *ABS*	00000000 RST_SW
00000004 l       *ABS*	00000000 RST_WDI
f3000000 l       *ABS*	00000000 WDOG_BASE_UNBUF
e3000000 l       *ABS*	00000000 WDOG_BASE_BUF
e3000000 l       *ABS*	00000000 WDOG_BASE
00000000 l       *ABS*	00000000 WD_LOAD
00000004 l       *ABS*	00000000 WD_COUNT
00000008 l       *ABS*	00000000 WD_CTRL
0000000c l       *ABS*	00000000 WD_INTCLR
00000010 l       *ABS*	00000000 WD_RAWINT
00000014 l       *ABS*	00000000 WD_MSKINT
00000c00 l       *ABS*	00000000 WD_LOCK
1acce551 l       *ABS*	00000000 WD_CODE
00000001 l       *ABS*	00000000 WD_INT_B
00000002 l       *ABS*	00000000 WD_RST_B
f4000000 l       *ABS*	00000000 ETH_BASE_UNBUF
e4000000 l       *ABS*	00000000 ETH_BASE_BUF
e4000000 l       *ABS*	00000000 ETH_BASE
e4000000 l       *ABS*	00000000 ETH_TX_BASE
00000600 l       *ABS*	00000000 ETH_TX_SIZE
e4000600 l       *ABS*	00000000 ETH_TX_TOP
e4004000 l       *ABS*	00000000 ETH_RX_BASE
00000c00 l       *ABS*	00000000 ETH_RX_SIZE
e4004c00 l       *ABS*	00000000 ETH_RX_TOP
e4008000 l       *ABS*	00000000 ETH_RX_DESC_RAM
e400c000 l       *ABS*	00000000 ETH_REGS
00000000 l       *ABS*	00000000 ETH_CONTROL
00000004 l       *ABS*	00000000 ETH_STATUS
00000008 l       *ABS*	00000000 ETH_TX_LEN
0000000c l       *ABS*	00000000 ETH_TX_CMD
00000010 l       *ABS*	00000000 ETH_RX_CMD
00000014 l       *ABS*	00000000 ETH_MAC_LO
00000018 l       *ABS*	00000000 ETH_MAC_HI
0000001c l       *ABS*	00000000 ETH_PHY_CTRL
00000020 l       *ABS*	00000000 ETH_INT_CLR
00000024 l       *ABS*	00000000 ETH_RX_BUF_RP
0000002c l       *ABS*	00000000 ETH_RX_DESC_RP
00000001 l       *ABS*	00000000 ETH_TX_CLR
00000010 l       *ABS*	00000000 ETH_RX_CLR
00000001 l       *ABS*	00000000 PHY_CTRL_NRST
00000002 l       *ABS*	00000000 PHY_CTRL_DIN
00000004 l       *ABS*	00000000 PHY_CTRL_DOUT
00000008 l       *ABS*	00000000 PHY_CTRL_OE
00000010 l       *ABS*	00000000 PHY_CTRL_CLK
00000000 l       *ABS*	00000000 PKT_MC
00400000 l       *ABS*	00000000 PKT_P2P
00800000 l       *ABS*	00000000 PKT_NN
00a00000 l       *ABS*	00000000 PKT_NND
00c00000 l       *ABS*	00000000 PKT_FR
00020000 l       *ABS*	00000000 PKT_PL
00020000 l       *ABS*	00000000 PKT_MC_PL
00420000 l       *ABS*	00000000 PKT_P2P_PL
00820000 l       *ABS*	00000000 PKT_NN_PL
00c20000 l       *ABS*	00000000 PKT_FR_PL
0000000a l       *ABS*	00000000 CLK_XTAL_MHZ
0007011a l       *ABS*	00000000 PLL_260
0007011e l       *ABS*	00000000 PLL_300
00070121 l       *ABS*	00000000 PLL_330
00070128 l       *ABS*	00000000 PLL_400
00000050 l       *ABS*	00000000 PLL_LOCK_TIME
809488a5 l       *ABS*	00000000 PLL_CLK_SEL
00000020 l       *ABS*	00000000 SERIAL_NCS
00000010 l       *ABS*	00000000 SERIAL_CLK
00000008 l       *ABS*	00000000 SERIAL_SI
00000004 l       *ABS*	00000000 SERIAL_SO
00000038 l       *ABS*	00000000 SERIAL_OE
80000000 l       *ABS*	00000000 SDRAM_TQ
40000000 l       *ABS*	00000000 SDRAM_DPD
20000000 l       *ABS*	00000000 SDRAM_HERE
08000000 l       *ABS*	00000000 JTAG_NTRST
04000000 l       *ABS*	00000000 JTAG_TMS
02000000 l       *ABS*	00000000 JTAG_TDI
01000000 l       *ABS*	00000000 JTAG_TCK
00100000 l       *ABS*	00000000 JTAG_RTCK
00080000 l       *ABS*	00000000 JTAG_TDO
00008000 l       *ABS*	00000000 JTAG_INT
00000001 l       *ABS*	00000000 LED_0
00000010 l       *ABS*	00000000 MODE_USER
00000011 l       *ABS*	00000000 MODE_FIQ
00000012 l       *ABS*	00000000 MODE_IRQ
00000013 l       *ABS*	00000000 MODE_SVC
00000017 l       *ABS*	00000000 MODE_ABT
0000001b l       *ABS*	00000000 MODE_UND
0000001f l       *ABS*	00000000 MODE_SYS
00000020 l       *ABS*	00000000 THUMB_BIT
00000080 l       *ABS*	00000000 IMASK_IRQ
00000040 l       *ABS*	00000000 IMASK_FIQ
000000c0 l       *ABS*	00000000 IMASK_ALL
00000001 l       *ABS*	00000000 SARK_EVENT
00000180 l       *ABS*	00000000 SVC_STACK
00000100 l       *ABS*	00000000 IRQ_STACK
00000100 l       *ABS*	00000000 FIQ_STACK
00000004 l       *ABS*	00000000 NUM_SDP_MSGS
0000000f l       *ABS*	00000000 SARK_SLOT
00000010 l       *ABS*	00000000 INIT_EVENTS
deaddead l       *ABS*	00000000 DEAD_WORD
00000001 l       *ABS*	00000000 APLX_ACOPY
00000002 l       *ABS*	00000000 APLX_RCOPY
00000003 l       *ABS*	00000000 APLX_FILL
00000004 l       *ABS*	00000000 APLX_EXEC
000000ff l       *ABS*	00000000 APLX_END
00000010 l       *ABS*	00000000 APLX_ENTRY_SIZE
00000040 l       *ABS*	00000000 APLX_BUF_SIZE
00007fc0 l       *ABS*	00000000 APLX_BUFFER
000000ff l       *ABS*	00000000 TAG_NONE
00000000 l       *ABS*	00000000 TAG_HOST
00000001 l       *ABS*	00000000 RTR_ALLOC_FIRST
00000400 l       *ABS*	00000000 RTR_ALLOC_LAST
000003ff l       *ABS*	00000000 RTR_ALLOC_MAX
00000001 l       *ABS*	00000000 ALLOC_LOCK
00000002 l       *ABS*	00000000 ALLOC_ID
00000005 l       *ABS*	00000000 A_LOCK_SEMA
00000001 l       *ABS*	00000000 A_RTE_RESET
00000002 l       *ABS*	00000000 A_RTE_UNDEF
00000003 l       *ABS*	00000000 A_RTE_SVC
00000004 l       *ABS*	00000000 A_RTE_PABT
00000005 l       *ABS*	00000000 A_RTE_DABT
00000006 l       *ABS*	00000000 A_RTE_IRQ
00000007 l       *ABS*	00000000 A_RTE_FIQ
00000008 l       *ABS*	00000000 A_RTE_VIC
00000002 l       *ABS*	00000000 A_STATE_RTE
00000006 l       *ABS*	00000000 EVENT_COUNT
00000000 l       *ABS*	00000000 CMD_VER
00000001 l       *ABS*	00000000 CMD_RUN
00000002 l       *ABS*	00000000 CMD_READ
00000003 l       *ABS*	00000000 CMD_WRITE
00000004 l       *ABS*	00000000 CMD_APLX
00000005 l       *ABS*	00000000 CMD_FILL
00000010 l       *ABS*	00000000 CMD_REMAP
00000011 l       *ABS*	00000000 CMD_LINK_READ
00000012 l       *ABS*	00000000 CMD_LINK_WRITE
00000013 l       *ABS*	00000000 CMD_AR
00000014 l       *ABS*	00000000 CMD_NNP
00000016 l       *ABS*	00000000 CMD_SIG
00000017 l       *ABS*	00000000 CMD_FFD
00000018 l       *ABS*	00000000 CMD_AS
00000019 l       *ABS*	00000000 CMD_LED
0000001a l       *ABS*	00000000 CMD_IPTAG
0000001b l       *ABS*	00000000 CMD_SROM
0000001c l       *ABS*	00000000 CMD_ALLOC
0000001d l       *ABS*	00000000 CMD_RTR
0000001f l       *ABS*	00000000 CMD_INFO
00000040 l       *ABS*	00000000 CMD_TUBE
00000080 l       *ABS*	00000000 RC_OK
00000081 l       *ABS*	00000000 RC_LEN
00000082 l       *ABS*	00000000 RC_SUM
00000083 l       *ABS*	00000000 RC_CMD
00000084 l       *ABS*	00000000 RC_ARG
00000085 l       *ABS*	00000000 RC_PORT
00000086 l       *ABS*	00000000 RC_TIMEOUT
00000087 l       *ABS*	00000000 RC_ROUTE
00000088 l       *ABS*	00000000 RC_CPU
00000089 l       *ABS*	00000000 RC_DEAD
0000008a l       *ABS*	00000000 RC_BUF
0000008b l       *ABS*	00000000 RC_P2P_NOREPLY
0000008c l       *ABS*	00000000 RC_P2P_REJECT
0000008d l       *ABS*	00000000 RC_P2P_BUSY
0000008e l       *ABS*	00000000 RC_P2P_TIMEOUT
0000008f l       *ABS*	00000000 RC_PKT_TX
00000000 l       *ABS*	00000000 TYPE_BYTE
00000001 l       *ABS*	00000000 TYPE_HALF
00000002 l       *ABS*	00000000 TYPE_WORD
00000008 l       *ABS*	00000000 NUM_SDP_PORTS
00000005 l       *ABS*	00000000 PORT_SHIFT
000000e0 l       *ABS*	00000000 PORT_MASK
0000001f l       *ABS*	00000000 CPU_MASK
000000ff l       *ABS*	00000000 PORT_ETH
00000100 l       *ABS*	00000000 SDP_BUF_SIZE
00000080 l       *ABS*	00000000 VCPU_SIZE
0000002c l       *ABS*	00000000 VCPU_RT_CODE
0000002e l       *ABS*	00000000 VCPU_CPU_STATE
0000002f l       *ABS*	00000000 VCPU_APP_ID
0000001c l       *ABS*	00000000 SARK_MSG_INT
0000001d l       *ABS*	00000000 SARK_SIG_INT
00000000 l       *ABS*	00000000 SARK_VIRT_CPU
00000008 l       *ABS*	00000000 SARK_RANDOM
00000030 l       *ABS*	00000000 SARK_CPU_CLK
00000020 l       *ABS*	00000000 SV_SSIZE
00000060 l       *ABS*	00000000 SV_USIZE
00000080 l       *ABS*	00000000 SV_ISIZE
00000020 l       *ABS*	00000000 SV_VSIZE
00000040 l       *ABS*	00000000 SV_RSIZE
00001000 l       *ABS*	00000000 SV_SIZE
e5007fe0 l       *ABS*	00000000 SV_SROM
e5007f80 l       *ABS*	00000000 SV_UBASE
e5007f00 l       *ABS*	00000000 SV_IBASE
e5007f00 l       *ABS*	00000000 SV_SV
00000100 l       *ABS*	00000000 SYS_BOOT
e5007000 l       *ABS*	00000000 SYS_USER_TOP
e5000100 l       *ABS*	00000000 SYS_USER_BASE
e5007ee0 l       *ABS*	00000000 SV_VECTORS
e5007ea0 l       *ABS*	00000000 SV_RANDOM
e5007000 l       *ABS*	00000000 SV_VCPU
e5007900 l       *ABS*	00000000 SV_SPARE
000005a0 l       *ABS*	00000000 SPARE_SIZE
e5007fe0 l       *ABS*	00000000 SROM_FLAG_BASE
e5007f80 l       *ABS*	00000000 STATUS_MAP_BASE
e5007ee0 l       *ABS*	00000000 RST_BLOCK_BASE
00008000 l       *ABS*	00000000 SRF_PRESENT
000000f0 l       *ABS*	00000000 SRF_HW_VER
00000008 l       *ABS*	00000000 SRF_PHY_INIT
00000004 l       *ABS*	00000000 SRF_PHY_RST
00000002 l       *ABS*	00000000 SRF_PHY_WAIT
00000001 l       *ABS*	00000000 SRF_ETH
00000000 l       *ABS*	00000000 SRF_NONE
00000020 l       RO_DATA	00000000 reset_vec
00000004 l       RO_DATA	00000000 undef
00000024 l       RO_DATA	00000000 undef_vec
00000028 l       RO_DATA	00000000 svc_vec
0000002c l       RO_DATA	00000000 pabt_vec
00000030 l       RO_DATA	00000000 dabt_vec
0000003c l       RO_DATA	00000000 fiq_vec
00000078 l       RO_DATA	00000000 reset_entry
000000d8 l       RO_DATA	00000000 undef_error
000000e0 l       RO_DATA	00000000 svc_error
000000e8 l       RO_DATA	00000000 pabt_error
000000f0 l       RO_DATA	00000000 dabt_error
00000034 l       RO_DATA	00000000 aplx_proc
00000038 l       RO_DATA	00000000 irq_vec
000000f8 l       RO_DATA	00000000 irq_error
00000100 l       RO_DATA	00000000 fiq_error
00000040 l       RO_DATA	00000000 svc_stack
00000042 l       RO_DATA	00000000 irq_stack
00000044 l       RO_DATA	00000000 fiq_stack
00000046 l       RO_DATA	00000000 stack_size
00000048 l       RO_DATA	00000000 code_top
0000004c l       RO_DATA	00000000 heap_base
00000050 l       RO_DATA	00000000 stack_top
00000054 l       RO_DATA	00000000 stack_fill
00000058 l       RO_DATA	00000000 num_msgs
00000059 l       RO_DATA	00000000 sark_slot
0000005a l       RO_DATA	00000000 num_events
0000005b l       RO_DATA	00000000 api
0000005c l       RO_DATA	00000000 app_id
0000005d l       RO_DATA	00000000 app_flags
0000005e l       RO_DATA	00000000 __PAD
00000060 l       RO_DATA	00000000 event_vec
000000d0 l       RO_DATA	00000000 reset_error
00000114 l       RO_DATA	00000000 exc_error
00000138 l       RO_DATA	00000000 cc_error
000001fc l       RO_DATA	00000000 lg1
00000238 l       RO_DATA	00000000 ws1
00000298 l       RO_DATA	00000000 wc2
00000280 l       RO_DATA	00000000 wc1
000002c4 l       RO_DATA	00000000 delay1
0000038c l       RO_DATA	00000000 aplx_buffer
00000390 l       RO_DATA	00000000 aplx_loader
0000037c l       RO_DATA	00000000 aplx_l0
000003a8 l       RO_DATA	00000000 aplx_copy
000003a4 l       RO_DATA	00000000 aplx_rcopy
000003b6 l       RO_DATA	00000000 aplx_fill
000003c6 l       RO_DATA	00000000 aplx_exec
000003bc l       RO_DATA	00000000 aplx_l1
00000000 l    df *ABS*	00000000 sark_base.c
00000000 l    df *ABS*	00000000 sark_event.c
00000000 l    df *ABS*	00000000 sark_timer.c
00000000 l    df *ABS*	00000000 sark_hw.c
00000000 l    df *ABS*	00000000 sark_isr.c
00000000 l    df *ABS*	00000000 sark_alloc.c
00000000 l    df *ABS*	00000000 sark_io.c
00004db4 l     F RO_DATA	00000040 io_buf_init
00004ee0 l     F RO_DATA	000000ba io_put_fixed
00400444 l     O ZI_DATA	00000004 buf_ptr
00400448 l     O ZI_DATA	00000004 io_buf
0040044c l     O ZI_DATA	00000004 io_msg
00400450 l     O ZI_DATA	00000004 sp_ptr
00007b2d l     O RO_DATA	00000011 hex
00000000 l    df *ABS*	00000000 sark_pkt.c
00000000 l    df *ABS*	00000000 sark_div0.c
00000000 l    df *ABS*	00000000 DRNL_SpiNN_pipe.c
00000000 l    df *ABS*	00000000 data_specification.c
00000000 l    df *ABS*	00000000 stdfix-exp.c
00007668 l     O RO_DATA	000000d0 __exp_hi
00007738 l     O RO_DATA	00000040 __expm1_mid
00000000 l    df *ABS*	00000000 log.c
00007778 l     O RO_DATA	00000082 recip_table
000077fc l     O RO_DATA	00000104 log_ck
00000000 l    df *ABS*	00000000 cabsf.c
00000000 l    df *ABS*	00000000 cimagf.c
00000000 l    df *ABS*	00000000 crealf.c
00000000 l    df *ABS*	00000000 s_cos.c
00000000 l    df *ABS*	00000000 s_sin.c
00000000 l    df *ABS*	00000000 w_exp.c
00000000 l    df *ABS*	00000000 wf_hypot.c
00000000 l    df *ABS*	00000000 e_exp.c
00007910 l     O RO_DATA	00000010 halF
00007920 l     O RO_DATA	00000010 ln2HI
00007930 l     O RO_DATA	00000010 ln2LO
00000000 l    df *ABS*	00000000 e_rem_pio2.c
00007940 l     O RO_DATA	00000080 npio2_hw
000079c0 l     O RO_DATA	00000108 two_over_pi
00000000 l    df *ABS*	00000000 ef_hypot.c
00000000 l    df *ABS*	00000000 ef_sqrt.c
00000000 l    df *ABS*	00000000 k_cos.c
00000000 l    df *ABS*	00000000 k_rem_pio2.c
00007ac8 l     O RO_DATA	00000040 PIo2
00007b08 l     O RO_DATA	00000010 init_jk
00000000 l    df *ABS*	00000000 k_sin.c
00000000 l    df *ABS*	00000000 s_fabs.c
00000000 l    df *ABS*	00000000 s_finite.c
00000000 l    df *ABS*	00000000 s_floor.c
00000000 l    df *ABS*	00000000 s_matherr.c
00000000 l    df *ABS*	00000000 s_scalbn.c
00000000 l    df *ABS*	00000000 sf_finite.c
00000000 l    df *ABS*	00000000 s_copysign.c
00000000 l    df *ABS*	00000000 spin1_api.c
00400454 l     O ZI_DATA	00000004 paused
00400458 l     O ZI_DATA	00000004 resume_sync
0040045c l     O ZI_DATA	00000004 run
00400460 l     O ZI_DATA	00000320 task_queue
00400780 l     O ZI_DATA	00000004 timer_phase
00400784 l     O ZI_DATA	00000004 timer_tick
00000000 l    df *ABS*	00000000 spin1_isr.c
00000000 l    df *ABS*	00000000 _arm_addsubdf3.o
00000000 l    df *ABS*	00000000 _arm_muldivdf3.o
00000000 l    df *ABS*	00000000 _arm_cmpdf2.o
00000000 l    df *ABS*	00000000 _arm_fixdfsi.o
00000000 l    df *ABS*	00000000 _arm_truncdfsf2.o
00000000 l    df *ABS*	00000000 _arm_addsubsf3.o
00000000 l    df *ABS*	00000000 _arm_muldivsf3.o
00000000 l    df *ABS*	00000000 _arm_cmpsf2.o
00000000 l    df *ABS*	00000000 fixed-bit.c
00000000 l    df *ABS*	00000000 fixed-bit.c
00000000 l    df *ABS*	00000000 _arm_fixsfsi.o
00000000 l    df *ABS*	00000000 errno.c
00000000 l    df *ABS*	00000000 memset.c
00000000 l    df *ABS*	00000000 DRNL_build.c
00000000 l    df *ABS*	00000000 s_lib_ver.c
00000000 l    df *ABS*	00000000 impure.c
00400018 l     O RW_DATA	00000428 impure_data
00007350 l     F RO_DATA	00000008 __spin1_trigger_user_event_from_arm
00007358 l     F RO_DATA	00000008 __io_printf_from_arm
00007360 l     F RO_DATA	00000008 __spin1_exit_from_arm
00007368 l     F RO_DATA	00000008 __spin1_schedule_callback_from_arm
0040078c g     O ZI_DATA	00000004 sdramout_buffer
00400a00 g     O ZI_DATA	00000004 old_vector
00005834 g     F RO_DATA	0000000a spin1_start
000001e8 g     F RO_DATA	00000000 sark_lock_get
000069a4 g     F RO_DATA	00000018 .hidden __aeabi_dcmple
00005b48 g     F RO_DATA	00000030 sark_pre_main
000068b8 g     F RO_DATA	00000088 .hidden __cmpdf2
00004214 g     F RO_DATA	00000008 fabs
0000461c g     F RO_DATA	00000034 sark_shmsg_get
000068b8 g     F RO_DATA	00000088 .hidden __eqdf2
00005a00 g     F RO_DATA	0000000c spin1_get_core_id
00400790 g     O ZI_DATA	00000004 max_rate
00005c30 g     F RO_DATA	00000074 cc_fr_ready_isr
000001b8 g     F RO_DATA	00000000 spin1_int_enable
00400794 g     O ZI_DATA	00000004 ctBM
00000040 g       *ABS*	00000000 RO_FROM
00000800 g       *ABS*	00000000 STACK_SIZE
000063ac g     F RO_DATA	00000060 .hidden __floatdidf
00000362 g     F RO_DATA	00000000 sark_bx
00400798 g     O ZI_DATA	00000004 MOC
0040079c g     O ZI_DATA	00000004 lin_b2
00005548 g     F RO_DATA	00000088 spin1_callback_on
004007a0 g     O ZI_DATA	00000004 lin_theta
000019b0 g     F RO_DATA	00000058 app_done
004007a4 g     O ZI_DATA	00000004 sdramin_buffer
00000258 g     F RO_DATA	00000000 sark_msg_cpy
00005b14 g     F RO_DATA	00000034 spin1_trigger_user_event
004007a8 g     O ZI_DATA	00000008 lin_z1
00001d3c g     F RO_DATA	00000010 cimagf
00006f2c g     F RO_DATA	00000160 .hidden __divsf3
004007b0 g     O ZI_DATA	00000004 dtcm_buffer_y
00000428 g     F RO_DATA	0000025c data_read
00004ba0 g     F RO_DATA	0000003c event_alloc
00005614 g     F RO_DATA	0000006c clean_up
000045ac g     F RO_DATA	0000001e sark_block_init
000071d0 g     F RO_DATA	0000005c .hidden __fixsfsi
00005e70 g     F RO_DATA	00000088 timer1_isr
00004c6c g     F RO_DATA	00000028 sark_fiq_han
00000010 g       *ABS*	00000000 APLX_ENTRY
000068a8 g     F RO_DATA	00000098 .hidden __gtdf2
000045fc g     F RO_DATA	00000020 sark_msg_free
004007b4 g     O ZI_DATA	00000004 nlin_x1b
0000722c g     F RO_DATA	00000010 __errno
004007b8 g     O ZI_DATA	00000004 lin_a2
00005f38 g     F RO_DATA	00000068 soft_int_isr
000059f0 g     F RO_DATA	00000010 spin1_send_mc_packet
004007bc g     O ZI_DATA	00000004 nlin_b1
004007c0 g     O ZI_DATA	00000004 linBWp
00004230 g     F RO_DATA	0000019c floor
004007c4 g     O ZI_DATA	00000008 nlin_y1b
004007cc g     O ZI_DATA	00000004 lin_gain
0000522c g     F RO_DATA	00000028 configure_dma_controller
004007d0 g     O ZI_DATA	00000004 lin_bw
0000695c g     F RO_DATA	00000018 .hidden __aeabi_cdcmple
00001b50 g     F RO_DATA	00000134 expk
00006af4 g     F RO_DATA	000001bc .hidden __aeabi_fadd
00006af0 g     F RO_DATA	000001c0 .hidden __subsf3
00001a08 g     F RO_DATA	000000c4 c_main
004007d4 g     O ZI_DATA	00000004 lin_sin_theta
0000499c g     F RO_DATA	00000168 sark_int
004007d8 g     O ZI_DATA	00000004 read_switch
004007dc g     O ZI_DATA	00000008 lin_y1
00005288 g     F RO_DATA	0000016c configure_vic
00000300 g     F RO_DATA	00000000 sark_int_han
00004b04 g     F RO_DATA	00000058 event_wait
00002618 g     F RO_DATA	00000664 __ieee754_rem_pio2
004007e4 g     O ZI_DATA	00000004 profile_buffer
00006940 g     F RO_DATA	00000034 .hidden __aeabi_cdrcmple
00004988 g     F RO_DATA	00000014 sark_wait
000001d8 g     F RO_DATA	00000000 spin1_mode_restore
000001a8 g     F RO_DATA	00000000 spin1_irq_disable
00007188 g     F RO_DATA	00000018 .hidden __aeabi_fcmpgt
00006330 g     F RO_DATA	00000028 .hidden __floatsidf
00004978 g     F RO_DATA	00000010 sark_cmd_fill
004007e8 g     O ZI_DATA	00000004 data_size
000068b0 g     F RO_DATA	00000090 .hidden __ltdf2
00002c7c g     F RO_DATA	00000278 __ieee754_hypotf
00005aa8 g     F RO_DATA	0000006c spin1_schedule_callback
00004bdc g     F RO_DATA	00000050 sark_vic_init
00005df8 g     F RO_DATA	00000078 dma_done_fiqsr
0000016c g     F RO_DATA	00000000 cpu_shutdown
00006cb8 g     F RO_DATA	00000020 .hidden __aeabi_i2f
004007ec g     O ZI_DATA	00000008 lin_tf
004007f4 g     O ZI_DATA	00000004 nlBWp
000001d8 g     F RO_DATA	00000000 cpu_int_restore
00003000 g     F RO_DATA	00000350 __kernel_cos
00400a04 g     O ZI_DATA	00000048 diagnostics
00007094 g     F RO_DATA	0000006c .hidden __lesf2
00410000 g       *ABS*	00000000 STACK_TOP
004007f8 g     O ZI_DATA	00000004 end_count_process
00400cb4 g       ZI_DATA	00000000 HEAP_BASE
00004c94 g     F RO_DATA	000000cc sark_xalloc
004007fc g     O ZI_DATA	00000004 lin_b1
00400a4c g     O ZI_DATA	00000004 old_enable
0000630c g     F RO_DATA	00000024 .hidden __aeabi_ui2d
00005ff0 g     F RO_DATA	00000000 .hidden __aeabi_drsub
00005254 g     F RO_DATA	00000034 configure_timer1
00004550 g     F RO_DATA	0000001c finitef
00400800 g     O ZI_DATA	00000004 nlin_theta
00000364 g     F RO_DATA	00000000 __gnu_thumb1_case_uqi
0000698c g     F RO_DATA	00000018 .hidden __aeabi_dcmplt
00400804 g     O ZI_DATA	00000004 nlin_sin_theta
00400808 g     O ZI_DATA	00000004 start_count_process
00400440 g     O ZI_DATA	00000004 sync_count
0040080c g     O ZI_DATA	00000004 drnl_cf
00004008 g     F RO_DATA	0000020c __kernel_sin
00006358 g     F RO_DATA	00000040 .hidden __extendsfdf2
0000669c g     F RO_DATA	0000020c .hidden __aeabi_ddiv
00005ffc g     F RO_DATA	00000310 .hidden __adddf3
0000709c g     F RO_DATA	00000064 .hidden __nesf2
00400810 g     O ZI_DATA	00000004 nlin_cos_theta
0000640c g     F RO_DATA	00000290 .hidden __aeabi_dmul
00400000 g     O RW_DATA	00000001 __fdlib_version
00400a50 g     O ZI_DATA	00000004 user_arg1
00004650 g     F RO_DATA	00000024 sark_shmsg_free
00002208 g     F RO_DATA	0000040c __ieee754_exp
00000334 g     F RO_DATA	00000000 schedule
00005cdc g     F RO_DATA	0000008c cc_tx_empty_isr
00400814 g     O ZI_DATA	00000004 recip_ctBM
0000630c g     F RO_DATA	00000024 .hidden __floatunsidf
0000012c g     F RO_DATA	00000000 rt_error
00001d00 g     F RO_DATA	0000003c cabsf
00006a48 g     F RO_DATA	000000a0 .hidden __aeabi_d2f
00005bf8 g     F RO_DATA	00000038 cc_rx_ready_fiqsr
00006af0 g     F RO_DATA	000001c0 .hidden __aeabi_fsub
00003350 g     F RO_DATA	00000cb8 __kernel_rem_pio2
00005a0c g     F RO_DATA	0000000c spin1_get_chip_id
00400818 g     O ZI_DATA	00000004 nlin_a1
00400008 g     O RW_DATA	00000004 fr_pkt_prio
00007170 g     F RO_DATA	00000018 .hidden __aeabi_fcmpge
000069ec g     F RO_DATA	0000005c .hidden __fixdfsi
00004588 g     F RO_DATA	00000010 sark_cpu_state
0040081c g     O ZI_DATA	00000004 dtcm_buffer_b
00006ce8 g     F RO_DATA	000000ac .hidden __floatdisf
00400788 g     O ZI_DATA	00000001 user_pending
00001278 g     F RO_DATA	0000056c process_chan
00400820 g     O ZI_DATA	00000004 nlin_b2
0000708c g     F RO_DATA	00000074 .hidden __gtsf2
00001d4c g     F RO_DATA	0000000c crealf
00005ffc g     F RO_DATA	00000310 .hidden __aeabi_dadd
000068b0 g     F RO_DATA	00000090 .hidden __ledf2
0040000c g     O RW_DATA	00000004 mc_pkt_prio
00007158 g     F RO_DATA	00000018 .hidden __aeabi_fcmple
000055d0 g     F RO_DATA	0000000c spin1_get_simulation_time
00006398 g     F RO_DATA	00000074 .hidden __aeabi_ul2d
00400824 g     O ZI_DATA	00000004 compressedNonlin
00005b78 g     F RO_DATA	0000000a sark_post_main
00007cb0 g       *ABS*	00000000 RW_FROM
000020e0 g     F RO_DATA	00000128 hypotf
000001a8 g     F RO_DATA	00000000 cpu_irq_disable
00400828 g     O ZI_DATA	00000004 lin_a1
00000000 g       RO_DATA	00000000 cpu_reset
000002d0 g     F RO_DATA	00000000 sark_div10
0040082c g     O ZI_DATA	00000004 test_DMA
00400830 g     O ZI_DATA	00000004 index_x
00000108 g       RO_DATA	00000000 vic_error
000069d4 g     F RO_DATA	00000018 .hidden __aeabi_dcmpgt
00400834 g     O ZI_DATA	00000004 seg_index
00001d58 g     F RO_DATA	000000fc cos
00400838 g     O ZI_DATA	00000004 linCFq
00400000 g       *ABS*	00000000 DTCM_BASE
0040083c g     O ZI_DATA	00000008 nlin_y1a
00400844 g     O ZI_DATA	00000004 lin_phi
000069bc g     F RO_DATA	00000018 .hidden __aeabi_dcmpge
00400848 g     O ZI_DATA	00000004 nlin_x1a
00005ff8 g     F RO_DATA	00000314 .hidden __aeabi_dsub
00001e54 g     F RO_DATA	00000100 sin
00006398 g     F RO_DATA	00000074 .hidden __floatundidf
0040084c g     O ZI_DATA	00000004 write_switch
0000583e g     F RO_DATA	00000008 spin1_delay_us
00007608 g     O RO_DATA	00000005 build_name
00006cb8 g     F RO_DATA	00000020 .hidden __floatsisf
00400850 g     O ZI_DATA	00000004 ome_appID
00400854 g     O ZI_DATA	00000008 nlin_z2
00000360  w    F RO_DATA	00000000 sark_config
0040085c g     O ZI_DATA	00000004 nlin_bw
000071a0 g     F RO_DATA	00000018 .hidden __gnu_fractsasf
000071d0 g     F RO_DATA	0000005c .hidden __aeabi_f2iz
00400860 g     O ZI_DATA	00000004 nlin_a2
0000709c g     F RO_DATA	00000064 .hidden __eqsf2
00400864 g     O ZI_DATA	00000008 lin_y2
00004b5c g     F RO_DATA	0000002c event_pause
0040086c g     O ZI_DATA	00000004 start_count_write
00400870 g     O ZI_DATA	00000004 c
00007610 g     O RO_DATA	00000004 build_date
00400874 g     O ZI_DATA	00000004 nlin_alpha
0000020c g     F RO_DATA	00000000 sark_lock_free
00004d60 g     F RO_DATA	00000018 sark_alloc
00400000 g       *ABS*	00000000 RW_BASE
000058ec g     F RO_DATA	00000104 spin1_send_packet
00006f2c g     F RO_DATA	00000160 .hidden __aeabi_fdiv
00000440 g       ZI_DATA	00000000 RW_LENGTH
00006330 g     F RO_DATA	00000028 .hidden __aeabi_i2d
00005fa0 g     F RO_DATA	00000050 soft_int_fiqsr
00400878 g     O ZI_DATA	00000004 lin_x1
00005460 g     F RO_DATA	000000e8 dispatch
00000190 g     F RO_DATA	00000000 cpu_init_mode
00006cd8 g     F RO_DATA	000000bc .hidden __floatundisf
00000268 g     F RO_DATA	00000000 sark_word_cpy
0040087c g     O ZI_DATA	00000008 lin_z2
00000040 g       *ABS*	00000000 APLX_SIZE
0000017c g     F RO_DATA	00000000 cpu_sleep
00004d98 g     F RO_DATA	0000001c sark_tag_ptr
0000669c g     F RO_DATA	0000020c .hidden __divdf3
00400004 g     O RW_DATA	00000004 fiq_event
00400a54 g     O ZI_DATA	00000001 leadAp
00400884 g     O ZI_DATA	00000004 placement_coreID
0040092c g     O ZI_DATA	0000003c sark
00006cb0 g     F RO_DATA	00000028 .hidden __aeabi_ui2f
00400888 g     O ZI_DATA	00000004 processing
0000640c g     F RO_DATA	00000290 .hidden __muldf3
000047cc g     F RO_DATA	00000098 sark_msg_send
0040088c g     O ZI_DATA	00000004 end_count_write
000001e0 g     F RO_DATA	00000000 spin1_wfi
00400890 g     O ZI_DATA	00000004 dispThresh
00004864 g     F RO_DATA	00000050 sark_cmd_ver
0000709c g     F RO_DATA	00000064 .hidden __cmpsf2
00400894 g     O ZI_DATA	00000004 nlin_b0
00000718 g     F RO_DATA	00000b60 app_init
000001e0 g     F RO_DATA	00000000 cpu_wfi
0000723c g     F RO_DATA	00000114 memset
00002ef4 g     F RO_DATA	00000108 __ieee754_sqrtf
00004b88 g     F RO_DATA	00000018 event_stop
00001acc g     F RO_DATA	00000044 data_specification_get_data_address
000053f4 g     F RO_DATA	00000044 resume
000001c8 g     F RO_DATA	00000000 cpu_int_disable
00006ce8 g     F RO_DATA	000000ac .hidden __aeabi_l2f
00004c2c g     F RO_DATA	00000040 sark_vic_set
00007094 g     F RO_DATA	0000006c .hidden __ltsf2
00004d78 g     F RO_DATA	0000001e sark_heap_init
00400898 g     O ZI_DATA	00000004 lin_alpha
00000684 g     F RO_DATA	00000094 data_write
00005ca4 g     F RO_DATA	00000038 cc_fr_ready_fiqsr
000055dc g     F RO_DATA	00000024 spin1_exit
00400968 g     O ZI_DATA	00000098 event
0040089c g     O ZI_DATA	00000004 dtcm_buffer_x
000043cc g     F RO_DATA	00000008 matherr
00006a48 g     F RO_DATA	000000a0 .hidden __truncdfsf2
00007370 g       RO_DATA	00000000 __init_array_end
00001b10 g     F RO_DATA	0000000c data_specification_get_region
000063ac g     F RO_DATA	00000060 .hidden __aeabi_l2d
00004914 g     F RO_DATA	00000064 sark_cmd_write
00005b84 g     F RO_DATA	00000074 cc_rx_ready_isr
004008a0 g     O ZI_DATA	00000004 key
00006cd8 g     F RO_DATA	000000bc .hidden __aeabi_ul2f
00001f58 g     F RO_DATA	00000188 exp
004008a4 g     O ZI_DATA	00000004 nlin_phi
004008a8 g     O ZI_DATA	00000004 num_ihcans
00007110 g     F RO_DATA	00000018 .hidden __aeabi_cfcmple
00004690  w    F RO_DATA	0000013c sark_init
00006d94 g     F RO_DATA	00000198 .hidden __mulsf3
0000421c g     F RO_DATA	00000010 finite
0000457c  w    F RO_DATA	0000000c rte_handler
00000374 g     F RO_DATA	00000000 sark_aplx
00005680 g     F RO_DATA	00000078 report_debug
0000456c g     F RO_DATA	00000010 copysign
000068b8 g     F RO_DATA	00000088 .hidden __nedf2
00004f9c g     F RO_DATA	00000290 io_printf
00400a58 g     O ZI_DATA	00000148 dma_queue
00000234 g     F RO_DATA	00000000 sark_word_set
004008ac g     O ZI_DATA	00000004 linBWq
004008b0 g     O ZI_DATA	00000004 lin_cos_theta
00400ba0 g     O ZI_DATA	00000004 old_select
004008b4 g     O ZI_DATA	00000008 nlin_z1
004008bc g     O ZI_DATA	00000008 nlin_tf
004008c4 g     O ZI_DATA	00000004 start_count_read
000056f8 g     F RO_DATA	00000048 report_warns
004008c8 g     O ZI_DATA	00000004 coreID
0000708c g     F RO_DATA	00000074 .hidden __gesf2
00006ae8 g     F RO_DATA	000001c8 .hidden __aeabi_frsub
004008cc g     O ZI_DATA	00000004 sampling_frequency
004008d0 g     O ZI_DATA	00000004 sequence_mask
00400010 g     O RW_DATA	00000004 _impure_ptr
00007128 g     F RO_DATA	00000018 .hidden __aeabi_fcmpeq
00005d68 g     F RO_DATA	00000090 dma_done_isr
000043d8 g     F RO_DATA	00000178 scalbn
00400ba4 g     O ZI_DATA	00000004 ticks
00006d94 g     F RO_DATA	00000198 .hidden __aeabi_fmul
004008d4 g     O ZI_DATA	00000004 ome_key
00007100 g     F RO_DATA	00000028 .hidden __aeabi_cfrcmple
00000330 g     F RO_DATA	00000000 null_int_han
00005848 g     F RO_DATA	000000a4 spin1_dma_transfer
00005a18 g     F RO_DATA	00000090 schedule_sysmode
000071b8 g     F RO_DATA	00000018 .hidden __gnu_fractsfsa
004008d8 g     O ZI_DATA	00000004 chipID
00005ef8 g     F RO_DATA	00000040 timer1_fiqsr
004008dc g     O ZI_DATA	00000004 dtcm_buffer_a
00007140 g     F RO_DATA	00000018 .hidden __aeabi_fcmplt
004008e0 g     O ZI_DATA	00000004 linCFp
004008e4 g     O ZI_DATA	00000008 nlin_y2a
00000220 g     F RO_DATA	00000000 sark_str_cpy
00005438 g     F RO_DATA	00000028 resume_wait
00006974 g     F RO_DATA	00000018 .hidden __aeabi_dcmpeq
00400440 g       *ABS*	00000000 ZI_BASE
00000000 g       *ABS*	00000000 RO_BASE
000003cc g     F RO_DATA	0000005c app_end
000001b8 g     F RO_DATA	00000000 cpu_int_enable
00400ba8 g     O ZI_DATA	00000004 user_arg0
00004598 g     F RO_DATA	00000014 sark_app_lead
004008ec g     O ZI_DATA	00000004 dt
00000000 g       *ABS*	00000000 ITCM_BASE
004008f0 g     O ZI_DATA	00000004 a
00006cb0 g     F RO_DATA	00000028 .hidden __floatunsisf
004008f4 g     O ZI_DATA	00000004 index_y
000069ec g     F RO_DATA	0000005c .hidden __aeabi_d2iz
00007110 g     F RO_DATA	00000018 .hidden __aeabi_cfcmpeq
00001c84 g     F RO_DATA	0000007c logk
004008f8 g     O ZI_DATA	00000004 lin_b0
00005740 g     F RO_DATA	000000f4 start
004008fc g     O ZI_DATA	00000004 end_count_read
00001b1c g     F RO_DATA	00000034 exp_series
00400900 g     O ZI_DATA	00000004 nlBWq
00007370 g       RO_DATA	00000000 __init_array_start
00400904 g     O ZI_DATA	00000008 nlin_y2b
00400bac g     O ZI_DATA	00000040 callback
00005600 g     F RO_DATA	00000014 spin1_set_timer_tick_and_phase
00004674 g     F RO_DATA	0000001c sark_call_cpp_constructors
0000695c g     F RO_DATA	00000018 .hidden __aeabi_cdcmpeq
000068a8 g     F RO_DATA	00000098 .hidden __gedf2
00004df4 g     F RO_DATA	000000ec io_put_char
0040090c g     O ZI_DATA	00000004 cf
00006358 g     F RO_DATA	00000040 .hidden __aeabi_f2d
00400910 g     O ZI_DATA	00000004 Fs
00005ff8 g     F RO_DATA	00000314 .hidden __subdf3
00400914 g     O ZI_DATA	00000008 lin_z3
0040091c g     O ZI_DATA	00000008 nlin_z3
000017e4 g     F RO_DATA	000001cc transfer_handler
000001c8 g     F RO_DATA	00000000 spin1_int_disable
00400924 g     O ZI_DATA	00000004 dtcm_profile_buffer
00006af4 g     F RO_DATA	000001bc .hidden __addsf3
000048b4 g     F RO_DATA	00000060 sark_cmd_read
00000874 g       *ABS*	00000000 ZI_LENGTH
00007c80 g       RW_DATA	00000000 RO_LENGTH
00400928 g     O ZI_DATA	00000004 ome_coreID
000045cc g     F RO_DATA	00000030 sark_msg_get
000002bc g     F RO_DATA	00000000 sark_delay_us
00400bec g     O ZI_DATA	000000c8 tx_packet_queue



Disassembly of section RO_DATA:

00000000 <cpu_reset>:
       0:	e59ff018 	ldr	pc, [pc, #24]	; 20 <reset_vec>

00000004 <undef>:
       4:	e59ff018 	ldr	pc, [pc, #24]	; 24 <undef_vec>
       8:	e59ff018 	ldr	pc, [pc, #24]	; 28 <svc_vec>
       c:	e59ff018 	ldr	pc, [pc, #24]	; 2c <pabt_vec>
      10:	e59ff018 	ldr	pc, [pc, #24]	; 30 <dabt_vec>
      14:	ebfffffa 	bl	4 <undef>
      18:	e51ffff0 	ldr	pc, [pc, #-4080]	; fffff030 <ROM_TOP+0x9ff7030>
      1c:	e59ff018 	ldr	pc, [pc, #24]	; 3c <fiq_vec>

00000020 <reset_vec>:
      20:	00000078 	.word	0x00000078

00000024 <undef_vec>:
      24:	000000d8 	.word	0x000000d8

00000028 <svc_vec>:
      28:	000000e0 	.word	0x000000e0

0000002c <pabt_vec>:
      2c:	000000e8 	.word	0x000000e8

00000030 <dabt_vec>:
      30:	000000f0 	.word	0x000000f0

00000034 <aplx_proc>:
      34:	00000375 	.word	0x00000375

00000038 <irq_vec>:
      38:	000000f8 	.word	0x000000f8

0000003c <fiq_vec>:
      3c:	00000100 	.word	0x00000100

00000040 <svc_stack>:
      40:	0060      	.short	0x0060

00000042 <irq_stack>:
      42:	0040      	.short	0x0040

00000044 <fiq_stack>:
      44:	0040      	.short	0x0040

00000046 <stack_size>:
      46:	0800      	.short	0x0800

00000048 <code_top>:
      48:	00007c80 	.word	0x00007c80

0000004c <heap_base>:
      4c:	00400cb4 	.word	0x00400cb4

00000050 <stack_top>:
      50:	00410000 	.word	0x00410000

00000054 <stack_fill>:
      54:	deaddead 	.word	0xdeaddead

00000058 <num_msgs>:
      58:	04          	.byte	0x04

00000059 <sark_slot>:
      59:	0f          	.byte	0x0f

0000005a <num_events>:
      5a:	10          	.byte	0x10

0000005b <api>:
	...

0000005c <app_id>:
	...

0000005d <app_flags>:
	...

0000005e <__PAD>:
	...

00000060 <event_vec>:
	...

00000078 <reset_entry>:
      78:	e24f1060 	sub	r1, pc, #96	; 0x60
      7c:	e1c103bc 	strh	r0, [r1, #60]	; 0x3c
      80:	e28f0048 	add	r0, pc, #72	; 0x48
      84:	e5810000 	str	r0, [r1]
      88:	e59f00f4 	ldr	r0, [pc, #244]	; 184 <DMA_CRCT+0x4>
      8c:	ee010f10 	mcr	15, 0, r0, cr1, cr0, {0}
      90:	e321f0d3 	msr	CPSR_c, #211	; 0xd3
      94:	e3a0d902 	mov	sp, #32768	; 0x8000
      98:	fa0000b0 	blx	360 <sark_config>
      9c:	e51fd054 	ldr	sp, [pc, #-84]	; 50 <stack_top>
      a0:	e15f26b2 	ldrh	r2, [pc, #-98]	; 46 <stack_size>
      a4:	e51f1058 	ldr	r1, [pc, #-88]	; 54 <stack_fill>
      a8:	e04d0002 	sub	r0, sp, r2
      ac:	eb000060 	bl	234 <sark_word_set>
      b0:	e1a0000d 	mov	r0, sp
      b4:	fa001175 	blx	4690 <sark_init>
      b8:	e121f000 	msr	CPSR_c, r0
      bc:	fa001231 	blx	4988 <sark_wait>
      c0:	fa0016a0 	blx	5b48 <sark_pre_main>
      c4:	eb00064f 	bl	1a08 <c_main>
      c8:	fa0016aa 	blx	5b78 <sark_post_main>
      cc:	eb00002a 	bl	17c <cpu_sleep>

000000d0 <reset_error>:
      d0:	e3a00001 	mov	r0, #1
      d4:	ea000014 	b	12c <rt_error>

000000d8 <undef_error>:
      d8:	e3a0b002 	mov	fp, #2
      dc:	ea00000c 	b	114 <exc_error>

000000e0 <svc_error>:
      e0:	e3a0b003 	mov	fp, #3
      e4:	ea00000a 	b	114 <exc_error>

000000e8 <pabt_error>:
      e8:	e3a0b004 	mov	fp, #4
      ec:	ea000008 	b	114 <exc_error>

000000f0 <dabt_error>:
      f0:	e3a0b005 	mov	fp, #5
      f4:	ea000006 	b	114 <exc_error>

000000f8 <irq_error>:
      f8:	e3a0b006 	mov	fp, #6
      fc:	ea000004 	b	114 <exc_error>

00000100 <fiq_error>:
     100:	e3a0b007 	mov	fp, #7
     104:	ea000002 	b	114 <exc_error>

00000108 <vic_error>:
     108:	e3a0b008 	mov	fp, #8
     10c:	e3a0042f 	mov	r0, #788529152	; 0x2f000000
     110:	e5900030 	ldr	r0, [r0, #48]	; 0x30

00000114 <exc_error>:
     114:	e1a0a00e 	mov	sl, lr
     118:	e14f8000 	mrs	r8, SPSR
     11c:	e38890c0 	orr	r9, r8, #192	; 0xc0
     120:	e3c99020 	bic	r9, r9, #32
     124:	e12ff009 	msr	CPSR_fsxc, r9
     128:	ea000002 	b	138 <cc_error>

0000012c <rt_error>:
     12c:	e1a0b000 	mov	fp, r0
     130:	e10f8000 	mrs	r8, CPSR
     134:	e1a0a00e 	mov	sl, lr

00000138 <cc_error>:
     138:	e59fc048 	ldr	ip, [pc, #72]	; 188 <DMA_CRCT+0x8>
     13c:	e59cc000 	ldr	ip, [ip]
     140:	e3a09080 	mov	r9, #128	; 0x80
     144:	e59fe040 	ldr	lr, [pc, #64]	; 18c <DMA_CRCT+0xc>
     148:	e02ee99c 	mla	lr, ip, r9, lr
     14c:	e1a0900d 	mov	r9, sp
     150:	e88e07ff 	stm	lr, {r0, r1, r2, r3, r4, r5, r6, r7, r8, r9, sl}
     154:	e5ceb02c 	strb	fp, [lr, #44]	; 0x2c
     158:	e3a08002 	mov	r8, #2
     15c:	e5ce802e 	strb	r8, [lr, #46]	; 0x2e
     160:	e1a0000b 	mov	r0, fp
     164:	e321f0d3 	msr	CPSR_c, #211	; 0xd3
     168:	fa001103 	blx	457c <rte_handler>

0000016c <cpu_shutdown>:
     16c:	e321f0d3 	msr	CPSR_c, #211	; 0xd3
     170:	e3a0042f 	mov	r0, #788529152	; 0x2f000000
     174:	e3e01000 	mvn	r1, #0
     178:	e5801014 	str	r1, [r0, #20]

0000017c <cpu_sleep>:
     17c:	ee070f90 	mcr	15, 0, r0, cr7, cr0, {4}
     180:	eafffffd 	b	17c <cpu_sleep>
     184:	00001f7e 	.word	0x00001f7e
     188:	0040092c 	.word	0x0040092c
     18c:	e5007000 	.word	0xe5007000

00000190 <cpu_init_mode>:
     190:	e10f3000 	mrs	r3, CPSR
     194:	e121f001 	msr	CPSR_c, r1
     198:	e1a0d000 	mov	sp, r0
     19c:	e12ff003 	msr	CPSR_fsxc, r3
     1a0:	e0400102 	sub	r0, r0, r2, lsl #2
     1a4:	e12fff1e 	bx	lr

000001a8 <cpu_irq_disable>:
     1a8:	e10f0000 	mrs	r0, CPSR
     1ac:	e3801080 	orr	r1, r0, #128	; 0x80
     1b0:	e121f001 	msr	CPSR_c, r1
     1b4:	e12fff1e 	bx	lr

000001b8 <cpu_int_enable>:
     1b8:	e10f0000 	mrs	r0, CPSR
     1bc:	e3c010c0 	bic	r1, r0, #192	; 0xc0
     1c0:	e121f001 	msr	CPSR_c, r1
     1c4:	e12fff1e 	bx	lr

000001c8 <cpu_int_disable>:
     1c8:	e10f0000 	mrs	r0, CPSR
     1cc:	e38010c0 	orr	r1, r0, #192	; 0xc0
     1d0:	e121f001 	msr	CPSR_c, r1
     1d4:	e12fff1e 	bx	lr

000001d8 <cpu_int_restore>:
     1d8:	e12ff000 	msr	CPSR_fsxc, r0
     1dc:	e12fff1e 	bx	lr

000001e0 <cpu_wfi>:
     1e0:	ee070f90 	mcr	15, 0, r0, cr7, cr0, {4}
     1e4:	e12fff1e 	bx	lr

000001e8 <sark_lock_get>:
     1e8:	e3a0c4e2 	mov	ip, #-503316480	; 0xe2000000
     1ec:	e08cc100 	add	ip, ip, r0, lsl #2
     1f0:	e10f0000 	mrs	r0, CPSR
     1f4:	e38010c0 	orr	r1, r0, #192	; 0xc0
     1f8:	e121f001 	msr	CPSR_c, r1

000001fc <lg1>:
     1fc:	e59c1100 	ldr	r1, [ip, #256]	; 0x100
     200:	e3110102 	tst	r1, #-2147483648	; 0x80000000
     204:	1afffffc 	bne	1fc <lg1>
     208:	e12fff1e 	bx	lr

0000020c <sark_lock_free>:
     20c:	e3a0c4e2 	mov	ip, #-503316480	; 0xe2000000
     210:	e08c1101 	add	r1, ip, r1, lsl #2
     214:	e5911180 	ldr	r1, [r1, #384]	; 0x180
     218:	e121f000 	msr	CPSR_c, r0
     21c:	e12fff1e 	bx	lr

00000220 <sark_str_cpy>:
     220:	e4d12001 	ldrb	r2, [r1], #1
     224:	e3520000 	cmp	r2, #0
     228:	e4c02001 	strb	r2, [r0], #1
     22c:	1afffffb 	bne	220 <sark_str_cpy>
     230:	e12fff1e 	bx	lr

00000234 <sark_word_set>:
     234:	e1a03001 	mov	r3, r1

00000238 <ws1>:
     238:	e2522010 	subs	r2, r2, #16
     23c:	28a0000a 	stmiacs	r0!, {r1, r3}
     240:	28a0000a 	stmiacs	r0!, {r1, r3}
     244:	2afffffb 	bcs	238 <ws1>
     248:	e1b02e82 	lsls	r2, r2, #29
     24c:	28a0000a 	stmiacs	r0!, {r1, r3}
     250:	48a00002 	stmiami	r0!, {r1}
     254:	e12fff1e 	bx	lr

00000258 <sark_msg_cpy>:
     258:	e2800004 	add	r0, r0, #4
     25c:	e2811004 	add	r1, r1, #4
     260:	e1d120b0 	ldrh	r2, [r1]
     264:	e2822004 	add	r2, r2, #4

00000268 <sark_word_cpy>:
     268:	e3120003 	tst	r2, #3
     26c:	13c22003 	bicne	r2, r2, #3
     270:	12822004 	addne	r2, r2, #4
     274:	e92d4010 	push	{r4, lr}
     278:	e2522020 	subs	r2, r2, #32
     27c:	3a000005 	bcc	298 <wc2>

00000280 <wc1>:
     280:	e8b15018 	ldm	r1!, {r3, r4, ip, lr}
     284:	e8a05018 	stmia	r0!, {r3, r4, ip, lr}
     288:	e8b15018 	ldm	r1!, {r3, r4, ip, lr}
     28c:	e8a05018 	stmia	r0!, {r3, r4, ip, lr}
     290:	e2522020 	subs	r2, r2, #32
     294:	2afffff9 	bcs	280 <wc1>

00000298 <wc2>:
     298:	e1b0ce02 	lsls	ip, r2, #28
     29c:	28b15018 	ldmcs	r1!, {r3, r4, ip, lr}
     2a0:	28a05018 	stmiacs	r0!, {r3, r4, ip, lr}
     2a4:	48b10018 	ldmmi	r1!, {r3, r4}
     2a8:	48a00018 	stmiami	r0!, {r3, r4}
     2ac:	e1b0cf02 	lsls	ip, r2, #30
     2b0:	24913004 	ldrcs	r3, [r1], #4
     2b4:	24803004 	strcs	r3, [r0], #4
     2b8:	e8bd8010 	pop	{r4, pc}

000002bc <sark_delay_us>:
     2bc:	4903      	ldr	r1, [pc, #12]	; (2cc <delay1+0x8>)
     2be:	8809      	ldrh	r1, [r1, #0]
     2c0:	4341      	muls	r1, r0
     2c2:	0888      	lsrs	r0, r1, #2

000002c4 <delay1>:
     2c4:	3801      	subs	r0, #1
     2c6:	d2fd      	bcs.n	2c4 <delay1>
     2c8:	4770      	bx	lr
     2ca:	0000      	.short	0x0000
     2cc:	0040095c 	.word	0x0040095c

000002d0 <sark_div10>:
     2d0:	e241200a 	sub	r2, r1, #10
     2d4:	e0411121 	sub	r1, r1, r1, lsr #2
     2d8:	e0811221 	add	r1, r1, r1, lsr #4
     2dc:	e0811421 	add	r1, r1, r1, lsr #8
     2e0:	e0811821 	add	r1, r1, r1, lsr #16
     2e4:	e1a011a1 	lsr	r1, r1, #3
     2e8:	e0813101 	add	r3, r1, r1, lsl #2
     2ec:	e0522083 	subs	r2, r2, r3, lsl #1
     2f0:	52811001 	addpl	r1, r1, #1
     2f4:	4282200a 	addmi	r2, r2, #10
     2f8:	e8800006 	stm	r0, {r1, r2}
     2fc:	e12fff1e 	bx	lr

00000300 <sark_int_han>:
     300:	e92d500f 	push	{r0, r1, r2, r3, ip, lr}
     304:	e24e0004 	sub	r0, lr, #4
     308:	e14fc000 	mrs	ip, SPSR
     30c:	e321f01f 	msr	CPSR_c, #31
     310:	e92d5000 	push	{ip, lr}
     314:	fa0011a0 	blx	499c <sark_int>
     318:	e8bd5000 	pop	{ip, lr}
     31c:	e321f092 	msr	CPSR_c, #146	; 0x92
     320:	e16ff00c 	msr	SPSR_fsxc, ip
     324:	e3a0042f 	mov	r0, #788529152	; 0x2f000000
     328:	e5800030 	str	r0, [r0, #48]	; 0x30
     32c:	e8bd500f 	pop	{r0, r1, r2, r3, ip, lr}

00000330 <null_int_han>:
     330:	e25ef004 	subs	pc, lr, #4

00000334 <schedule>:
     334:	e92d5000 	push	{ip, lr}
     338:	e10fc000 	mrs	ip, CPSR
     33c:	e3cce01f 	bic	lr, ip, #31
     340:	e38ee01f 	orr	lr, lr, #31
     344:	e121f00e 	msr	CPSR_c, lr
     348:	e92d5000 	push	{ip, lr}
     34c:	fa0015b1 	blx	5a18 <schedule_sysmode>
     350:	e8bd5000 	pop	{ip, lr}
     354:	e121f00c 	msr	CPSR_c, ip
     358:	e8bd5000 	pop	{ip, lr}
     35c:	e12fff1e 	bx	lr

00000360 <sark_config>:
     360:	4770      	bx	lr

00000362 <sark_bx>:
     362:	4700      	bx	r0

00000364 <__gnu_thumb1_case_uqi>:
     364:	468c      	mov	ip, r1
     366:	4671      	mov	r1, lr
     368:	3901      	subs	r1, #1
     36a:	5c09      	ldrb	r1, [r1, r0]
     36c:	0049      	lsls	r1, r1, #1
     36e:	448e      	add	lr, r1
     370:	4661      	mov	r1, ip
     372:	4770      	bx	lr

00000374 <sark_aplx>:
     374:	b5f2      	push	{r1, r4, r5, r6, r7, lr}
     376:	4905      	ldr	r1, [pc, #20]	; (38c <aplx_buffer>)
     378:	a605      	add	r6, pc, #20	; (adr r6, 390 <aplx_loader>)
     37a:	2740      	movs	r7, #64	; 0x40

0000037c <aplx_l0>:
     37c:	ce3c      	ldmia	r6!, {r2, r3, r4, r5}
     37e:	c13c      	stmia	r1!, {r2, r3, r4, r5}
     380:	3f10      	subs	r7, #16
     382:	d1fb      	bne.n	37c <aplx_l0>
     384:	1c04      	adds	r4, r0, #0
     386:	393f      	subs	r1, #63	; 0x3f
     388:	4708      	bx	r1
	...

0000038c <aplx_buffer>:
     38c:	00007fc0 	.word	0x00007fc0

00000390 <aplx_loader>:
     390:	cc0f      	ldmia	r4!, {r0, r1, r2, r3}
     392:	2801      	cmp	r0, #1
     394:	d008      	beq.n	3a8 <aplx_copy>
     396:	2802      	cmp	r0, #2
     398:	d004      	beq.n	3a4 <aplx_rcopy>
     39a:	2803      	cmp	r0, #3
     39c:	d00b      	beq.n	3b6 <aplx_fill>
     39e:	2804      	cmp	r0, #4
     3a0:	d011      	beq.n	3c6 <aplx_exec>
     3a2:	bdf2      	pop	{r1, r4, r5, r6, r7, pc}

000003a4 <aplx_rcopy>:
     3a4:	1912      	adds	r2, r2, r4
     3a6:	3a10      	subs	r2, #16

000003a8 <aplx_copy>:
     3a8:	cae1      	ldmia	r2!, {r0, r5, r6, r7}
     3aa:	c1e1      	stmia	r1!, {r0, r5, r6, r7}
     3ac:	cae1      	ldmia	r2!, {r0, r5, r6, r7}
     3ae:	c1e1      	stmia	r1!, {r0, r5, r6, r7}
     3b0:	3b20      	subs	r3, #32
     3b2:	d8f9      	bhi.n	3a8 <aplx_copy>
     3b4:	e7ec      	b.n	390 <aplx_loader>

000003b6 <aplx_fill>:
     3b6:	1c1d      	adds	r5, r3, #0
     3b8:	1c1e      	adds	r6, r3, #0
     3ba:	1c1f      	adds	r7, r3, #0

000003bc <aplx_l1>:
     3bc:	c1e8      	stmia	r1!, {r3, r5, r6, r7}
     3be:	c1e8      	stmia	r1!, {r3, r5, r6, r7}
     3c0:	3a20      	subs	r2, #32
     3c2:	d8fb      	bhi.n	3bc <aplx_l1>
     3c4:	e7e4      	b.n	390 <aplx_loader>

000003c6 <aplx_exec>:
     3c6:	9800      	ldr	r0, [sp, #0]
     3c8:	4788      	blx	r1
     3ca:	e7e1      	b.n	390 <aplx_loader>

000003cc <app_end>:
     3cc:	e92d4070 	push	{r4, r5, r6, lr}
     3d0:	e59f5044 	ldr	r5, [pc, #68]	; 41c <MC_TABLE_SIZE+0x1c>
     3d4:	e3a04001 	mov	r4, #1
     3d8:	ea000000 	b	3e0 <app_end+0x14>
     3dc:	fb001516 	blx	583e <spin1_delay_us>
     3e0:	e1a02004 	mov	r2, r4
     3e4:	e3a01001 	mov	r1, #1
     3e8:	e5950000 	ldr	r0, [r5]
     3ec:	fa00157f 	blx	59f0 <spin1_send_mc_packet>
     3f0:	e3500000 	cmp	r0, #0
     3f4:	e1a00004 	mov	r0, r4
     3f8:	0afffff7 	beq	3dc <app_end+0x10>
     3fc:	e59f301c 	ldr	r3, [pc, #28]	; 420 <MC_TABLE_SIZE+0x20>
     400:	e3a00002 	mov	r0, #2
     404:	e59f1018 	ldr	r1, [pc, #24]	; 424 <MC_TABLE_SIZE+0x24>
     408:	e5932000 	ldr	r2, [r3]
     40c:	fa0012e2 	blx	4f9c <io_printf>
     410:	e3a00000 	mov	r0, #0
     414:	e8bd4070 	pop	{r4, r5, r6, lr}
     418:	ea001bd0 	b	7360 <__spin1_exit_from_arm>
     41c:	004008a0 	.word	0x004008a0
     420:	00400834 	.word	0x00400834
     424:	00007370 	.word	0x00007370

00000428 <data_read>:
     428:	e3510001 	cmp	r1, #1
     42c:	0a00003e 	beq	52c <RW_LENGTH+0xec>
     430:	e3510002 	cmp	r1, #2
     434:	e92d4070 	push	{r4, r5, r6, lr}
     438:	e24dd008 	sub	sp, sp, #8
     43c:	0a00003f 	beq	540 <RW_LENGTH+0x100>
     440:	e3510003 	cmp	r1, #3
     444:	0a00001d 	beq	4c0 <RW_LENGTH+0x80>
     448:	e59f31e0 	ldr	r3, [pc, #480]	; 630 <ETH_TX_SIZE+0x30>
     44c:	e3a02421 	mov	r2, #553648128	; 0x21000000
     450:	e593c000 	ldr	ip, [r3]
     454:	e59f31d8 	ldr	r3, [pc, #472]	; 634 <ETH_TX_SIZE+0x34>
     458:	e5922024 	ldr	r2, [r2, #36]	; 0x24
     45c:	e35c0001 	cmp	ip, #1
     460:	e5832000 	str	r2, [r3]
     464:	0a000001 	beq	470 <RW_LENGTH+0x30>
     468:	e28dd008 	add	sp, sp, #8
     46c:	e8bd8070 	pop	{r4, r5, r6, pc}
     470:	e59fe1c0 	ldr	lr, [pc, #448]	; 638 <ETH_TX_SIZE+0x38>
     474:	e59f11c0 	ldr	r1, [pc, #448]	; 63c <ETH_TX_SIZE+0x3c>
     478:	e59e3000 	ldr	r3, [lr]
     47c:	e5911000 	ldr	r1, [r1]
     480:	e3530000 	cmp	r3, #0
     484:	059f31b4 	ldreq	r3, [pc, #436]	; 640 <ETH_TX_SIZE+0x40>
     488:	159f31b4 	ldrne	r3, [pc, #436]	; 644 <ETH_TX_SIZE+0x44>
     48c:	13a0c000 	movne	ip, #0
     490:	e5932000 	ldr	r2, [r3]
     494:	e59f31ac 	ldr	r3, [pc, #428]	; 648 <ETH_TX_SIZE+0x48>
     498:	e3a00e19 	mov	r0, #400	; 0x190
     49c:	e5934000 	ldr	r4, [r3]
     4a0:	e3a03000 	mov	r3, #0
     4a4:	e58d0000 	str	r0, [sp]
     4a8:	e0211490 	mla	r1, r0, r4, r1
     4ac:	e58ec000 	str	ip, [lr]
     4b0:	e1a00003 	mov	r0, r3
     4b4:	fa0014e3 	blx	5848 <spin1_dma_transfer>
     4b8:	e28dd008 	add	sp, sp, #8
     4bc:	e8bd8070 	pop	{r4, r5, r6, pc}
     4c0:	e59f3180 	ldr	r3, [pc, #384]	; 648 <ETH_TX_SIZE+0x48>
     4c4:	e5933000 	ldr	r3, [r3]
     4c8:	e3530000 	cmp	r3, #0
     4cc:	1affffdd 	bne	448 <RW_LENGTH+0x8>
     4d0:	e59f4164 	ldr	r4, [pc, #356]	; 63c <ETH_TX_SIZE+0x3c>
     4d4:	e5945000 	ldr	r5, [r4]
     4d8:	e3550000 	cmp	r5, #0
     4dc:	0a000033 	beq	5b0 <SPARE_SIZE+0x10>
     4e0:	e59f2164 	ldr	r2, [pc, #356]	; 64c <ETH_TX_SIZE+0x4c>
     4e4:	e59f3164 	ldr	r3, [pc, #356]	; 650 <ETH_TX_SIZE+0x50>
     4e8:	e5922000 	ldr	r2, [r2]
     4ec:	e5933000 	ldr	r3, [r3]
     4f0:	e1520003 	cmp	r2, r3
     4f4:	2a00001f 	bcs	578 <RW_LENGTH+0x138>
     4f8:	e59f6154 	ldr	r6, [pc, #340]	; 654 <ETH_TX_SIZE+0x54>
     4fc:	e3a04001 	mov	r4, #1
     500:	e3a05003 	mov	r5, #3
     504:	ea000000 	b	50c <RW_LENGTH+0xcc>
     508:	fb0014cb 	blx	583e <spin1_delay_us>
     50c:	e1a02004 	mov	r2, r4
     510:	e1a01005 	mov	r1, r5
     514:	e5960000 	ldr	r0, [r6]
     518:	fa001534 	blx	59f0 <spin1_send_mc_packet>
     51c:	e3500000 	cmp	r0, #0
     520:	e1a00004 	mov	r0, r4
     524:	0afffff7 	beq	508 <RW_LENGTH+0xc8>
     528:	eaffffce 	b	468 <RW_LENGTH+0x28>
     52c:	e3a02000 	mov	r2, #0
     530:	e1a01002 	mov	r1, r2
     534:	e3a03002 	mov	r3, #2
     538:	e59f0118 	ldr	r0, [pc, #280]	; 658 <ETH_TX_SIZE+0x58>
     53c:	ea001b89 	b	7368 <__spin1_schedule_callback_from_arm>
     540:	e59fe104 	ldr	lr, [pc, #260]	; 64c <ETH_TX_SIZE+0x4c>
     544:	e59f30fc 	ldr	r3, [pc, #252]	; 648 <ETH_TX_SIZE+0x48>
     548:	e59ec000 	ldr	ip, [lr]
     54c:	e5933000 	ldr	r3, [r3]
     550:	e28cc001 	add	ip, ip, #1
     554:	e58d3004 	str	r3, [sp, #4]
     558:	e1a00001 	mov	r0, r1
     55c:	e58dc000 	str	ip, [sp]
     560:	e59f30f4 	ldr	r3, [pc, #244]	; 65c <ETH_TX_SIZE+0x5c>
     564:	e59f20f4 	ldr	r2, [pc, #244]	; 660 <ETH_TX_SIZE+0x60>
     568:	e59f10f4 	ldr	r1, [pc, #244]	; 664 <ETH_TX_SIZE+0x64>
     56c:	e58ec000 	str	ip, [lr]
     570:	fa001289 	blx	4f9c <io_printf>
     574:	eaffffbb 	b	468 <RW_LENGTH+0x28>
     578:	1affffba 	bne	468 <RW_LENGTH+0x28>
     57c:	e59f60e4 	ldr	r6, [pc, #228]	; 668 <ETH_TX_SIZE+0x68>
     580:	e3a04001 	mov	r4, #1
     584:	e3a05002 	mov	r5, #2
     588:	ea000000 	b	590 <RW_LENGTH+0x150>
     58c:	fb0014aa 	blx	583e <spin1_delay_us>
     590:	e1a02004 	mov	r2, r4
     594:	e1a01005 	mov	r1, r5
     598:	e5960000 	ldr	r0, [r6]
     59c:	fa001513 	blx	59f0 <spin1_send_mc_packet>
     5a0:	e3500000 	cmp	r0, #0
     5a4:	e1a00004 	mov	r0, r4
     5a8:	0afffff7 	beq	58c <RW_LENGTH+0x14c>
     5ac:	eaffffad 	b	468 <RW_LENGTH+0x28>
     5b0:	e59f60b4 	ldr	r6, [pc, #180]	; 66c <ETH_TX_SIZE+0x6c>
     5b4:	e59f30b4 	ldr	r3, [pc, #180]	; 670 <ETH_TX_SIZE+0x70>
     5b8:	e5962000 	ldr	r2, [r6]
     5bc:	e58d2000 	str	r2, [sp]
     5c0:	e59f10ac 	ldr	r1, [pc, #172]	; 674 <ETH_TX_SIZE+0x74>
     5c4:	e59f2094 	ldr	r2, [pc, #148]	; 660 <ETH_TX_SIZE+0x60>
     5c8:	e3a00002 	mov	r0, #2
     5cc:	fa001272 	blx	4f9c <io_printf>
     5d0:	e59f30a0 	ldr	r3, [pc, #160]	; 678 <ETH_TX_SIZE+0x78>
     5d4:	e1a01005 	mov	r1, r5
     5d8:	e5930000 	ldr	r0, [r3]
     5dc:	fa0011ed 	blx	4d98 <sark_tag_ptr>
     5e0:	e5963000 	ldr	r3, [r6]
     5e4:	e59f2074 	ldr	r2, [pc, #116]	; 660 <ETH_TX_SIZE+0x60>
     5e8:	e59f108c 	ldr	r1, [pc, #140]	; 67c <ETH_TX_SIZE+0x7c>
     5ec:	e1a0c000 	mov	ip, r0
     5f0:	e88d1008 	stm	sp, {r3, ip}
     5f4:	e3a00002 	mov	r0, #2
     5f8:	e584c000 	str	ip, [r4]
     5fc:	e59f307c 	ldr	r3, [pc, #124]	; 680 <ETH_TX_SIZE+0x80>
     600:	fa001265 	blx	4f9c <io_printf>
     604:	e594c000 	ldr	ip, [r4]
     608:	e35c0000 	cmp	ip, #0
     60c:	1affffb3 	bne	4e0 <RW_LENGTH+0xa0>
     610:	e59fe018 	ldr	lr, [pc, #24]	; 630 <ETH_TX_SIZE+0x30>
     614:	e3a03002 	mov	r3, #2
     618:	e1a0200c 	mov	r2, ip
     61c:	e1a0100c 	mov	r1, ip
     620:	e59f0030 	ldr	r0, [pc, #48]	; 658 <ETH_TX_SIZE+0x58>
     624:	e58ec000 	str	ip, [lr]
     628:	fa00151e 	blx	5aa8 <spin1_schedule_callback>
     62c:	eaffffab 	b	4e0 <RW_LENGTH+0xa0>
     630:	0040082c 	.word	0x0040082c
     634:	004008c4 	.word	0x004008c4
     638:	004007d8 	.word	0x004007d8
     63c:	004007a4 	.word	0x004007a4
     640:	004008dc 	.word	0x004008dc
     644:	0040081c 	.word	0x0040081c
     648:	00400834 	.word	0x00400834
     64c:	00400440 	.word	0x00400440
     650:	004008a8 	.word	0x004008a8
     654:	004008a0 	.word	0x004008a0
     658:	000003cc 	.word	0x000003cc
     65c:	0000017a 	.word	0x0000017a
     660:	00007380 	.word	0x00007380
     664:	00007394 	.word	0x00007394
     668:	004008d4 	.word	0x004008d4
     66c:	004008c8 	.word	0x004008c8
     670:	00000182 	.word	0x00000182
     674:	000073dc 	.word	0x000073dc
     678:	00400928 	.word	0x00400928
     67c:	00007434 	.word	0x00007434
     680:	00000185 	.word	0x00000185

00000684 <data_write>:
     684:	e59f306c 	ldr	r3, [pc, #108]	; 6f8 <data_write+0x74>
     688:	e5933000 	ldr	r3, [r3]
     68c:	e3530001 	cmp	r3, #1
     690:	112fff1e 	bxne	lr
     694:	e59f3060 	ldr	r3, [pc, #96]	; 6fc <data_write+0x78>
     698:	e92d4010 	push	{r4, lr}
     69c:	e5933000 	ldr	r3, [r3]
     6a0:	e24dd008 	sub	sp, sp, #8
     6a4:	e3530000 	cmp	r3, #0
     6a8:	059f2050 	ldreq	r2, [pc, #80]	; 700 <data_write+0x7c>
     6ac:	059f3050 	ldreq	r3, [pc, #80]	; 704 <data_write+0x80>
     6b0:	159f2050 	ldrne	r2, [pc, #80]	; 708 <data_write+0x84>
     6b4:	159f3050 	ldrne	r3, [pc, #80]	; 70c <data_write+0x88>
     6b8:	e592e000 	ldr	lr, [r2]
     6bc:	e5932000 	ldr	r2, [r3]
     6c0:	e59f3048 	ldr	r3, [pc, #72]	; 710 <data_write+0x8c>
     6c4:	e59fc048 	ldr	ip, [pc, #72]	; 714 <data_write+0x90>
     6c8:	e5931000 	ldr	r1, [r3]
     6cc:	e3a00421 	mov	r0, #553648128	; 0x21000000
     6d0:	e3a03001 	mov	r3, #1
     6d4:	e3a04e19 	mov	r4, #400	; 0x190
     6d8:	e081110e 	add	r1, r1, lr, lsl #2
     6dc:	e590e024 	ldr	lr, [r0, #36]	; 0x24
     6e0:	e1a00003 	mov	r0, r3
     6e4:	e58d4000 	str	r4, [sp]
     6e8:	e58ce000 	str	lr, [ip]
     6ec:	fa001455 	blx	5848 <spin1_dma_transfer>
     6f0:	e28dd008 	add	sp, sp, #8
     6f4:	e8bd8010 	pop	{r4, pc}
     6f8:	0040082c 	.word	0x0040082c
     6fc:	0040084c 	.word	0x0040084c
     700:	00400830 	.word	0x00400830
     704:	0040089c 	.word	0x0040089c
     708:	004008f4 	.word	0x004008f4
     70c:	004007b0 	.word	0x004007b0
     710:	0040078c 	.word	0x0040078c
     714:	0040086c 	.word	0x0040086c

00000718 <app_init>:
     718:	e92d4ff0 	push	{r4, r5, r6, r7, r8, r9, sl, fp, lr}
     71c:	e59f49dc 	ldr	r4, [pc, #2524]	; 1100 <SV_SIZE+0x100>
     720:	e59fe9dc 	ldr	lr, [pc, #2524]	; 1104 <SV_SIZE+0x104>
     724:	e59fc9dc 	ldr	ip, [pc, #2524]	; 1108 <SV_SIZE+0x108>
     728:	e59f39dc 	ldr	r3, [pc, #2524]	; 110c <SV_SIZE+0x10c>
     72c:	e24dd044 	sub	sp, sp, #68	; 0x44
     730:	e3a05000 	mov	r5, #0
     734:	e5942000 	ldr	r2, [r4]
     738:	e59f19d0 	ldr	r1, [pc, #2512]	; 1110 <SV_SIZE+0x110>
     73c:	e3a00002 	mov	r0, #2
     740:	e58e5000 	str	r5, [lr]
     744:	e58c5000 	str	r5, [ip]
     748:	e5835000 	str	r5, [r3]
     74c:	fa001212 	blx	4f9c <io_printf>
     750:	e5942000 	ldr	r2, [r4]
     754:	e59f19b8 	ldr	r1, [pc, #2488]	; 1114 <SV_SIZE+0x114>
     758:	e3a00002 	mov	r0, #2
     75c:	fa00120e 	blx	4f9c <io_printf>
     760:	eb0004d9 	bl	1acc <data_specification_get_data_address>
     764:	e59f89ac 	ldr	r8, [pc, #2476]	; 1118 <SV_SIZE+0x118>
     768:	e59fb9ac 	ldr	fp, [pc, #2476]	; 111c <SV_SIZE+0x11c>
     76c:	e1a01000 	mov	r1, r0
     770:	e1a00005 	mov	r0, r5
     774:	eb0004e5 	bl	1b10 <data_specification_get_region>
     778:	e59f59a0 	ldr	r5, [pc, #2464]	; 1120 <SV_SIZE+0x120>
     77c:	e5903000 	ldr	r3, [r0]
     780:	e1a06000 	mov	r6, r0
     784:	e59f0998 	ldr	r0, [pc, #2456]	; 1124 <SV_SIZE+0x124>
     788:	e596a004 	ldr	sl, [r6, #4]
     78c:	e596e018 	ldr	lr, [r6, #24]
     790:	e596c01c 	ldr	ip, [r6, #28]
     794:	e5969008 	ldr	r9, [r6, #8]
     798:	e596700c 	ldr	r7, [r6, #12]
     79c:	e5962010 	ldr	r2, [r6, #16]
     7a0:	e5961014 	ldr	r1, [r6, #20]
     7a4:	e58d3000 	str	r3, [sp]
     7a8:	e580a000 	str	sl, [r0]
     7ac:	e59f0974 	ldr	r0, [pc, #2420]	; 1128 <SV_SIZE+0x128>
     7b0:	e5889000 	str	r9, [r8]
     7b4:	e5807000 	str	r7, [r0]
     7b8:	e59f996c 	ldr	r9, [pc, #2412]	; 112c <SV_SIZE+0x12c>
     7bc:	e5853000 	str	r3, [r5]
     7c0:	e59f0968 	ldr	r0, [pc, #2408]	; 1130 <SV_SIZE+0x130>
     7c4:	e59f3968 	ldr	r3, [pc, #2408]	; 1134 <SV_SIZE+0x134>
     7c8:	e59f7968 	ldr	r7, [pc, #2408]	; 1138 <SV_SIZE+0x138>
     7cc:	e580e000 	str	lr, [r0]
     7d0:	e587c000 	str	ip, [r7]
     7d4:	e5832000 	str	r2, [r3]
     7d8:	e5891000 	str	r1, [r9]
     7dc:	e3a03097 	mov	r3, #151	; 0x97
     7e0:	e59f2954 	ldr	r2, [pc, #2388]	; 113c <SV_SIZE+0x13c>
     7e4:	e59f1954 	ldr	r1, [pc, #2388]	; 1140 <SV_SIZE+0x140>
     7e8:	e3a00002 	mov	r0, #2
     7ec:	fa0011ea 	blx	4f9c <io_printf>
     7f0:	e5993000 	ldr	r3, [r9]
     7f4:	e59f1948 	ldr	r1, [pc, #2376]	; 1144 <SV_SIZE+0x144>
     7f8:	e58d3000 	str	r3, [sp]
     7fc:	e59f2938 	ldr	r2, [pc, #2360]	; 113c <SV_SIZE+0x13c>
     800:	e3a0309b 	mov	r3, #155	; 0x9b
     804:	e3a00002 	mov	r0, #2
     808:	fa0011e3 	blx	4f9c <io_printf>
     80c:	e5963020 	ldr	r3, [r6, #32]
     810:	e59f2930 	ldr	r2, [pc, #2352]	; 1148 <SV_SIZE+0x148>
     814:	e1a00003 	mov	r0, r3
     818:	e5823000 	str	r3, [r2]
     81c:	eb001923 	bl	6cb0 <__aeabi_ui2f>
     820:	e59f3924 	ldr	r3, [pc, #2340]	; 114c <SV_SIZE+0x14c>
     824:	e59f6924 	ldr	r6, [pc, #2340]	; 1150 <SV_SIZE+0x150>
     828:	e59f9924 	ldr	r9, [pc, #2340]	; 1154 <SV_SIZE+0x154>
     82c:	e59fa924 	ldr	sl, [pc, #2340]	; 1158 <SV_SIZE+0x158>
     830:	e1a01000 	mov	r1, r0
     834:	e5830000 	str	r0, [r3]
     838:	e3a005fe 	mov	r0, #1065353216	; 0x3f800000
     83c:	eb0019ba 	bl	6f2c <__aeabi_fdiv>
     840:	e59fc914 	ldr	ip, [pc, #2324]	; 115c <SV_SIZE+0x15c>
     844:	e59fe914 	ldr	lr, [pc, #2324]	; 1160 <SV_SIZE+0x160>
     848:	e5951000 	ldr	r1, [r5]
     84c:	e5982000 	ldr	r2, [r8]
     850:	e3a03001 	mov	r3, #1
     854:	e1a01101 	lsl	r1, r1, #2
     858:	e59f8904 	ldr	r8, [pc, #2308]	; 1164 <SV_SIZE+0x164>
     85c:	e58e0000 	str	r0, [lr]
     860:	e59c004c 	ldr	r0, [ip, #76]	; 0x4c
     864:	fa00110a 	blx	4c94 <sark_xalloc>
     868:	e3a01004 	mov	r1, #4
     86c:	e5860000 	str	r0, [r6]
     870:	e3a00064 	mov	r0, #100	; 0x64
     874:	fa001139 	blx	4d60 <sark_alloc>
     878:	e3a01004 	mov	r1, #4
     87c:	e5890000 	str	r0, [r9]
     880:	e3a00064 	mov	r0, #100	; 0x64
     884:	fa001135 	blx	4d60 <sark_alloc>
     888:	e3a01004 	mov	r1, #4
     88c:	e5880000 	str	r0, [r8]
     890:	e3a00064 	mov	r0, #100	; 0x64
     894:	fa001131 	blx	4d60 <sark_alloc>
     898:	e3a01004 	mov	r1, #4
     89c:	e58a0000 	str	r0, [sl]
     8a0:	e3a00064 	mov	r0, #100	; 0x64
     8a4:	fa00112d 	blx	4d60 <sark_alloc>
     8a8:	e3a01004 	mov	r1, #4
     8ac:	e58b0000 	str	r0, [fp]
     8b0:	e3a00f4b 	mov	r0, #300	; 0x12c
     8b4:	fa001129 	blx	4d60 <sark_alloc>
     8b8:	e5999000 	ldr	r9, [r9]
     8bc:	e59f28a4 	ldr	r2, [pc, #2212]	; 1168 <SV_SIZE+0x168>
     8c0:	e3590000 	cmp	r9, #0
     8c4:	e5820000 	str	r0, [r2]
     8c8:	0a000204 	beq	10e0 <SV_SIZE+0xe0>
     8cc:	e5981000 	ldr	r1, [r8]
     8d0:	e3510000 	cmp	r1, #0
     8d4:	0a000201 	beq	10e0 <SV_SIZE+0xe0>
     8d8:	e59ae000 	ldr	lr, [sl]
     8dc:	e35e0000 	cmp	lr, #0
     8e0:	0a0001fe 	beq	10e0 <SV_SIZE+0xe0>
     8e4:	e59bc000 	ldr	ip, [fp]
     8e8:	e35c0000 	cmp	ip, #0
     8ec:	0a0001fb 	beq	10e0 <SV_SIZE+0xe0>
     8f0:	e1a03000 	mov	r3, r0
     8f4:	e5960000 	ldr	r0, [r6]
     8f8:	e3530000 	cmp	r3, #0
     8fc:	13500000 	cmpne	r0, #0
     900:	0a0001f6 	beq	10e0 <SV_SIZE+0xe0>
     904:	e59fb860 	ldr	fp, [pc, #2144]	; 116c <SV_SIZE+0x16c>
     908:	e3a0a001 	mov	sl, #1
     90c:	e58ba000 	str	sl, [fp]
     910:	e3a08000 	mov	r8, #0
     914:	e2411004 	sub	r1, r1, #4
     918:	e2492004 	sub	r2, r9, #4
     91c:	e289af63 	add	sl, r9, #396	; 0x18c
     920:	e5a28004 	str	r8, [r2, #4]!
     924:	e15a0002 	cmp	sl, r2
     928:	e5a18004 	str	r8, [r1, #4]!
     92c:	1afffffb 	bne	920 <ZI_LENGTH+0xac>
     930:	e24e2004 	sub	r2, lr, #4
     934:	e3a01000 	mov	r1, #0
     938:	e24cc004 	sub	ip, ip, #4
     93c:	e28eef63 	add	lr, lr, #396	; 0x18c
     940:	e5a21004 	str	r1, [r2, #4]!
     944:	e152000e 	cmp	r2, lr
     948:	e5ac1004 	str	r1, [ip, #4]!
     94c:	1afffffb 	bne	940 <ZI_LENGTH+0xcc>
     950:	e5952000 	ldr	r2, [r5]
     954:	e3520000 	cmp	r2, #0
     958:	0a000004 	beq	970 <ZI_LENGTH+0xfc>
     95c:	e1a02102 	lsl	r2, r2, #2
     960:	e3a01000 	mov	r1, #0
     964:	e58d3010 	str	r3, [sp, #16]
     968:	eb001a33 	bl	723c <memset>
     96c:	e59d3010 	ldr	r3, [sp, #16]
     970:	e1a00003 	mov	r0, r3
     974:	e3a02e4b 	mov	r2, #1200	; 0x4b0
     978:	e3a01000 	mov	r1, #0
     97c:	eb001a2e 	bl	723c <memset>
     980:	e1a03009 	mov	r3, r9
     984:	e5942000 	ldr	r2, [r4]
     988:	e59f17e0 	ldr	r1, [pc, #2016]	; 1170 <SV_SIZE+0x170>
     98c:	e3a00002 	mov	r0, #2
     990:	fa001181 	blx	4f9c <io_printf>
     994:	e5963000 	ldr	r3, [r6]
     998:	e5942000 	ldr	r2, [r4]
     99c:	e59f17d0 	ldr	r1, [pc, #2000]	; 1174 <SV_SIZE+0x174>
     9a0:	e3a00002 	mov	r0, #2
     9a4:	fa00117c 	blx	4f9c <io_printf>
     9a8:	e59f37c8 	ldr	r3, [pc, #1992]	; 1178 <SV_SIZE+0x178>
     9ac:	e5942000 	ldr	r2, [r4]
     9b0:	e5933000 	ldr	r3, [r3]
     9b4:	e59f17c0 	ldr	r1, [pc, #1984]	; 117c <SV_SIZE+0x17c>
     9b8:	e3a00002 	mov	r0, #2
     9bc:	fa001176 	blx	4f9c <io_printf>
     9c0:	e5970000 	ldr	r0, [r7]
     9c4:	eb0018b9 	bl	6cb0 <__aeabi_ui2f>
     9c8:	e59fc7b0 	ldr	ip, [pc, #1968]	; 1180 <SV_SIZE+0x180>
     9cc:	e59f27b0 	ldr	r2, [pc, #1968]	; 1184 <SV_SIZE+0x184>
     9d0:	e59f37b0 	ldr	r3, [pc, #1968]	; 1188 <SV_SIZE+0x188>
     9d4:	e59f17b0 	ldr	r1, [pc, #1968]	; 118c <SV_SIZE+0x18c>
     9d8:	e59f47b0 	ldr	r4, [pc, #1968]	; 1190 <SV_SIZE+0x190>
     9dc:	e5824000 	str	r4, [r2]
     9e0:	e5831000 	str	r1, [r3]
     9e4:	e58c0000 	str	r0, [ip]
     9e8:	e1a05000 	mov	r5, r0
     9ec:	eb0018e8 	bl	6d94 <__aeabi_fmul>
     9f0:	e1a01004 	mov	r1, r4
     9f4:	eb00183e 	bl	6af4 <__addsf3>
     9f8:	e59f3794 	ldr	r3, [pc, #1940]	; 1194 <SV_SIZE+0x194>
     9fc:	e59f275c 	ldr	r2, [pc, #1884]	; 1160 <SV_SIZE+0x160>
     a00:	e1a04000 	mov	r4, r0
     a04:	e5834000 	str	r4, [r3]
     a08:	e5920000 	ldr	r0, [r2]
     a0c:	eb001651 	bl	6358 <__aeabi_f2d>
     a10:	e3a02206 	mov	r2, #1610612736	; 0x60000000
     a14:	e59f377c 	ldr	r3, [pc, #1916]	; 1198 <SV_SIZE+0x198>
     a18:	eb00167b 	bl	640c <__aeabi_dmul>
     a1c:	e1a06000 	mov	r6, r0
     a20:	e1a07001 	mov	r7, r1
     a24:	e1a00004 	mov	r0, r4
     a28:	eb00164a 	bl	6358 <__aeabi_f2d>
     a2c:	e1a02006 	mov	r2, r6
     a30:	e1a03007 	mov	r3, r7
     a34:	eb001674 	bl	640c <__aeabi_dmul>
     a38:	eb001802 	bl	6a48 <__aeabi_d2f>
     a3c:	e59f3758 	ldr	r3, [pc, #1880]	; 119c <SV_SIZE+0x19c>
     a40:	e58d5014 	str	r5, [sp, #20]
     a44:	e1a04000 	mov	r4, r0
     a48:	e5834000 	str	r4, [r3]
     a4c:	e1a00005 	mov	r0, r5
     a50:	eb001640 	bl	6358 <__aeabi_f2d>
     a54:	e1a02006 	mov	r2, r6
     a58:	e1a03007 	mov	r3, r7
     a5c:	e1cd63f8 	strd	r6, [sp, #56]	; 0x38
     a60:	eb001669 	bl	640c <__aeabi_dmul>
     a64:	eb0017f7 	bl	6a48 <__aeabi_d2f>
     a68:	e59f3730 	ldr	r3, [pc, #1840]	; 11a0 <SV_SIZE+0x1a0>
     a6c:	e5830000 	str	r0, [r3]
     a70:	e58d0020 	str	r0, [sp, #32]
     a74:	eb001637 	bl	6358 <__aeabi_f2d>
     a78:	e1a08000 	mov	r8, r0
     a7c:	e1a09001 	mov	r9, r1
     a80:	eb0004b4 	bl	1d58 <cos>
     a84:	eb0017ef 	bl	6a48 <__aeabi_d2f>
     a88:	e59f3714 	ldr	r3, [pc, #1812]	; 11a4 <SV_SIZE+0x1a4>
     a8c:	e1a01009 	mov	r1, r9
     a90:	e1a0b000 	mov	fp, r0
     a94:	e1a00008 	mov	r0, r8
     a98:	e583b000 	str	fp, [r3]
     a9c:	eb0004ec 	bl	1e54 <sin>
     aa0:	eb0017e8 	bl	6a48 <__aeabi_d2f>
     aa4:	e59f36fc 	ldr	r3, [pc, #1788]	; 11a8 <SV_SIZE+0x1a8>
     aa8:	e1a0a000 	mov	sl, r0
     aac:	e583a000 	str	sl, [r3]
     ab0:	e2840102 	add	r0, r4, #-2147483648	; 0x80000000
     ab4:	eb001627 	bl	6358 <__aeabi_f2d>
     ab8:	eb000526 	bl	1f58 <exp>
     abc:	e1a06000 	mov	r6, r0
     ac0:	e1a0000b 	mov	r0, fp
     ac4:	e1a05001 	mov	r5, r1
     ac8:	eb001622 	bl	6358 <__aeabi_f2d>
     acc:	e1a02000 	mov	r2, r0
     ad0:	e1cd01f8 	strd	r0, [sp, #24]
     ad4:	e1a03001 	mov	r3, r1
     ad8:	e1a00006 	mov	r0, r6
     adc:	e2851102 	add	r1, r5, #-2147483648	; 0x80000000
     ae0:	eb001649 	bl	640c <__aeabi_dmul>
     ae4:	eb0017d7 	bl	6a48 <__aeabi_d2f>
     ae8:	e59f36bc 	ldr	r3, [pc, #1724]	; 11ac <SV_SIZE+0x1ac>
     aec:	e1a01000 	mov	r1, r0
     af0:	e5830000 	str	r0, [r3]
     af4:	e1a05000 	mov	r5, r0
     af8:	eb0017fd 	bl	6af4 <__addsf3>
     afc:	e59f36ac 	ldr	r3, [pc, #1708]	; 11b0 <SV_SIZE+0x1b0>
     b00:	e1a06000 	mov	r6, r0
     b04:	e5836000 	str	r6, [r3]
     b08:	e1a00004 	mov	r0, r4
     b0c:	eb001611 	bl	6358 <__aeabi_f2d>
     b10:	e3a02000 	mov	r2, #0
     b14:	e3a03103 	mov	r3, #-1073741824	; 0xc0000000
     b18:	eb00163b 	bl	640c <__aeabi_dmul>
     b1c:	eb00050d 	bl	1f58 <exp>
     b20:	eb0017c8 	bl	6a48 <__aeabi_d2f>
     b24:	e59f3688 	ldr	r3, [pc, #1672]	; 11b4 <SV_SIZE+0x1b4>
     b28:	e1a01005 	mov	r1, r5
     b2c:	e1a04005 	mov	r4, r5
     b30:	e5830000 	str	r0, [r3]
     b34:	e1a07000 	mov	r7, r0
     b38:	e1a0000b 	mov	r0, fp
     b3c:	eb001894 	bl	6d94 <__aeabi_fmul>
     b40:	eb001604 	bl	6358 <__aeabi_f2d>
     b44:	e3a02000 	mov	r2, #0
     b48:	e59f3668 	ldr	r3, [pc, #1640]	; 11b8 <SV_SIZE+0x1b8>
     b4c:	eb00152a 	bl	5ffc <__adddf3>
     b50:	eb0017bc 	bl	6a48 <__aeabi_d2f>
     b54:	e1a01004 	mov	r1, r4
     b58:	e58d4024 	str	r4, [sp, #36]	; 0x24
     b5c:	e1a05000 	mov	r5, r0
     b60:	e1a0000a 	mov	r0, sl
     b64:	eb00188a 	bl	6d94 <__aeabi_fmul>
     b68:	eb0015fa 	bl	6358 <__aeabi_f2d>
     b6c:	e2813102 	add	r3, r1, #-2147483648	; 0x80000000
     b70:	e1a01003 	mov	r1, r3
     b74:	eb0017b3 	bl	6a48 <__aeabi_d2f>
     b78:	e59f363c 	ldr	r3, [pc, #1596]	; 11bc <SV_SIZE+0x1bc>
     b7c:	e1a01006 	mov	r1, r6
     b80:	e5835000 	str	r5, [r3]
     b84:	e1a04000 	mov	r4, r0
     b88:	e5834004 	str	r4, [r3, #4]
     b8c:	e1a0000b 	mov	r0, fp
     b90:	eb00187f 	bl	6d94 <__aeabi_fmul>
     b94:	eb0015ef 	bl	6358 <__aeabi_f2d>
     b98:	e3a02000 	mov	r2, #0
     b9c:	e59f3614 	ldr	r3, [pc, #1556]	; 11b8 <SV_SIZE+0x1b8>
     ba0:	eb001515 	bl	5ffc <__adddf3>
     ba4:	eb0017a7 	bl	6a48 <__aeabi_d2f>
     ba8:	e1a01006 	mov	r1, r6
     bac:	e58d0010 	str	r0, [sp, #16]
     bb0:	e1a0000a 	mov	r0, sl
     bb4:	eb001876 	bl	6d94 <__aeabi_fmul>
     bb8:	eb0015e6 	bl	6358 <__aeabi_f2d>
     bbc:	e2813102 	add	r3, r1, #-2147483648	; 0x80000000
     bc0:	e1a01003 	mov	r1, r3
     bc4:	eb00179f 	bl	6a48 <__aeabi_d2f>
     bc8:	e59f35f0 	ldr	r3, [pc, #1520]	; 11c0 <SV_SIZE+0x1c0>
     bcc:	e59dc010 	ldr	ip, [sp, #16]
     bd0:	e583c000 	str	ip, [r3]
     bd4:	e1a06000 	mov	r6, r0
     bd8:	e5836004 	str	r6, [r3, #4]
     bdc:	e1a00007 	mov	r0, r7
     be0:	eb0015dc 	bl	6358 <__aeabi_f2d>
     be4:	e1a02008 	mov	r2, r8
     be8:	e1a03009 	mov	r3, r9
     bec:	e1cd00f8 	strd	r0, [sp, #8]
     bf0:	e1a00008 	mov	r0, r8
     bf4:	e1a01009 	mov	r1, r9
     bf8:	eb0014ff 	bl	5ffc <__adddf3>
     bfc:	e1a08000 	mov	r8, r0
     c00:	e1a09001 	mov	r9, r1
     c04:	eb000453 	bl	1d58 <cos>
     c08:	e1a02000 	mov	r2, r0
     c0c:	e1a03001 	mov	r3, r1
     c10:	e1cd00d8 	ldrd	r0, [sp, #8]
     c14:	e1cd22f8 	strd	r2, [sp, #40]	; 0x28
     c18:	eb0015fb 	bl	640c <__aeabi_dmul>
     c1c:	eb001789 	bl	6a48 <__aeabi_d2f>
     c20:	e1a01009 	mov	r1, r9
     c24:	e1a07000 	mov	r7, r0
     c28:	e1a00008 	mov	r0, r8
     c2c:	eb000488 	bl	1e54 <sin>
     c30:	e1a02000 	mov	r2, r0
     c34:	e1a03001 	mov	r3, r1
     c38:	e1a08000 	mov	r8, r0
     c3c:	e1a09001 	mov	r9, r1
     c40:	e1cd00d8 	ldrd	r0, [sp, #8]
     c44:	e1cd83f0 	strd	r8, [sp, #48]	; 0x30
     c48:	eb0015ef 	bl	640c <__aeabi_dmul>
     c4c:	eb00177d 	bl	6a48 <__aeabi_d2f>
     c50:	e59f356c 	ldr	r3, [pc, #1388]	; 11c4 <SV_SIZE+0x1c4>
     c54:	e1a01007 	mov	r1, r7
     c58:	e5837000 	str	r7, [r3]
     c5c:	e1a08000 	mov	r8, r0
     c60:	e2882102 	add	r2, r8, #-2147483648	; 0x80000000
     c64:	e5832004 	str	r2, [r3, #4]
     c68:	e59d0010 	ldr	r0, [sp, #16]
     c6c:	eb0017a0 	bl	6af4 <__addsf3>
     c70:	e1a01008 	mov	r1, r8
     c74:	e1a07000 	mov	r7, r0
     c78:	e1a00006 	mov	r0, r6
     c7c:	eb00179b 	bl	6af0 <__aeabi_fsub>
     c80:	e1a01004 	mov	r1, r4
     c84:	e1a08000 	mov	r8, r0
     c88:	e1a00004 	mov	r0, r4
     c8c:	eb001840 	bl	6d94 <__aeabi_fmul>
     c90:	e1a01005 	mov	r1, r5
     c94:	e1a06000 	mov	r6, r0
     c98:	e1a00005 	mov	r0, r5
     c9c:	eb00183c 	bl	6d94 <__aeabi_fmul>
     ca0:	e1a01000 	mov	r1, r0
     ca4:	e1a00006 	mov	r0, r6
     ca8:	eb001791 	bl	6af4 <__addsf3>
     cac:	e1a01000 	mov	r1, r0
     cb0:	e3a005fe 	mov	r0, #1065353216	; 0x3f800000
     cb4:	eb00189c 	bl	6f2c <__aeabi_fdiv>
     cb8:	e1a01005 	mov	r1, r5
     cbc:	e1a06000 	mov	r6, r0
     cc0:	e1a00007 	mov	r0, r7
     cc4:	eb001832 	bl	6d94 <__aeabi_fmul>
     cc8:	e1a01004 	mov	r1, r4
     ccc:	e1a09000 	mov	r9, r0
     cd0:	e1a00008 	mov	r0, r8
     cd4:	eb00182e 	bl	6d94 <__aeabi_fmul>
     cd8:	e1a01000 	mov	r1, r0
     cdc:	e1a00009 	mov	r0, r9
     ce0:	eb001783 	bl	6af4 <__addsf3>
     ce4:	e1a01006 	mov	r1, r6
     ce8:	eb001829 	bl	6d94 <__aeabi_fmul>
     cec:	e1a01005 	mov	r1, r5
     cf0:	e1a09000 	mov	r9, r0
     cf4:	e1a00008 	mov	r0, r8
     cf8:	eb001825 	bl	6d94 <__aeabi_fmul>
     cfc:	e1a01004 	mov	r1, r4
     d00:	e59f44c0 	ldr	r4, [pc, #1216]	; 11c8 <SV_SIZE+0x1c8>
     d04:	e59f84c0 	ldr	r8, [pc, #1216]	; 11cc <SV_SIZE+0x1cc>
     d08:	e1a05000 	mov	r5, r0
     d0c:	e1a00007 	mov	r0, r7
     d10:	eb00181f 	bl	6d94 <__aeabi_fmul>
     d14:	e59f74b4 	ldr	r7, [pc, #1204]	; 11d0 <SV_SIZE+0x1d0>
     d18:	e1a01000 	mov	r1, r0
     d1c:	e1a00005 	mov	r0, r5
     d20:	eb001772 	bl	6af0 <__aeabi_fsub>
     d24:	e1a01006 	mov	r1, r6
     d28:	eb001819 	bl	6d94 <__aeabi_fmul>
     d2c:	e59f34a0 	ldr	r3, [pc, #1184]	; 11d4 <SV_SIZE+0x1d4>
     d30:	e59f64a0 	ldr	r6, [pc, #1184]	; 11d8 <SV_SIZE+0x1d8>
     d34:	e5839000 	str	r9, [r3]
     d38:	e59f549c 	ldr	r5, [pc, #1180]	; 11dc <SV_SIZE+0x1dc>
     d3c:	e1a02000 	mov	r2, r0
     d40:	e1a01000 	mov	r1, r0
     d44:	e1a00009 	mov	r0, r9
     d48:	e5832004 	str	r2, [r3, #4]
     d4c:	eb0003eb 	bl	1d00 <cabsf>
     d50:	e59f3488 	ldr	r3, [pc, #1160]	; 11e0 <SV_SIZE+0x1e0>
     d54:	e1a01000 	mov	r1, r0
     d58:	e5831000 	str	r1, [r3]
     d5c:	e59d0024 	ldr	r0, [sp, #36]	; 0x24
     d60:	eb00180b 	bl	6d94 <__aeabi_fmul>
     d64:	e59f3478 	ldr	r3, [pc, #1144]	; 11e4 <SV_SIZE+0x1e4>
     d68:	e59f1478 	ldr	r1, [pc, #1144]	; 11e8 <SV_SIZE+0x1e8>
     d6c:	e59fe478 	ldr	lr, [pc, #1144]	; 11ec <SV_SIZE+0x1ec>
     d70:	e59fc478 	ldr	ip, [pc, #1144]	; 11f0 <SV_SIZE+0x1f0>
     d74:	e59f2478 	ldr	r2, [pc, #1144]	; 11f4 <SV_SIZE+0x1f4>
     d78:	e5831000 	str	r1, [r3]
     d7c:	e5848000 	str	r8, [r4]
     d80:	e59f3470 	ldr	r3, [pc, #1136]	; 11f8 <SV_SIZE+0x1f8>
     d84:	e3a08a02 	mov	r8, #8192	; 0x2000
     d88:	e59f446c 	ldr	r4, [pc, #1132]	; 11fc <SV_SIZE+0x1fc>
     d8c:	e5868000 	str	r8, [r6]
     d90:	e58e4000 	str	r4, [lr]
     d94:	e59f8464 	ldr	r8, [pc, #1124]	; 1200 <SV_SIZE+0x200>
     d98:	e59fe464 	ldr	lr, [pc, #1124]	; 1204 <SV_SIZE+0x204>
     d9c:	e59f4464 	ldr	r4, [pc, #1124]	; 1208 <SV_SIZE+0x208>
     da0:	e59f6464 	ldr	r6, [pc, #1124]	; 120c <SV_SIZE+0x20c>
     da4:	e58ce000 	str	lr, [ip]
     da8:	e5824000 	str	r4, [r2]
     dac:	e5878000 	str	r8, [r7]
     db0:	e5856000 	str	r6, [r5]
     db4:	e5830000 	str	r0, [r3]
     db8:	e59d0014 	ldr	r0, [sp, #20]
     dbc:	eb0017f4 	bl	6d94 <__aeabi_fmul>
     dc0:	e1a01004 	mov	r1, r4
     dc4:	eb00174a 	bl	6af4 <__addsf3>
     dc8:	e59f3440 	ldr	r3, [pc, #1088]	; 1210 <SV_SIZE+0x210>
     dcc:	e5830000 	str	r0, [r3]
     dd0:	eb001560 	bl	6358 <__aeabi_f2d>
     dd4:	e1cd23d8 	ldrd	r2, [sp, #56]	; 0x38
     dd8:	eb00158b 	bl	640c <__aeabi_dmul>
     ddc:	eb001719 	bl	6a48 <__aeabi_d2f>
     de0:	e59fc42c 	ldr	ip, [pc, #1068]	; 1214 <SV_SIZE+0x214>
     de4:	e59f242c 	ldr	r2, [pc, #1068]	; 1218 <SV_SIZE+0x218>
     de8:	e59f342c 	ldr	r3, [pc, #1068]	; 121c <SV_SIZE+0x21c>
     dec:	e59f142c 	ldr	r1, [pc, #1068]	; 1220 <SV_SIZE+0x220>
     df0:	e59de020 	ldr	lr, [sp, #32]
     df4:	e58ce000 	str	lr, [ip]
     df8:	e582b000 	str	fp, [r2]
     dfc:	e583a000 	str	sl, [r3]
     e00:	e1a05000 	mov	r5, r0
     e04:	e5815000 	str	r5, [r1]
     e08:	e2800102 	add	r0, r0, #-2147483648	; 0x80000000
     e0c:	eb001551 	bl	6358 <__aeabi_f2d>
     e10:	eb000450 	bl	1f58 <exp>
     e14:	e1cd21d8 	ldrd	r2, [sp, #24]
     e18:	e2817102 	add	r7, r1, #-2147483648	; 0x80000000
     e1c:	e1a01007 	mov	r1, r7
     e20:	eb001579 	bl	640c <__aeabi_dmul>
     e24:	eb001707 	bl	6a48 <__aeabi_d2f>
     e28:	e59f33f4 	ldr	r3, [pc, #1012]	; 1224 <SV_SIZE+0x224>
     e2c:	e1a01000 	mov	r1, r0
     e30:	e5830000 	str	r0, [r3]
     e34:	e1a04000 	mov	r4, r0
     e38:	eb00172d 	bl	6af4 <__addsf3>
     e3c:	e59f33e4 	ldr	r3, [pc, #996]	; 1228 <SV_SIZE+0x228>
     e40:	e1a07000 	mov	r7, r0
     e44:	e5837000 	str	r7, [r3]
     e48:	e1a00005 	mov	r0, r5
     e4c:	eb001541 	bl	6358 <__aeabi_f2d>
     e50:	e3a02000 	mov	r2, #0
     e54:	e3a03103 	mov	r3, #-1073741824	; 0xc0000000
     e58:	eb00156b 	bl	640c <__aeabi_dmul>
     e5c:	eb00043d 	bl	1f58 <exp>
     e60:	eb0016f8 	bl	6a48 <__aeabi_d2f>
     e64:	e59f33c0 	ldr	r3, [pc, #960]	; 122c <SV_SIZE+0x22c>
     e68:	e1a01004 	mov	r1, r4
     e6c:	e5830000 	str	r0, [r3]
     e70:	e1a08000 	mov	r8, r0
     e74:	e1a0000b 	mov	r0, fp
     e78:	eb0017c5 	bl	6d94 <__aeabi_fmul>
     e7c:	eb001535 	bl	6358 <__aeabi_f2d>
     e80:	e3a02000 	mov	r2, #0
     e84:	e59f332c 	ldr	r3, [pc, #812]	; 11b8 <SV_SIZE+0x1b8>
     e88:	eb00145b 	bl	5ffc <__adddf3>
     e8c:	eb0016ed 	bl	6a48 <__aeabi_d2f>
     e90:	e1a01004 	mov	r1, r4
     e94:	e1a06000 	mov	r6, r0
     e98:	e1a0000a 	mov	r0, sl
     e9c:	eb0017bc 	bl	6d94 <__aeabi_fmul>
     ea0:	eb00152c 	bl	6358 <__aeabi_f2d>
     ea4:	e2813102 	add	r3, r1, #-2147483648	; 0x80000000
     ea8:	e1a01003 	mov	r1, r3
     eac:	eb0016e5 	bl	6a48 <__aeabi_d2f>
     eb0:	e59f3378 	ldr	r3, [pc, #888]	; 1230 <SV_SIZE+0x230>
     eb4:	e1a01007 	mov	r1, r7
     eb8:	e5836000 	str	r6, [r3]
     ebc:	e1a05000 	mov	r5, r0
     ec0:	e5835004 	str	r5, [r3, #4]
     ec4:	e1a0000b 	mov	r0, fp
     ec8:	eb0017b1 	bl	6d94 <__aeabi_fmul>
     ecc:	eb001521 	bl	6358 <__aeabi_f2d>
     ed0:	e3a02000 	mov	r2, #0
     ed4:	e59f32dc 	ldr	r3, [pc, #732]	; 11b8 <SV_SIZE+0x1b8>
     ed8:	eb001447 	bl	5ffc <__adddf3>
     edc:	eb0016d9 	bl	6a48 <__aeabi_d2f>
     ee0:	e1a01007 	mov	r1, r7
     ee4:	e1a0b000 	mov	fp, r0
     ee8:	e1a0000a 	mov	r0, sl
     eec:	eb0017a8 	bl	6d94 <__aeabi_fmul>
     ef0:	eb001518 	bl	6358 <__aeabi_f2d>
     ef4:	e2813102 	add	r3, r1, #-2147483648	; 0x80000000
     ef8:	e1a01003 	mov	r1, r3
     efc:	eb0016d1 	bl	6a48 <__aeabi_d2f>
     f00:	e59f332c 	ldr	r3, [pc, #812]	; 1234 <SV_SIZE+0x234>
     f04:	e583b000 	str	fp, [r3]
     f08:	e1a07000 	mov	r7, r0
     f0c:	e5837004 	str	r7, [r3, #4]
     f10:	e1a00008 	mov	r0, r8
     f14:	eb00150f 	bl	6358 <__aeabi_f2d>
     f18:	e1a02000 	mov	r2, r0
     f1c:	e1a03001 	mov	r3, r1
     f20:	e1a08000 	mov	r8, r0
     f24:	e1a09001 	mov	r9, r1
     f28:	e1cd02d8 	ldrd	r0, [sp, #40]	; 0x28
     f2c:	eb001536 	bl	640c <__aeabi_dmul>
     f30:	eb0016c4 	bl	6a48 <__aeabi_d2f>
     f34:	e1a02008 	mov	r2, r8
     f38:	e1a03009 	mov	r3, r9
     f3c:	e1a0a000 	mov	sl, r0
     f40:	e1cd03d0 	ldrd	r0, [sp, #48]	; 0x30
     f44:	eb001530 	bl	640c <__aeabi_dmul>
     f48:	eb0016be 	bl	6a48 <__aeabi_d2f>
     f4c:	e59f32e4 	ldr	r3, [pc, #740]	; 1238 <SV_SIZE+0x238>
     f50:	e1a0100a 	mov	r1, sl
     f54:	e583a000 	str	sl, [r3]
     f58:	e1a08000 	mov	r8, r0
     f5c:	e2882102 	add	r2, r8, #-2147483648	; 0x80000000
     f60:	e5832004 	str	r2, [r3, #4]
     f64:	e1a0000b 	mov	r0, fp
     f68:	eb0016e1 	bl	6af4 <__addsf3>
     f6c:	e1a01008 	mov	r1, r8
     f70:	e59fb2c4 	ldr	fp, [pc, #708]	; 123c <SV_SIZE+0x23c>
     f74:	e1a09000 	mov	r9, r0
     f78:	e1a00007 	mov	r0, r7
     f7c:	eb0016db 	bl	6af0 <__aeabi_fsub>
     f80:	e1a01006 	mov	r1, r6
     f84:	e1a0a000 	mov	sl, r0
     f88:	e1a00006 	mov	r0, r6
     f8c:	eb001780 	bl	6d94 <__aeabi_fmul>
     f90:	e1a01005 	mov	r1, r5
     f94:	e1a07000 	mov	r7, r0
     f98:	e1a00005 	mov	r0, r5
     f9c:	eb00177c 	bl	6d94 <__aeabi_fmul>
     fa0:	e1a01000 	mov	r1, r0
     fa4:	e1a00007 	mov	r0, r7
     fa8:	eb0016d1 	bl	6af4 <__addsf3>
     fac:	e1a01000 	mov	r1, r0
     fb0:	e3a005fe 	mov	r0, #1065353216	; 0x3f800000
     fb4:	eb0017dc 	bl	6f2c <__aeabi_fdiv>
     fb8:	e1a01009 	mov	r1, r9
     fbc:	e1a08000 	mov	r8, r0
     fc0:	e1a00006 	mov	r0, r6
     fc4:	eb001772 	bl	6d94 <__aeabi_fmul>
     fc8:	e1a0100a 	mov	r1, sl
     fcc:	e1a07000 	mov	r7, r0
     fd0:	e1a00005 	mov	r0, r5
     fd4:	eb00176e 	bl	6d94 <__aeabi_fmul>
     fd8:	e1a01000 	mov	r1, r0
     fdc:	e1a00007 	mov	r0, r7
     fe0:	eb0016c3 	bl	6af4 <__addsf3>
     fe4:	e1a01008 	mov	r1, r8
     fe8:	eb001769 	bl	6d94 <__aeabi_fmul>
     fec:	e1a0100a 	mov	r1, sl
     ff0:	e59fa248 	ldr	sl, [pc, #584]	; 1240 <SV_SIZE+0x240>
     ff4:	e1a07000 	mov	r7, r0
     ff8:	e1a00006 	mov	r0, r6
     ffc:	eb001764 	bl	6d94 <__aeabi_fmul>
    1000:	e1a01009 	mov	r1, r9
    1004:	e59f9238 	ldr	r9, [pc, #568]	; 1244 <SV_SIZE+0x244>
    1008:	e1a06000 	mov	r6, r0
    100c:	e1a00005 	mov	r0, r5
    1010:	eb00175f 	bl	6d94 <__aeabi_fmul>
    1014:	e59f522c 	ldr	r5, [pc, #556]	; 1248 <SV_SIZE+0x248>
    1018:	e1a01000 	mov	r1, r0
    101c:	e1a00006 	mov	r0, r6
    1020:	eb0016b2 	bl	6af0 <__aeabi_fsub>
    1024:	e1a01008 	mov	r1, r8
    1028:	eb001759 	bl	6d94 <__aeabi_fmul>
    102c:	e59f3218 	ldr	r3, [pc, #536]	; 124c <SV_SIZE+0x24c>
    1030:	e59f8218 	ldr	r8, [pc, #536]	; 1250 <SV_SIZE+0x250>
    1034:	e5837000 	str	r7, [r3]
    1038:	e3a06421 	mov	r6, #553648128	; 0x21000000
    103c:	e1a02000 	mov	r2, r0
    1040:	e1a01000 	mov	r1, r0
    1044:	e1a00007 	mov	r0, r7
    1048:	e5832004 	str	r2, [r3, #4]
    104c:	eb00032b 	bl	1d00 <cabsf>
    1050:	e59f31fc 	ldr	r3, [pc, #508]	; 1254 <SV_SIZE+0x254>
    1054:	e59f71fc 	ldr	r7, [pc, #508]	; 1258 <SV_SIZE+0x258>
    1058:	e1a01000 	mov	r1, r0
    105c:	e5831000 	str	r1, [r3]
    1060:	e1a00004 	mov	r0, r4
    1064:	eb00174a 	bl	6d94 <__aeabi_fmul>
    1068:	e59f41ec 	ldr	r4, [pc, #492]	; 125c <SV_SIZE+0x25c>
    106c:	e59fe1ec 	ldr	lr, [pc, #492]	; 1260 <SV_SIZE+0x260>
    1070:	e59fc1ec 	ldr	ip, [pc, #492]	; 1264 <SV_SIZE+0x264>
    1074:	e59f11ec 	ldr	r1, [pc, #492]	; 1268 <SV_SIZE+0x268>
    1078:	e59f21ec 	ldr	r2, [pc, #492]	; 126c <SV_SIZE+0x26c>
    107c:	e3a03000 	mov	r3, #0
    1080:	e58b3000 	str	r3, [fp]
    1084:	e58a3000 	str	r3, [sl]
    1088:	e5893000 	str	r3, [r9]
    108c:	e58e3000 	str	r3, [lr]
    1090:	e58e3004 	str	r3, [lr, #4]
    1094:	e5853000 	str	r3, [r5]
    1098:	e5853004 	str	r3, [r5, #4]
    109c:	e5843000 	str	r3, [r4]
    10a0:	e5843004 	str	r3, [r4, #4]
    10a4:	e58c3000 	str	r3, [ip]
    10a8:	e58c3004 	str	r3, [ip, #4]
    10ac:	e5883000 	str	r3, [r8]
    10b0:	e5813000 	str	r3, [r1]
    10b4:	e5813004 	str	r3, [r1, #4]
    10b8:	e5823000 	str	r3, [r2]
    10bc:	e5823004 	str	r3, [r2, #4]
    10c0:	e59fe1a8 	ldr	lr, [pc, #424]	; 1270 <SV_SIZE+0x270>
    10c4:	e3a035fe 	mov	r3, #1065353216	; 0x3f800000
    10c8:	e5873000 	str	r3, [r7]
    10cc:	e3a03082 	mov	r3, #130	; 0x82
    10d0:	e58e0000 	str	r0, [lr]
    10d4:	e5863028 	str	r3, [r6, #40]	; 0x28
    10d8:	e28dd044 	add	sp, sp, #68	; 0x44
    10dc:	e8bd8ff0 	pop	{r4, r5, r6, r7, r8, r9, sl, fp, pc}
    10e0:	e59f3084 	ldr	r3, [pc, #132]	; 116c <SV_SIZE+0x16c>
    10e4:	e3a0c000 	mov	ip, #0
    10e8:	e5942000 	ldr	r2, [r4]
    10ec:	e59f1180 	ldr	r1, [pc, #384]	; 1274 <SV_SIZE+0x274>
    10f0:	e3a00002 	mov	r0, #2
    10f4:	e583c000 	str	ip, [r3]
    10f8:	fa000fa7 	blx	4f9c <io_printf>
    10fc:	eafffe2f 	b	9c0 <ZI_LENGTH+0x14c>
    1100:	004008c8 	.word	0x004008c8
    1104:	00400834 	.word	0x00400834
    1108:	004007d8 	.word	0x004007d8
    110c:	0040084c 	.word	0x0040084c
    1110:	00007470 	.word	0x00007470
    1114:	00007494 	.word	0x00007494
    1118:	00400884 	.word	0x00400884
    111c:	004007b0 	.word	0x004007b0
    1120:	004007e8 	.word	0x004007e8
    1124:	00400928 	.word	0x00400928
    1128:	00400850 	.word	0x00400850
    112c:	004008a0 	.word	0x004008a0
    1130:	004008a8 	.word	0x004008a8
    1134:	004008d4 	.word	0x004008d4
    1138:	0040080c 	.word	0x0040080c
    113c:	00007380 	.word	0x00007380
    1140:	000074b4 	.word	0x000074b4
    1144:	000074d8 	.word	0x000074d8
    1148:	004008cc 	.word	0x004008cc
    114c:	00400910 	.word	0x00400910
    1150:	0040078c 	.word	0x0040078c
    1154:	004008dc 	.word	0x004008dc
    1158:	0040089c 	.word	0x0040089c
    115c:	e5007f00 	.word	0xe5007f00
    1160:	004008ec 	.word	0x004008ec
    1164:	0040081c 	.word	0x0040081c
    1168:	00400924 	.word	0x00400924
    116c:	0040082c 	.word	0x0040082c
    1170:	00007530 	.word	0x00007530
    1174:	00007554 	.word	0x00007554
    1178:	004007a4 	.word	0x004007a4
    117c:	0000757c 	.word	0x0000757c
    1180:	0040090c 	.word	0x0040090c
    1184:	00400900 	.word	0x00400900
    1188:	004007f4 	.word	0x004007f4
    118c:	3e0f5c29 	.word	0x3e0f5c29
    1190:	43340000 	.word	0x43340000
    1194:	0040085c 	.word	0x0040085c
    1198:	401921fb 	.word	0x401921fb
    119c:	004008a4 	.word	0x004008a4
    11a0:	00400800 	.word	0x00400800
    11a4:	00400810 	.word	0x00400810
    11a8:	00400804 	.word	0x00400804
    11ac:	00400874 	.word	0x00400874
    11b0:	00400818 	.word	0x00400818
    11b4:	00400860 	.word	0x00400860
    11b8:	3ff00000 	.word	0x3ff00000
    11bc:	004008b4 	.word	0x004008b4
    11c0:	00400854 	.word	0x00400854
    11c4:	0040091c 	.word	0x0040091c
    11c8:	004008f0 	.word	0x004008f0
    11cc:	47435000 	.word	0x47435000
    11d0:	00400814 	.word	0x00400814
    11d4:	004008bc 	.word	0x004008bc
    11d8:	00400870 	.word	0x00400870
    11dc:	00400890 	.word	0x00400890
    11e0:	00400894 	.word	0x00400894
    11e4:	004007c0 	.word	0x004007c0
    11e8:	3e4ccccd 	.word	0x3e4ccccd
    11ec:	00400794 	.word	0x00400794
    11f0:	004007cc 	.word	0x004007cc
    11f4:	004008ac 	.word	0x004008ac
    11f8:	004007bc 	.word	0x004007bc
    11fc:	332afc59 	.word	0x332afc59
    1200:	4bbfa448 	.word	0x4bbfa448
    1204:	43480000 	.word	0x43480000
    1208:	436b0000 	.word	0x436b0000
    120c:	2b601d4b 	.word	0x2b601d4b
    1210:	004007d0 	.word	0x004007d0
    1214:	004007a0 	.word	0x004007a0
    1218:	004008b0 	.word	0x004008b0
    121c:	004007d4 	.word	0x004007d4
    1220:	00400844 	.word	0x00400844
    1224:	00400898 	.word	0x00400898
    1228:	00400828 	.word	0x00400828
    122c:	004007b8 	.word	0x004007b8
    1230:	004007a8 	.word	0x004007a8
    1234:	0040087c 	.word	0x0040087c
    1238:	00400914 	.word	0x00400914
    123c:	00400878 	.word	0x00400878
    1240:	00400848 	.word	0x00400848
    1244:	00400824 	.word	0x00400824
    1248:	004007dc 	.word	0x004007dc
    124c:	004007ec 	.word	0x004007ec
    1250:	004007b4 	.word	0x004007b4
    1254:	004008f8 	.word	0x004008f8
    1258:	00400798 	.word	0x00400798
    125c:	00400864 	.word	0x00400864
    1260:	0040083c 	.word	0x0040083c
    1264:	004008e4 	.word	0x004008e4
    1268:	004007c4 	.word	0x004007c4
    126c:	00400904 	.word	0x00400904
    1270:	004007fc 	.word	0x004007fc
    1274:	00007504 	.word	0x00007504

00001278 <process_chan>:
    1278:	e59f34f8 	ldr	r3, [pc, #1272]	; 1778 <process_chan+0x500>
    127c:	e3a02064 	mov	r2, #100	; 0x64
    1280:	e5933000 	ldr	r3, [r3]
    1284:	e92d4ff0 	push	{r4, r5, r6, r7, r8, r9, sl, fp, lr}
    1288:	e0030392 	mul	r3, r2, r3
    128c:	e24dd01c 	sub	sp, sp, #28
    1290:	e2433064 	sub	r3, r3, #100	; 0x64
    1294:	e58d3014 	str	r3, [sp, #20]
    1298:	e2413004 	sub	r3, r1, #4
    129c:	e2402004 	sub	r2, r0, #4
    12a0:	e58d3000 	str	r3, [sp]
    12a4:	e2813f63 	add	r3, r1, #396	; 0x18c
    12a8:	e59f84cc 	ldr	r8, [pc, #1228]	; 177c <process_chan+0x504>
    12ac:	e58d2004 	str	r2, [sp, #4]
    12b0:	e58d3010 	str	r3, [sp, #16]
    12b4:	ea000051 	b	1400 <process_chan+0x188>
    12b8:	e59f34c0 	ldr	r3, [pc, #1216]	; 1780 <process_chan+0x508>
    12bc:	e1a0000b 	mov	r0, fp
    12c0:	e5931000 	ldr	r1, [r3]
    12c4:	eb0016b2 	bl	6d94 <__aeabi_fmul>
    12c8:	e59f34b4 	ldr	r3, [pc, #1204]	; 1784 <process_chan+0x50c>
    12cc:	e1a01000 	mov	r1, r0
    12d0:	e5830000 	str	r0, [r3]
    12d4:	e1a09000 	mov	r9, r0
    12d8:	e1a00007 	mov	r0, r7
    12dc:	eb0016ac 	bl	6d94 <__aeabi_fmul>
    12e0:	e1a0b000 	mov	fp, r0
    12e4:	e59f349c 	ldr	r3, [pc, #1180]	; 1788 <process_chan+0x510>
    12e8:	e1a00006 	mov	r0, r6
    12ec:	e5931000 	ldr	r1, [r3]
    12f0:	eb0016a7 	bl	6d94 <__aeabi_fmul>
    12f4:	e59f3490 	ldr	r3, [pc, #1168]	; 178c <process_chan+0x514>
    12f8:	e1a0100b 	mov	r1, fp
    12fc:	e593a004 	ldr	sl, [r3, #4]
    1300:	eb0015fb 	bl	6af4 <__addsf3>
    1304:	e1a01004 	mov	r1, r4
    1308:	e1a0b000 	mov	fp, r0
    130c:	e1a0000a 	mov	r0, sl
    1310:	eb00169f 	bl	6d94 <__aeabi_fmul>
    1314:	e1a01000 	mov	r1, r0
    1318:	e1a0000b 	mov	r0, fp
    131c:	eb0015f3 	bl	6af0 <__aeabi_fsub>
    1320:	e59f3464 	ldr	r3, [pc, #1124]	; 178c <process_chan+0x514>
    1324:	e5931000 	ldr	r1, [r3]
    1328:	e1a0b000 	mov	fp, r0
    132c:	e1a00005 	mov	r0, r5
    1330:	eb001697 	bl	6d94 <__aeabi_fmul>
    1334:	e1a01000 	mov	r1, r0
    1338:	e1a0000b 	mov	r0, fp
    133c:	eb0015eb 	bl	6af0 <__aeabi_fsub>
    1340:	e59f3444 	ldr	r3, [pc, #1092]	; 178c <process_chan+0x514>
    1344:	e1a01006 	mov	r1, r6
    1348:	e583a000 	str	sl, [r3]
    134c:	e59f3434 	ldr	r3, [pc, #1076]	; 1788 <process_chan+0x510>
    1350:	e5986004 	ldr	r6, [r8, #4]
    1354:	e5839000 	str	r9, [r3]
    1358:	e59f342c 	ldr	r3, [pc, #1068]	; 178c <process_chan+0x514>
    135c:	e1a0b000 	mov	fp, r0
    1360:	e583b004 	str	fp, [r3, #4]
    1364:	e1a0000a 	mov	r0, sl
    1368:	eb001689 	bl	6d94 <__aeabi_fmul>
    136c:	e5981000 	ldr	r1, [r8]
    1370:	e1a09000 	mov	r9, r0
    1374:	e1a00005 	mov	r0, r5
    1378:	eb001685 	bl	6d94 <__aeabi_fmul>
    137c:	e1a01004 	mov	r1, r4
    1380:	e1a05000 	mov	r5, r0
    1384:	e1a00006 	mov	r0, r6
    1388:	eb001681 	bl	6d94 <__aeabi_fmul>
    138c:	e1a01000 	mov	r1, r0
    1390:	e1a00005 	mov	r0, r5
    1394:	eb0015d6 	bl	6af4 <__addsf3>
    1398:	e1a01000 	mov	r1, r0
    139c:	e1a00009 	mov	r0, r9
    13a0:	eb0015d2 	bl	6af0 <__aeabi_fsub>
    13a4:	e1a01007 	mov	r1, r7
    13a8:	e1a04000 	mov	r4, r0
    13ac:	e1a0000b 	mov	r0, fp
    13b0:	eb001677 	bl	6d94 <__aeabi_fmul>
    13b4:	e1a01000 	mov	r1, r0
    13b8:	e1a00004 	mov	r0, r4
    13bc:	eb0015cc 	bl	6af4 <__addsf3>
    13c0:	e59f33c8 	ldr	r3, [pc, #968]	; 1790 <process_chan+0x518>
    13c4:	e5886000 	str	r6, [r8]
    13c8:	e5931000 	ldr	r1, [r3]
    13cc:	e1a04000 	mov	r4, r0
    13d0:	e5884004 	str	r4, [r8, #4]
    13d4:	e59d0008 	ldr	r0, [sp, #8]
    13d8:	eb00166d 	bl	6d94 <__aeabi_fmul>
    13dc:	e1a01004 	mov	r1, r4
    13e0:	eb0015c3 	bl	6af4 <__addsf3>
    13e4:	e59d3010 	ldr	r3, [sp, #16]
    13e8:	e59d2000 	ldr	r2, [sp]
    13ec:	e1530002 	cmp	r3, r2
    13f0:	e59d3004 	ldr	r3, [sp, #4]
    13f4:	e5a30004 	str	r0, [r3, #4]!
    13f8:	e58d3004 	str	r3, [sp, #4]
    13fc:	0a0000da 	beq	176c <process_chan+0x4f4>
    1400:	e59f338c 	ldr	r3, [pc, #908]	; 1794 <process_chan+0x51c>
    1404:	e593b000 	ldr	fp, [r3]
    1408:	e59f3388 	ldr	r3, [pc, #904]	; 1798 <process_chan+0x520>
    140c:	e1a0000b 	mov	r0, fp
    1410:	e5937000 	ldr	r7, [r3]
    1414:	e59f3380 	ldr	r3, [pc, #896]	; 179c <process_chan+0x524>
    1418:	e5931000 	ldr	r1, [r3]
    141c:	eb00165c 	bl	6d94 <__aeabi_fmul>
    1420:	e59f3378 	ldr	r3, [pc, #888]	; 17a0 <process_chan+0x528>
    1424:	e5934004 	ldr	r4, [r3, #4]
    1428:	e59f3374 	ldr	r3, [pc, #884]	; 17a4 <process_chan+0x52c>
    142c:	e5936000 	ldr	r6, [r3]
    1430:	e59f3368 	ldr	r3, [pc, #872]	; 17a0 <process_chan+0x528>
    1434:	e5931000 	ldr	r1, [r3]
    1438:	e1a05000 	mov	r5, r0
    143c:	e1a00007 	mov	r0, r7
    1440:	eb001653 	bl	6d94 <__aeabi_fmul>
    1444:	e1a01006 	mov	r1, r6
    1448:	e1a09000 	mov	r9, r0
    144c:	e1a00004 	mov	r0, r4
    1450:	eb00164f 	bl	6d94 <__aeabi_fmul>
    1454:	e1a01000 	mov	r1, r0
    1458:	e1a00009 	mov	r0, r9
    145c:	eb0015a4 	bl	6af4 <__addsf3>
    1460:	e59d3000 	ldr	r3, [sp]
    1464:	e59f233c 	ldr	r2, [pc, #828]	; 17a8 <process_chan+0x530>
    1468:	e5939004 	ldr	r9, [r3, #4]
    146c:	e1a01000 	mov	r1, r0
    1470:	e1a00005 	mov	r0, r5
    1474:	e5925000 	ldr	r5, [r2]
    1478:	eb00159c 	bl	6af0 <__aeabi_fsub>
    147c:	e1a01005 	mov	r1, r5
    1480:	e1a0a000 	mov	sl, r0
    1484:	e1a00009 	mov	r0, r9
    1488:	eb001641 	bl	6d94 <__aeabi_fmul>
    148c:	e1a01000 	mov	r1, r0
    1490:	e1a0000a 	mov	r0, sl
    1494:	eb001596 	bl	6af4 <__addsf3>
    1498:	e59f22fc 	ldr	r2, [pc, #764]	; 179c <process_chan+0x524>
    149c:	e1a01004 	mov	r1, r4
    14a0:	e5829000 	str	r9, [r2]
    14a4:	e59f22f4 	ldr	r2, [pc, #756]	; 17a0 <process_chan+0x528>
    14a8:	e5824000 	str	r4, [r2]
    14ac:	e1a0a000 	mov	sl, r0
    14b0:	e582a004 	str	sl, [r2, #4]
    14b4:	e59f22f0 	ldr	r2, [pc, #752]	; 17ac <process_chan+0x534>
    14b8:	e1a0000b 	mov	r0, fp
    14bc:	e5924004 	ldr	r4, [r2, #4]
    14c0:	eb001633 	bl	6d94 <__aeabi_fmul>
    14c4:	e59f22e0 	ldr	r2, [pc, #736]	; 17ac <process_chan+0x534>
    14c8:	e5921000 	ldr	r1, [r2]
    14cc:	e1a09000 	mov	r9, r0
    14d0:	e1a00007 	mov	r0, r7
    14d4:	eb00162e 	bl	6d94 <__aeabi_fmul>
    14d8:	e1a01004 	mov	r1, r4
    14dc:	e1a07000 	mov	r7, r0
    14e0:	e1a00006 	mov	r0, r6
    14e4:	eb00162a 	bl	6d94 <__aeabi_fmul>
    14e8:	e1a01000 	mov	r1, r0
    14ec:	e1a00007 	mov	r0, r7
    14f0:	eb00157f 	bl	6af4 <__addsf3>
    14f4:	e1a01000 	mov	r1, r0
    14f8:	e1a00009 	mov	r0, r9
    14fc:	eb00157b 	bl	6af0 <__aeabi_fsub>
    1500:	e1a0100a 	mov	r1, sl
    1504:	e1a06000 	mov	r6, r0
    1508:	e1a00005 	mov	r0, r5
    150c:	eb001620 	bl	6d94 <__aeabi_fmul>
    1510:	e1a01000 	mov	r1, r0
    1514:	e1a00006 	mov	r0, r6
    1518:	eb001575 	bl	6af4 <__addsf3>
    151c:	e59f128c 	ldr	r1, [pc, #652]	; 17b0 <process_chan+0x538>
    1520:	e59d3000 	ldr	r3, [sp]
    1524:	e5916000 	ldr	r6, [r1]
    1528:	e59f1284 	ldr	r1, [pc, #644]	; 17b4 <process_chan+0x53c>
    152c:	e5915000 	ldr	r5, [r1]
    1530:	e59f1274 	ldr	r1, [pc, #628]	; 17ac <process_chan+0x534>
    1534:	e5814000 	str	r4, [r1]
    1538:	e5810004 	str	r0, [r1, #4]
    153c:	e5b3b004 	ldr	fp, [r3, #4]!
    1540:	e58d0008 	str	r0, [sp, #8]
    1544:	e58d3000 	str	r3, [sp]
    1548:	e59f3268 	ldr	r3, [pc, #616]	; 17b8 <process_chan+0x540>
    154c:	e1a00006 	mov	r0, r6
    1550:	e5937000 	ldr	r7, [r3]
    1554:	e59f3260 	ldr	r3, [pc, #608]	; 17bc <process_chan+0x544>
    1558:	e5939004 	ldr	r9, [r3, #4]
    155c:	e59f325c 	ldr	r3, [pc, #604]	; 17c0 <process_chan+0x548>
    1560:	e5934000 	ldr	r4, [r3]
    1564:	e59f3258 	ldr	r3, [pc, #600]	; 17c4 <process_chan+0x54c>
    1568:	e5931000 	ldr	r1, [r3]
    156c:	eb001608 	bl	6d94 <__aeabi_fmul>
    1570:	e59f3244 	ldr	r3, [pc, #580]	; 17bc <process_chan+0x544>
    1574:	e5931000 	ldr	r1, [r3]
    1578:	e1a0a000 	mov	sl, r0
    157c:	e1a00005 	mov	r0, r5
    1580:	eb001603 	bl	6d94 <__aeabi_fmul>
    1584:	e1a01004 	mov	r1, r4
    1588:	e58d000c 	str	r0, [sp, #12]
    158c:	e1a00009 	mov	r0, r9
    1590:	eb0015ff 	bl	6d94 <__aeabi_fmul>
    1594:	e59d200c 	ldr	r2, [sp, #12]
    1598:	e1a01000 	mov	r1, r0
    159c:	e1a00002 	mov	r0, r2
    15a0:	eb001553 	bl	6af4 <__addsf3>
    15a4:	e1a01000 	mov	r1, r0
    15a8:	e1a0000a 	mov	r0, sl
    15ac:	eb00154f 	bl	6af0 <__aeabi_fsub>
    15b0:	e1a01007 	mov	r1, r7
    15b4:	e1a0a000 	mov	sl, r0
    15b8:	e1a0000b 	mov	r0, fp
    15bc:	eb0015f4 	bl	6d94 <__aeabi_fmul>
    15c0:	e1a01000 	mov	r1, r0
    15c4:	e1a0000a 	mov	r0, sl
    15c8:	eb001549 	bl	6af4 <__addsf3>
    15cc:	e59f31f0 	ldr	r3, [pc, #496]	; 17c4 <process_chan+0x54c>
    15d0:	e1a01009 	mov	r1, r9
    15d4:	e583b000 	str	fp, [r3]
    15d8:	e59f31dc 	ldr	r3, [pc, #476]	; 17bc <process_chan+0x544>
    15dc:	e5839000 	str	r9, [r3]
    15e0:	e1a0a000 	mov	sl, r0
    15e4:	e583a004 	str	sl, [r3, #4]
    15e8:	e59f31d8 	ldr	r3, [pc, #472]	; 17c8 <process_chan+0x550>
    15ec:	e1a00006 	mov	r0, r6
    15f0:	e5939004 	ldr	r9, [r3, #4]
    15f4:	eb0015e6 	bl	6d94 <__aeabi_fmul>
    15f8:	e59f31c8 	ldr	r3, [pc, #456]	; 17c8 <process_chan+0x550>
    15fc:	e5931000 	ldr	r1, [r3]
    1600:	e1a0b000 	mov	fp, r0
    1604:	e1a00005 	mov	r0, r5
    1608:	eb0015e1 	bl	6d94 <__aeabi_fmul>
    160c:	e1a01009 	mov	r1, r9
    1610:	e58d000c 	str	r0, [sp, #12]
    1614:	e1a00004 	mov	r0, r4
    1618:	eb0015dd 	bl	6d94 <__aeabi_fmul>
    161c:	e59d200c 	ldr	r2, [sp, #12]
    1620:	e1a01000 	mov	r1, r0
    1624:	e1a00002 	mov	r0, r2
    1628:	eb001531 	bl	6af4 <__addsf3>
    162c:	e1a01000 	mov	r1, r0
    1630:	e1a0000b 	mov	r0, fp
    1634:	eb00152d 	bl	6af0 <__aeabi_fsub>
    1638:	e1a0100a 	mov	r1, sl
    163c:	e1a0b000 	mov	fp, r0
    1640:	e1a00007 	mov	r0, r7
    1644:	eb0015d2 	bl	6d94 <__aeabi_fmul>
    1648:	e1a01000 	mov	r1, r0
    164c:	e1a0000b 	mov	r0, fp
    1650:	eb001527 	bl	6af4 <__addsf3>
    1654:	e59f316c 	ldr	r3, [pc, #364]	; 17c8 <process_chan+0x550>
    1658:	e5839000 	str	r9, [r3]
    165c:	e59f3168 	ldr	r3, [pc, #360]	; 17cc <process_chan+0x554>
    1660:	e5931000 	ldr	r1, [r3]
    1664:	e59f315c 	ldr	r3, [pc, #348]	; 17c8 <process_chan+0x550>
    1668:	e5830004 	str	r0, [r3, #4]
    166c:	eb0015c8 	bl	6d94 <__aeabi_fmul>
    1670:	e59f3158 	ldr	r3, [pc, #344]	; 17d0 <process_chan+0x558>
    1674:	e5931000 	ldr	r1, [r3]
    1678:	e3c09102 	bic	r9, r0, #-2147483648	; 0x80000000
    167c:	e1a0b000 	mov	fp, r0
    1680:	e1a00009 	mov	r0, r9
    1684:	eb0016ad 	bl	7140 <__aeabi_fcmplt>
    1688:	e3500000 	cmp	r0, #0
    168c:	1affff09 	bne	12b8 <process_chan+0x40>
    1690:	e3a01000 	mov	r1, #0
    1694:	e1a00009 	mov	r0, r9
    1698:	eb0016ba 	bl	7188 <__aeabi_fcmpgt>
    169c:	e3500000 	cmp	r0, #0
    16a0:	0a00002c 	beq	1758 <process_chan+0x4e0>
    16a4:	e1a0000b 	mov	r0, fp
    16a8:	e3a01000 	mov	r1, #0
    16ac:	eb0016a3 	bl	7140 <__aeabi_fcmplt>
    16b0:	e59f311c 	ldr	r3, [pc, #284]	; 17d4 <process_chan+0x55c>
    16b4:	e5931000 	ldr	r1, [r3]
    16b8:	e3500000 	cmp	r0, #0
    16bc:	159f0114 	ldrne	r0, [pc, #276]	; 17d8 <process_chan+0x560>
    16c0:	03a005fe 	moveq	r0, #1065353216	; 0x3f800000
    16c4:	eb0015b2 	bl	6d94 <__aeabi_fmul>
    16c8:	e59f30b0 	ldr	r3, [pc, #176]	; 1780 <process_chan+0x508>
    16cc:	e1a04000 	mov	r4, r0
    16d0:	e5930000 	ldr	r0, [r3]
    16d4:	eb0016b7 	bl	71b8 <__gnu_fractsfsa>
    16d8:	eb0016b0 	bl	71a0 <__gnu_fractsasf>
    16dc:	e59f30f8 	ldr	r3, [pc, #248]	; 17dc <process_chan+0x564>
    16e0:	e5931000 	ldr	r1, [r3]
    16e4:	eb0015aa 	bl	6d94 <__aeabi_fmul>
    16e8:	e1a01009 	mov	r1, r9
    16ec:	eb0015a8 	bl	6d94 <__aeabi_fmul>
    16f0:	eb0016b0 	bl	71b8 <__gnu_fractsfsa>
    16f4:	eb000162 	bl	1c84 <logk>
    16f8:	e59f30e0 	ldr	r3, [pc, #224]	; 17e0 <process_chan+0x568>
    16fc:	e5933000 	ldr	r3, [r3]
    1700:	e0c76390 	smull	r6, r7, r0, r3
    1704:	e1a03887 	lsl	r3, r7, #17
    1708:	e18307a6 	orr	r0, r3, r6, lsr #15
    170c:	eb00010f 	bl	1b50 <expk>
    1710:	eb0016a2 	bl	71a0 <__gnu_fractsasf>
    1714:	e1a01004 	mov	r1, r4
    1718:	eb00159d 	bl	6d94 <__aeabi_fmul>
    171c:	e59f3094 	ldr	r3, [pc, #148]	; 17b8 <process_chan+0x540>
    1720:	e5937000 	ldr	r7, [r3]
    1724:	e59f3058 	ldr	r3, [pc, #88]	; 1784 <process_chan+0x50c>
    1728:	e1a01007 	mov	r1, r7
    172c:	e5830000 	str	r0, [r3]
    1730:	e1a09000 	mov	r9, r0
    1734:	eb001596 	bl	6d94 <__aeabi_fmul>
    1738:	e59f3070 	ldr	r3, [pc, #112]	; 17b0 <process_chan+0x538>
    173c:	e5936000 	ldr	r6, [r3]
    1740:	e59f3078 	ldr	r3, [pc, #120]	; 17c0 <process_chan+0x548>
    1744:	e5934000 	ldr	r4, [r3]
    1748:	e59f3064 	ldr	r3, [pc, #100]	; 17b4 <process_chan+0x53c>
    174c:	e5935000 	ldr	r5, [r3]
    1750:	e1a0b000 	mov	fp, r0
    1754:	eafffee2 	b	12e4 <process_chan+0x6c>
    1758:	e59f3024 	ldr	r3, [pc, #36]	; 1784 <process_chan+0x50c>
    175c:	e3a09000 	mov	r9, #0
    1760:	e1a0b009 	mov	fp, r9
    1764:	e5839000 	str	r9, [r3]
    1768:	eafffedd 	b	12e4 <process_chan+0x6c>
    176c:	e59d0014 	ldr	r0, [sp, #20]
    1770:	e28dd01c 	add	sp, sp, #28
    1774:	e8bd8ff0 	pop	{r4, r5, r6, r7, r8, r9, sl, fp, pc}
    1778:	00400834 	.word	0x00400834
    177c:	00400904 	.word	0x00400904
    1780:	004008f0 	.word	0x004008f0
    1784:	00400824 	.word	0x00400824
    1788:	004007b4 	.word	0x004007b4
    178c:	004007c4 	.word	0x004007c4
    1790:	004007cc 	.word	0x004007cc
    1794:	004007fc 	.word	0x004007fc
    1798:	004007b8 	.word	0x004007b8
    179c:	00400878 	.word	0x00400878
    17a0:	004007dc 	.word	0x004007dc
    17a4:	00400828 	.word	0x00400828
    17a8:	004008f8 	.word	0x004008f8
    17ac:	00400864 	.word	0x00400864
    17b0:	004007bc 	.word	0x004007bc
    17b4:	00400860 	.word	0x00400860
    17b8:	00400894 	.word	0x00400894
    17bc:	0040083c 	.word	0x0040083c
    17c0:	00400818 	.word	0x00400818
    17c4:	00400848 	.word	0x00400848
    17c8:	004008e4 	.word	0x004008e4
    17cc:	00400798 	.word	0x00400798
    17d0:	00400890 	.word	0x00400890
    17d4:	00400794 	.word	0x00400794
    17d8:	bf800000 	.word	0xbf800000
    17dc:	00400814 	.word	0x00400814
    17e0:	00400870 	.word	0x00400870

000017e4 <transfer_handler>:
    17e4:	e92d47f0 	push	{r4, r5, r6, r7, r8, r9, sl, lr}
    17e8:	e2514000 	subs	r4, r1, #0
    17ec:	1a000032 	bne	18bc <transfer_handler+0xd8>
    17f0:	e59f3174 	ldr	r3, [pc, #372]	; 196c <transfer_handler+0x188>
    17f4:	e3a09421 	mov	r9, #553648128	; 0x21000000
    17f8:	e5930000 	ldr	r0, [r3]
    17fc:	e59f216c 	ldr	r2, [pc, #364]	; 1970 <transfer_handler+0x18c>
    1800:	e5993024 	ldr	r3, [r9, #36]	; 0x24
    1804:	e5823000 	str	r3, [r2]
    1808:	e0400003 	sub	r0, r0, r3
    180c:	eb001529 	bl	6cb8 <__aeabi_i2f>
    1810:	e59f515c 	ldr	r5, [pc, #348]	; 1974 <transfer_handler+0x190>
    1814:	e59f715c 	ldr	r7, [pc, #348]	; 1978 <transfer_handler+0x194>
    1818:	e5954000 	ldr	r4, [r5]
    181c:	e5973000 	ldr	r3, [r7]
    1820:	e0846084 	add	r6, r4, r4, lsl #1
    1824:	e59f2150 	ldr	r2, [pc, #336]	; 197c <transfer_handler+0x198>
    1828:	e1a06106 	lsl	r6, r6, #2
    182c:	e2844001 	add	r4, r4, #1
    1830:	e59f8148 	ldr	r8, [pc, #328]	; 1980 <transfer_handler+0x19c>
    1834:	e5922000 	ldr	r2, [r2]
    1838:	e3520000 	cmp	r2, #0
    183c:	e7830006 	str	r0, [r3, r6]
    1840:	e5854000 	str	r4, [r5]
    1844:	e5993024 	ldr	r3, [r9, #36]	; 0x24
    1848:	e5883000 	str	r3, [r8]
    184c:	e59f3130 	ldr	r3, [pc, #304]	; 1984 <transfer_handler+0x1a0>
    1850:	e5933000 	ldr	r3, [r3]
    1854:	1a00003a 	bne	1944 <transfer_handler+0x160>
    1858:	e3530000 	cmp	r3, #0
    185c:	e59f2124 	ldr	r2, [pc, #292]	; 1988 <transfer_handler+0x1a4>
    1860:	0a00003a 	beq	1950 <transfer_handler+0x16c>
    1864:	e59f3120 	ldr	r3, [pc, #288]	; 198c <transfer_handler+0x1a8>
    1868:	e5921000 	ldr	r1, [r2]
    186c:	e5930000 	ldr	r0, [r3]
    1870:	ebfffe80 	bl	1278 <process_chan>
    1874:	e59f3114 	ldr	r3, [pc, #276]	; 1990 <transfer_handler+0x1ac>
    1878:	e5830000 	str	r0, [r3]
    187c:	e3a02421 	mov	r2, #553648128	; 0x21000000
    1880:	e5922024 	ldr	r2, [r2, #36]	; 0x24
    1884:	e5953000 	ldr	r3, [r5]
    1888:	e5980000 	ldr	r0, [r8]
    188c:	e59f1100 	ldr	r1, [pc, #256]	; 1994 <transfer_handler+0x1b0>
    1890:	e5974000 	ldr	r4, [r7]
    1894:	e0833083 	add	r3, r3, r3, lsl #1
    1898:	e5812000 	str	r2, [r1]
    189c:	e0400002 	sub	r0, r0, r2
    18a0:	e0844103 	add	r4, r4, r3, lsl #2
    18a4:	eb001503 	bl	6cb8 <__aeabi_i2f>
    18a8:	e3a01000 	mov	r1, #0
    18ac:	e5040008 	str	r0, [r4, #-8]
    18b0:	e1a00001 	mov	r0, r1
    18b4:	e8bd47f0 	pop	{r4, r5, r6, r7, r8, r9, sl, lr}
    18b8:	ea0016a4 	b	7350 <__spin1_trigger_user_event_from_arm>
    18bc:	e3540001 	cmp	r4, #1
    18c0:	18bd87f0 	popne	{r4, r5, r6, r7, r8, r9, sl, pc}
    18c4:	e59f10cc 	ldr	r1, [pc, #204]	; 1998 <transfer_handler+0x1b4>
    18c8:	e59f30a4 	ldr	r3, [pc, #164]	; 1974 <transfer_handler+0x190>
    18cc:	e59fc0a4 	ldr	ip, [pc, #164]	; 1978 <transfer_handler+0x194>
    18d0:	e3a02421 	mov	r2, #553648128	; 0x21000000
    18d4:	e5922024 	ldr	r2, [r2, #36]	; 0x24
    18d8:	e5910000 	ldr	r0, [r1]
    18dc:	e5933000 	ldr	r3, [r3]
    18e0:	e59f10b4 	ldr	r1, [pc, #180]	; 199c <transfer_handler+0x1b8>
    18e4:	e59c7000 	ldr	r7, [ip]
    18e8:	e0833083 	add	r3, r3, r3, lsl #1
    18ec:	e0400002 	sub	r0, r0, r2
    18f0:	e5812000 	str	r2, [r1]
    18f4:	e0877103 	add	r7, r7, r3, lsl #2
    18f8:	eb0014ee 	bl	6cb8 <__aeabi_i2f>
    18fc:	e59f2080 	ldr	r2, [pc, #128]	; 1984 <transfer_handler+0x1a0>
    1900:	e59f6098 	ldr	r6, [pc, #152]	; 19a0 <transfer_handler+0x1bc>
    1904:	e5923000 	ldr	r3, [r2]
    1908:	e16f3f13 	clz	r3, r3
    190c:	e1a032a3 	lsr	r3, r3, #5
    1910:	e3a05000 	mov	r5, #0
    1914:	e5070004 	str	r0, [r7, #-4]
    1918:	e5823000 	str	r3, [r2]
    191c:	ea000000 	b	1924 <transfer_handler+0x140>
    1920:	fb000fc5 	blx	583e <spin1_delay_us>
    1924:	e1a02004 	mov	r2, r4
    1928:	e1a01005 	mov	r1, r5
    192c:	e5960000 	ldr	r0, [r6]
    1930:	fa00102e 	blx	59f0 <spin1_send_mc_packet>
    1934:	e3500000 	cmp	r0, #0
    1938:	e1a00004 	mov	r0, r4
    193c:	0afffff7 	beq	1920 <transfer_handler+0x13c>
    1940:	e8bd87f0 	pop	{r4, r5, r6, r7, r8, r9, sl, pc}
    1944:	e3530000 	cmp	r3, #0
    1948:	e59f2054 	ldr	r2, [pc, #84]	; 19a4 <transfer_handler+0x1c0>
    194c:	1affffc4 	bne	1864 <transfer_handler+0x80>
    1950:	e59f3050 	ldr	r3, [pc, #80]	; 19a8 <transfer_handler+0x1c4>
    1954:	e5921000 	ldr	r1, [r2]
    1958:	e5930000 	ldr	r0, [r3]
    195c:	ebfffe45 	bl	1278 <process_chan>
    1960:	e59f3044 	ldr	r3, [pc, #68]	; 19ac <transfer_handler+0x1c8>
    1964:	e5830000 	str	r0, [r3]
    1968:	eaffffc3 	b	187c <transfer_handler+0x98>
    196c:	004008c4 	.word	0x004008c4
    1970:	004008fc 	.word	0x004008fc
    1974:	00400834 	.word	0x00400834
    1978:	00400924 	.word	0x00400924
    197c:	004007d8 	.word	0x004007d8
    1980:	00400808 	.word	0x00400808
    1984:	0040084c 	.word	0x0040084c
    1988:	0040081c 	.word	0x0040081c
    198c:	004007b0 	.word	0x004007b0
    1990:	004008f4 	.word	0x004008f4
    1994:	004007f8 	.word	0x004007f8
    1998:	0040086c 	.word	0x0040086c
    199c:	0040088c 	.word	0x0040088c
    19a0:	004008a0 	.word	0x004008a0
    19a4:	004008dc 	.word	0x004008dc
    19a8:	0040089c 	.word	0x0040089c
    19ac:	00400830 	.word	0x00400830

000019b0 <app_done>:
    19b0:	e92d4070 	push	{r4, r5, r6, lr}
    19b4:	e59f403c 	ldr	r4, [pc, #60]	; 19f8 <app_done+0x48>
    19b8:	e5945000 	ldr	r5, [r4]
    19bc:	fa000f03 	blx	55d0 <spin1_get_simulation_time>
    19c0:	e1a02005 	mov	r2, r5
    19c4:	e59f1030 	ldr	r1, [pc, #48]	; 19fc <app_done+0x4c>
    19c8:	e1a03000 	mov	r3, r0
    19cc:	e3a00002 	mov	r0, #2
    19d0:	fa000d71 	blx	4f9c <io_printf>
    19d4:	e5942000 	ldr	r2, [r4]
    19d8:	e59f1020 	ldr	r1, [pc, #32]	; 1a00 <app_done+0x50>
    19dc:	e3a00002 	mov	r0, #2
    19e0:	fa000d6d 	blx	4f9c <io_printf>
    19e4:	e5942000 	ldr	r2, [r4]
    19e8:	e59f1014 	ldr	r1, [pc, #20]	; 1a04 <app_done+0x54>
    19ec:	e3a00002 	mov	r0, #2
    19f0:	e8bd4070 	pop	{r4, r5, r6, lr}
    19f4:	ea001657 	b	7358 <__io_printf_from_arm>
    19f8:	004008c8 	.word	0x004008c8
    19fc:	000075a0 	.word	0x000075a0
    1a00:	000075c8 	.word	0x000075c8
    1a04:	000075e8 	.word	0x000075e8

00001a08 <c_main>:
    1a08:	e92d4070 	push	{r4, r5, r6, lr}
    1a0c:	fa000ffb 	blx	5a00 <spin1_get_core_id>
    1a10:	e59f4094 	ldr	r4, [pc, #148]	; 1aac <c_main+0xa4>
    1a14:	e5840000 	str	r0, [r4]
    1a18:	fa000ffb 	blx	5a0c <spin1_get_chip_id>
    1a1c:	e59f308c 	ldr	r3, [pc, #140]	; 1ab0 <c_main+0xa8>
    1a20:	e3a01000 	mov	r1, #0
    1a24:	e5830000 	str	r0, [r3]
    1a28:	e3a00ee1 	mov	r0, #3600	; 0xe10
    1a2c:	fa000ef3 	blx	5600 <spin1_set_timer_tick_and_phase>
    1a30:	ebfffb38 	bl	718 <app_init>
    1a34:	e3a02000 	mov	r2, #0
    1a38:	e59f1074 	ldr	r1, [pc, #116]	; 1ab4 <c_main+0xac>
    1a3c:	e3a00001 	mov	r0, #1
    1a40:	fa000ec0 	blx	5548 <spin1_callback_on>
    1a44:	e3e02000 	mvn	r2, #0
    1a48:	e59f1068 	ldr	r1, [pc, #104]	; 1ab8 <c_main+0xb0>
    1a4c:	e3a00005 	mov	r0, #5
    1a50:	fa000ebc 	blx	5548 <spin1_callback_on>
    1a54:	e3a02000 	mov	r2, #0
    1a58:	e59f105c 	ldr	r1, [pc, #92]	; 1abc <c_main+0xb4>
    1a5c:	e3a00004 	mov	r0, #4
    1a60:	fa000eb8 	blx	5548 <spin1_callback_on>
    1a64:	e3a00001 	mov	r0, #1
    1a68:	fa000f71 	blx	5834 <spin1_start>
    1a6c:	e5945000 	ldr	r5, [r4]
    1a70:	fa000ed6 	blx	55d0 <spin1_get_simulation_time>
    1a74:	e1a02005 	mov	r2, r5
    1a78:	e59f1040 	ldr	r1, [pc, #64]	; 1ac0 <c_main+0xb8>
    1a7c:	e1a03000 	mov	r3, r0
    1a80:	e3a00002 	mov	r0, #2
    1a84:	fa000d44 	blx	4f9c <io_printf>
    1a88:	e5942000 	ldr	r2, [r4]
    1a8c:	e59f1030 	ldr	r1, [pc, #48]	; 1ac4 <c_main+0xbc>
    1a90:	e3a00002 	mov	r0, #2
    1a94:	fa000d40 	blx	4f9c <io_printf>
    1a98:	e5942000 	ldr	r2, [r4]
    1a9c:	e59f1024 	ldr	r1, [pc, #36]	; 1ac8 <c_main+0xc0>
    1aa0:	e3a00002 	mov	r0, #2
    1aa4:	e8bd4070 	pop	{r4, r5, r6, lr}
    1aa8:	ea00162a 	b	7358 <__io_printf_from_arm>
    1aac:	004008c8 	.word	0x004008c8
    1ab0:	004008d8 	.word	0x004008d8
    1ab4:	000017e4 	.word	0x000017e4
    1ab8:	00000428 	.word	0x00000428
    1abc:	00000684 	.word	0x00000684
    1ac0:	000075a0 	.word	0x000075a0
    1ac4:	000075c8 	.word	0x000075c8
    1ac8:	000075e8 	.word	0x000075e8

00001acc <data_specification_get_data_address>:
    1acc:	e92d4013 	push	{r0, r1, r4, lr}
    1ad0:	fa000fca 	blx	5a00 <spin1_get_core_id>
    1ad4:	e3a03026 	mov	r3, #38	; 0x26
    1ad8:	e59f2028 	ldr	r2, [pc, #40]	; 1b08 <data_specification_get_data_address+0x3c>
    1adc:	e59f1028 	ldr	r1, [pc, #40]	; 1b0c <data_specification_get_data_address+0x40>
    1ae0:	e1a00380 	lsl	r0, r0, #7
    1ae4:	e28004e5 	add	r0, r0, #-452984832	; 0xe5000000
    1ae8:	e2800a07 	add	r0, r0, #28672	; 0x7000
    1aec:	e5904070 	ldr	r4, [r0, #112]	; 0x70
    1af0:	e58d4000 	str	r4, [sp]
    1af4:	e3a00002 	mov	r0, #2
    1af8:	fa000d27 	blx	4f9c <io_printf>
    1afc:	e1a00004 	mov	r0, r4
    1b00:	e28dd008 	add	sp, sp, #8
    1b04:	e8bd8010 	pop	{r4, pc}
    1b08:	00007614 	.word	0x00007614
    1b0c:	0000762d 	.word	0x0000762d

00001b10 <data_specification_get_region>:
    1b10:	e2800002 	add	r0, r0, #2
    1b14:	e7910100 	ldr	r0, [r1, r0, lsl #2]
    1b18:	e12fff1e 	bx	lr

00001b1c <exp_series>:
    1b1c:	e59f1028 	ldr	r1, [pc, #40]	; 1b4c <exp_series+0x30>
    1b20:	e92d0030 	push	{r4, r5}
    1b24:	e0832190 	umull	r2, r3, r0, r1
    1b28:	e26334ff 	rsb	r3, r3, #-16777216	; 0xff000000
    1b2c:	e283373a 	add	r3, r3, #15204352	; 0xe80000
    1b30:	e2833c9d 	add	r3, r3, #40192	; 0x9d00
    1b34:	e2833060 	add	r3, r3, #96	; 0x60
    1b38:	e0854093 	umull	r4, r5, r3, r0
    1b3c:	e2850d52 	add	r0, r5, #5248	; 0x1480
    1b40:	e280002e 	add	r0, r0, #46	; 0x2e
    1b44:	e8bd0030 	pop	{r4, r5}
    1b48:	e12fff1e 	bx	lr
    1b4c:	7c130fe0 	.word	0x7c130fe0

00001b50 <expk>:
    1b50:	e59f3118 	ldr	r3, [pc, #280]	; 1c70 <expk+0x120>
    1b54:	e1500003 	cmp	r0, r3
    1b58:	ca00003c 	bgt	1c50 <expk+0x100>
    1b5c:	e59f3110 	ldr	r3, [pc, #272]	; 1c74 <expk+0x124>
    1b60:	e1500003 	cmp	r0, r3
    1b64:	ba000037 	blt	1c48 <expk+0xf8>
    1b68:	e1a03880 	lsl	r3, r0, #17
    1b6c:	e1a038a3 	lsr	r3, r3, #17
    1b70:	e3530000 	cmp	r3, #0
    1b74:	e1a007c0 	asr	r0, r0, #15
    1b78:	0a000036 	beq	1c58 <expk+0x108>
    1b7c:	e59f20f4 	ldr	r2, [pc, #244]	; 1c78 <expk+0x128>
    1b80:	e2633902 	rsb	r3, r3, #32768	; 0x8000
    1b84:	e1a015c3 	asr	r1, r3, #11
    1b88:	e0820180 	add	r0, r2, r0, lsl #3
    1b8c:	e0822101 	add	r2, r2, r1, lsl #2
    1b90:	e92d03f0 	push	{r4, r5, r6, r7, r8, r9}
    1b94:	e592c0d0 	ldr	ip, [r2, #208]	; 0xd0
    1b98:	e1c047d0 	ldrd	r4, [r0, #112]	; 0x70
    1b9c:	e3a07000 	mov	r7, #0
    1ba0:	e0810c94 	umull	r0, r1, r4, ip
    1ba4:	e022179c 	mla	r2, ip, r7, r1
    1ba8:	e370010a 	cmn	r0, #-2147483646	; 0x80000002
    1bac:	e1a06002 	mov	r6, r2
    1bb0:	e3a07000 	mov	r7, #0
    1bb4:	9a000001 	bls	1bc0 <expk+0x70>
    1bb8:	e2926001 	adds	r6, r2, #1
    1bbc:	e2a77000 	adc	r7, r7, #0
    1bc0:	e59f20b4 	ldr	r2, [pc, #180]	; 1c7c <expk+0x12c>
    1bc4:	e59f10b4 	ldr	r1, [pc, #180]	; 1c80 <expk+0x130>
    1bc8:	e0022883 	and	r2, r2, r3, lsl #17
    1bcc:	e0898192 	umull	r8, r9, r2, r1
    1bd0:	e0810c95 	umull	r0, r1, r5, ip
    1bd4:	e26934ff 	rsb	r3, r9, #-16777216	; 0xff000000
    1bd8:	e283373a 	add	r3, r3, #15204352	; 0xe80000
    1bdc:	e2833c9d 	add	r3, r3, #40192	; 0x9d00
    1be0:	e2833060 	add	r3, r3, #96	; 0x60
    1be4:	e0898293 	umull	r8, r9, r3, r2
    1be8:	e0540000 	subs	r0, r4, r0
    1bec:	e2893d52 	add	r3, r9, #5248	; 0x1480
    1bf0:	e0c51001 	sbc	r1, r5, r1
    1bf4:	e283302e 	add	r3, r3, #46	; 0x2e
    1bf8:	e0500006 	subs	r0, r0, r6
    1bfc:	e0c11007 	sbc	r1, r1, r7
    1c00:	e0876390 	umull	r6, r7, r0, r3
    1c04:	e3a09000 	mov	r9, #0
    1c08:	e0227993 	mla	r2, r3, r9, r7
    1c0c:	e376010a 	cmn	r6, #-2147483646	; 0x80000002
    1c10:	e1a04002 	mov	r4, r2
    1c14:	e3a05000 	mov	r5, #0
    1c18:	9a000001 	bls	1c24 <expk+0xd4>
    1c1c:	e2924001 	adds	r4, r2, #1
    1c20:	e2a55000 	adc	r5, r5, #0
    1c24:	e0876391 	umull	r6, r7, r1, r3
    1c28:	e0502006 	subs	r2, r0, r6
    1c2c:	e0c13007 	sbc	r3, r1, r7
    1c30:	e0522004 	subs	r2, r2, r4
    1c34:	e0c33005 	sbc	r3, r3, r5
    1c38:	e1a008a2 	lsr	r0, r2, #17
    1c3c:	e1800783 	orr	r0, r0, r3, lsl #15
    1c40:	e8bd03f0 	pop	{r4, r5, r6, r7, r8, r9}
    1c44:	e12fff1e 	bx	lr
    1c48:	e3a00000 	mov	r0, #0
    1c4c:	e12fff1e 	bx	lr
    1c50:	e3e00102 	mvn	r0, #-2147483648	; 0x80000000
    1c54:	e12fff1e 	bx	lr
    1c58:	e59f3018 	ldr	r3, [pc, #24]	; 1c78 <expk+0x128>
    1c5c:	e0830180 	add	r0, r3, r0, lsl #3
    1c60:	e1c026d8 	ldrd	r2, [r0, #104]	; 0x68
    1c64:	e1a008a2 	lsr	r0, r2, #17
    1c68:	e1800783 	orr	r0, r0, r3, lsl #15
    1c6c:	e12fff1e 	bx	lr
    1c70:	00058b90 	.word	0x00058b90
    1c74:	fffacd29 	.word	0xfffacd29
    1c78:	00007668 	.word	0x00007668
    1c7c:	0ffe0000 	.word	0x0ffe0000
    1c80:	7c130fe0 	.word	0x7c130fe0

00001c84 <logk>:
    1c84:	e16f3f10 	clz	r3, r0
    1c88:	e2832001 	add	r2, r3, #1
    1c8c:	e1a00210 	lsl	r0, r0, r2
    1c90:	e1a02ca0 	lsr	r2, r0, #25
    1c94:	e2022001 	and	r2, r2, #1
    1c98:	e0822d20 	add	r2, r2, r0, lsr #26
    1c9c:	e59fc050 	ldr	ip, [pc, #80]	; 1cf4 <logk+0x70>
    1ca0:	e1a01082 	lsl	r1, r2, #1
    1ca4:	e52de004 	push	{lr}		; (str lr, [sp, #-4]!)
    1ca8:	e0400d02 	sub	r0, r0, r2, lsl #26
    1cac:	e19c10f1 	ldrsh	r1, [ip, r1]
    1cb0:	e1200180 	smlawb	r0, r0, r1, r0
    1cb4:	e16e00e0 	smultt	lr, r0, r0
    1cb8:	e59f1038 	ldr	r1, [pc, #56]	; 1cf8 <logk+0x74>
    1cbc:	e1210ee1 	smulwt	r1, r1, lr
    1cc0:	e12100e1 	smulwt	r1, r1, r0
    1cc4:	e08c2102 	add	r2, ip, r2, lsl #2
    1cc8:	e5922084 	ldr	r2, [r2, #132]	; 0x84
    1ccc:	e0800001 	add	r0, r0, r1
    1cd0:	e59f1024 	ldr	r1, [pc, #36]	; 1cfc <logk+0x78>
    1cd4:	e08202c0 	add	r0, r2, r0, asr #5
    1cd8:	e2433010 	sub	r3, r3, #16
    1cdc:	e0200391 	mla	r0, r1, r3, r0
    1ce0:	e1a035a0 	lsr	r3, r0, #11
    1ce4:	e2033001 	and	r3, r3, #1
    1ce8:	e0830620 	add	r0, r3, r0, lsr #12
    1cec:	e2400806 	sub	r0, r0, #393216	; 0x60000
    1cf0:	e49df004 	pop	{pc}		; (ldr pc, [sp], #4)
    1cf4:	00007778 	.word	0x00007778
    1cf8:	55558220 	.word	0x55558220
    1cfc:	fa746f40 	.word	0xfa746f40

00001d00 <cabsf>:
    1d00:	e92d4070 	push	{r4, r5, r6, lr}
    1d04:	e1a05001 	mov	r5, r1
    1d08:	e1a04000 	mov	r4, r0
    1d0c:	e1a01005 	mov	r1, r5
    1d10:	e1a00004 	mov	r0, r4
    1d14:	eb00000c 	bl	1d4c <crealf>
    1d18:	e1a01005 	mov	r1, r5
    1d1c:	e1a06000 	mov	r6, r0
    1d20:	e1a00004 	mov	r0, r4
    1d24:	eb000004 	bl	1d3c <cimagf>
    1d28:	e1a01000 	mov	r1, r0
    1d2c:	e1a00006 	mov	r0, r6
    1d30:	eb0000ea 	bl	20e0 <hypotf>
    1d34:	e8bd4070 	pop	{r4, r5, r6, lr}
    1d38:	e12fff1e 	bx	lr

00001d3c <cimagf>:
    1d3c:	e1a00001 	mov	r0, r1
    1d40:	e24dd008 	sub	sp, sp, #8
    1d44:	e28dd008 	add	sp, sp, #8
    1d48:	e12fff1e 	bx	lr

00001d4c <crealf>:
    1d4c:	e24dd008 	sub	sp, sp, #8
    1d50:	e28dd008 	add	sp, sp, #8
    1d54:	e12fff1e 	bx	lr

00001d58 <cos>:
    1d58:	e92d4030 	push	{r4, r5, lr}
    1d5c:	e59f20e8 	ldr	r2, [pc, #232]	; 1e4c <cos+0xf4>
    1d60:	e3c13102 	bic	r3, r1, #-2147483648	; 0x80000000
    1d64:	e1530002 	cmp	r3, r2
    1d68:	e24dd01c 	sub	sp, sp, #28
    1d6c:	da000019 	ble	1dd8 <cos+0x80>
    1d70:	e59f20d8 	ldr	r2, [pc, #216]	; 1e50 <cos+0xf8>
    1d74:	e1530002 	cmp	r3, r2
    1d78:	da000005 	ble	1d94 <cos+0x3c>
    1d7c:	e1a02000 	mov	r2, r0
    1d80:	e1a03001 	mov	r3, r1
    1d84:	eb00109b 	bl	5ff8 <__aeabi_dsub>
    1d88:	e28dd01c 	add	sp, sp, #28
    1d8c:	e8bd4030 	pop	{r4, r5, lr}
    1d90:	e12fff1e 	bx	lr
    1d94:	e28d2008 	add	r2, sp, #8
    1d98:	eb00021e 	bl	2618 <__ieee754_rem_pio2>
    1d9c:	e2003003 	and	r3, r0, #3
    1da0:	e3530001 	cmp	r3, #1
    1da4:	0a000018 	beq	1e0c <cos+0xb4>
    1da8:	e3530002 	cmp	r3, #2
    1dac:	0a00000f 	beq	1df0 <cos+0x98>
    1db0:	e3530000 	cmp	r3, #0
    1db4:	0a00001e 	beq	1e34 <cos+0xdc>
    1db8:	e3a0c001 	mov	ip, #1
    1dbc:	e28d3010 	add	r3, sp, #16
    1dc0:	e893000c 	ldm	r3, {r2, r3}
    1dc4:	e28d1008 	add	r1, sp, #8
    1dc8:	e8910003 	ldm	r1, {r0, r1}
    1dcc:	e58dc000 	str	ip, [sp]
    1dd0:	eb00088c 	bl	4008 <__kernel_sin>
    1dd4:	eaffffeb 	b	1d88 <cos+0x30>
    1dd8:	e3a02000 	mov	r2, #0
    1ddc:	e3a03000 	mov	r3, #0
    1de0:	eb000486 	bl	3000 <__kernel_cos>
    1de4:	e28dd01c 	add	sp, sp, #28
    1de8:	e8bd4030 	pop	{r4, r5, lr}
    1dec:	e12fff1e 	bx	lr
    1df0:	e28d3010 	add	r3, sp, #16
    1df4:	e893000c 	ldm	r3, {r2, r3}
    1df8:	e28d1008 	add	r1, sp, #8
    1dfc:	e8910003 	ldm	r1, {r0, r1}
    1e00:	eb00047e 	bl	3000 <__kernel_cos>
    1e04:	e2811102 	add	r1, r1, #-2147483648	; 0x80000000
    1e08:	eaffffde 	b	1d88 <cos+0x30>
    1e0c:	e28d5010 	add	r5, sp, #16
    1e10:	e8950030 	ldm	r5, {r4, r5}
    1e14:	e58d3000 	str	r3, [sp]
    1e18:	e28d1008 	add	r1, sp, #8
    1e1c:	e8910003 	ldm	r1, {r0, r1}
    1e20:	e1a02004 	mov	r2, r4
    1e24:	e1a03005 	mov	r3, r5
    1e28:	eb000876 	bl	4008 <__kernel_sin>
    1e2c:	e2811102 	add	r1, r1, #-2147483648	; 0x80000000
    1e30:	eaffffd4 	b	1d88 <cos+0x30>
    1e34:	e28d3010 	add	r3, sp, #16
    1e38:	e893000c 	ldm	r3, {r2, r3}
    1e3c:	e28d1008 	add	r1, sp, #8
    1e40:	e8910003 	ldm	r1, {r0, r1}
    1e44:	eb00046d 	bl	3000 <__kernel_cos>
    1e48:	eaffffce 	b	1d88 <cos+0x30>
    1e4c:	3fe921fb 	.word	0x3fe921fb
    1e50:	7fefffff 	.word	0x7fefffff

00001e54 <sin>:
    1e54:	e52de004 	push	{lr}		; (str lr, [sp, #-4]!)
    1e58:	e59f20ec 	ldr	r2, [pc, #236]	; 1f4c <sin+0xf8>
    1e5c:	e3c13102 	bic	r3, r1, #-2147483648	; 0x80000000
    1e60:	e1530002 	cmp	r3, r2
    1e64:	e24dd01c 	sub	sp, sp, #28
    1e68:	da000018 	ble	1ed0 <sin+0x7c>
    1e6c:	e59f20dc 	ldr	r2, [pc, #220]	; 1f50 <sin+0xfc>
    1e70:	e1530002 	cmp	r3, r2
    1e74:	da000005 	ble	1e90 <sin+0x3c>
    1e78:	e1a02000 	mov	r2, r0
    1e7c:	e1a03001 	mov	r3, r1
    1e80:	eb00105c 	bl	5ff8 <__aeabi_dsub>
    1e84:	e28dd01c 	add	sp, sp, #28
    1e88:	e49de004 	pop	{lr}		; (ldr lr, [sp], #4)
    1e8c:	e12fff1e 	bx	lr
    1e90:	e28d2008 	add	r2, sp, #8
    1e94:	eb0001df 	bl	2618 <__ieee754_rem_pio2>
    1e98:	e2000003 	and	r0, r0, #3
    1e9c:	e3500001 	cmp	r0, #1
    1ea0:	0a00001b 	beq	1f14 <sin+0xc0>
    1ea4:	e3500002 	cmp	r0, #2
    1ea8:	0a000010 	beq	1ef0 <sin+0x9c>
    1eac:	e3500000 	cmp	r0, #0
    1eb0:	0a00001d 	beq	1f2c <sin+0xd8>
    1eb4:	e28d3010 	add	r3, sp, #16
    1eb8:	e893000c 	ldm	r3, {r2, r3}
    1ebc:	e28d1008 	add	r1, sp, #8
    1ec0:	e8910003 	ldm	r1, {r0, r1}
    1ec4:	eb00044d 	bl	3000 <__kernel_cos>
    1ec8:	e2811102 	add	r1, r1, #-2147483648	; 0x80000000
    1ecc:	eaffffec 	b	1e84 <sin+0x30>
    1ed0:	e3a0c000 	mov	ip, #0
    1ed4:	e3a02000 	mov	r2, #0
    1ed8:	e3a03000 	mov	r3, #0
    1edc:	e58dc000 	str	ip, [sp]
    1ee0:	eb000848 	bl	4008 <__kernel_sin>
    1ee4:	e28dd01c 	add	sp, sp, #28
    1ee8:	e49de004 	pop	{lr}		; (ldr lr, [sp], #4)
    1eec:	e12fff1e 	bx	lr
    1ef0:	e3a0c001 	mov	ip, #1
    1ef4:	e28d3010 	add	r3, sp, #16
    1ef8:	e893000c 	ldm	r3, {r2, r3}
    1efc:	e28d1008 	add	r1, sp, #8
    1f00:	e8910003 	ldm	r1, {r0, r1}
    1f04:	e58dc000 	str	ip, [sp]
    1f08:	eb00083e 	bl	4008 <__kernel_sin>
    1f0c:	e2811102 	add	r1, r1, #-2147483648	; 0x80000000
    1f10:	eaffffdb 	b	1e84 <sin+0x30>
    1f14:	e28d3010 	add	r3, sp, #16
    1f18:	e893000c 	ldm	r3, {r2, r3}
    1f1c:	e28d1008 	add	r1, sp, #8
    1f20:	e8910003 	ldm	r1, {r0, r1}
    1f24:	eb000435 	bl	3000 <__kernel_cos>
    1f28:	eaffffd5 	b	1e84 <sin+0x30>
    1f2c:	e3a0c001 	mov	ip, #1
    1f30:	e28d3010 	add	r3, sp, #16
    1f34:	e893000c 	ldm	r3, {r2, r3}
    1f38:	e28d1008 	add	r1, sp, #8
    1f3c:	e8910003 	ldm	r1, {r0, r1}
    1f40:	e58dc000 	str	ip, [sp]
    1f44:	eb00082f 	bl	4008 <__kernel_sin>
    1f48:	eaffffcd 	b	1e84 <sin+0x30>
    1f4c:	3fe921fb 	.word	0x3fe921fb
    1f50:	7fefffff 	.word	0x7fefffff
    1f54:	00000000 	.word	0x00000000

00001f58 <exp>:
    1f58:	e92d43f0 	push	{r4, r5, r6, r7, r8, r9, lr}
    1f5c:	e24dd02c 	sub	sp, sp, #44	; 0x2c
    1f60:	e1a04000 	mov	r4, r0
    1f64:	e1a05001 	mov	r5, r1
    1f68:	eb0000a6 	bl	2208 <__ieee754_exp>
    1f6c:	e59f815c 	ldr	r8, [pc, #348]	; 20d0 <P2P_TABLE_SIZE+0xd0>
    1f70:	e1d830d0 	ldrsb	r3, [r8]
    1f74:	e3730001 	cmn	r3, #1
    1f78:	e1a06000 	mov	r6, r0
    1f7c:	e1a07001 	mov	r7, r1
    1f80:	0a00002e 	beq	2040 <P2P_TABLE_SIZE+0x40>
    1f84:	e1a00004 	mov	r0, r4
    1f88:	e1a01005 	mov	r1, r5
    1f8c:	eb0008a2 	bl	421c <finite>
    1f90:	e3500000 	cmp	r0, #0
    1f94:	0a000029 	beq	2040 <P2P_TABLE_SIZE+0x40>
    1f98:	e28f3e12 	add	r3, pc, #288	; 0x120
    1f9c:	e893000c 	ldm	r3, {r2, r3}
    1fa0:	e1a00004 	mov	r0, r4
    1fa4:	e1a01005 	mov	r1, r5
    1fa8:	eb001289 	bl	69d4 <__aeabi_dcmpgt>
    1fac:	e2509000 	subs	r9, r0, #0
    1fb0:	1a000027 	bne	2054 <P2P_TABLE_SIZE+0x54>
    1fb4:	e28f3f43 	add	r3, pc, #268	; 0x10c
    1fb8:	e893000c 	ldm	r3, {r2, r3}
    1fbc:	e1a00004 	mov	r0, r4
    1fc0:	e1a01005 	mov	r1, r5
    1fc4:	eb001270 	bl	698c <__aeabi_dcmplt>
    1fc8:	e3500000 	cmp	r0, #0
    1fcc:	0a00001b 	beq	2040 <P2P_TABLE_SIZE+0x40>
    1fd0:	e3a02004 	mov	r2, #4
    1fd4:	e3a00000 	mov	r0, #0
    1fd8:	e3a01000 	mov	r1, #0
    1fdc:	e1d8c0d0 	ldrsb	ip, [r8]
    1fe0:	e59f30ec 	ldr	r3, [pc, #236]	; 20d4 <P2P_TABLE_SIZE+0xd4>
    1fe4:	e35c0002 	cmp	ip, #2
    1fe8:	e58d9020 	str	r9, [sp, #32]
    1fec:	e58d4010 	str	r4, [sp, #16]
    1ff0:	e58d5014 	str	r5, [sp, #20]
    1ff4:	e58d4008 	str	r4, [sp, #8]
    1ff8:	e58d500c 	str	r5, [sp, #12]
    1ffc:	e58d2000 	str	r2, [sp]
    2000:	e58d0018 	str	r0, [sp, #24]
    2004:	e58d101c 	str	r1, [sp, #28]
    2008:	e58d3004 	str	r3, [sp, #4]
    200c:	0a000027 	beq	20b0 <P2P_TABLE_SIZE+0xb0>
    2010:	e1a0000d 	mov	r0, sp
    2014:	eb0008ec 	bl	43cc <matherr>
    2018:	e3500000 	cmp	r0, #0
    201c:	0a000023 	beq	20b0 <P2P_TABLE_SIZE+0xb0>
    2020:	e59d3020 	ldr	r3, [sp, #32]
    2024:	e3530000 	cmp	r3, #0
    2028:	0a000002 	beq	2038 <P2P_TABLE_SIZE+0x38>
    202c:	eb00147e 	bl	722c <__errno>
    2030:	e59d3020 	ldr	r3, [sp, #32]
    2034:	e5803000 	str	r3, [r0]
    2038:	e28d7018 	add	r7, sp, #24
    203c:	e89700c0 	ldm	r7, {r6, r7}
    2040:	e1a00006 	mov	r0, r6
    2044:	e1a01007 	mov	r1, r7
    2048:	e28dd02c 	add	sp, sp, #44	; 0x2c
    204c:	e8bd43f0 	pop	{r4, r5, r6, r7, r8, r9, lr}
    2050:	e12fff1e 	bx	lr
    2054:	e3a01000 	mov	r1, #0
    2058:	e3a00003 	mov	r0, #3
    205c:	e1d830d0 	ldrsb	r3, [r8]
    2060:	e59f206c 	ldr	r2, [pc, #108]	; 20d4 <P2P_TABLE_SIZE+0xd4>
    2064:	e1530001 	cmp	r3, r1
    2068:	e58d4010 	str	r4, [sp, #16]
    206c:	e58d5014 	str	r5, [sp, #20]
    2070:	e58d4008 	str	r4, [sp, #8]
    2074:	e58d500c 	str	r5, [sp, #12]
    2078:	e58d0000 	str	r0, [sp]
    207c:	e58d1020 	str	r1, [sp, #32]
    2080:	e58d2004 	str	r2, [sp, #4]
    2084:	03a0220e 	moveq	r2, #-536870912	; 0xe0000000
    2088:	059f3048 	ldreq	r3, [pc, #72]	; 20d8 <P2P_TABLE_SIZE+0xd8>
    208c:	058d2018 	streq	r2, [sp, #24]
    2090:	058d301c 	streq	r3, [sp, #28]
    2094:	0affffdd 	beq	2010 <P2P_TABLE_SIZE+0x10>
    2098:	e3a00000 	mov	r0, #0
    209c:	e59f1038 	ldr	r1, [pc, #56]	; 20dc <P2P_TABLE_SIZE+0xdc>
    20a0:	e3530002 	cmp	r3, #2
    20a4:	e58d0018 	str	r0, [sp, #24]
    20a8:	e58d101c 	str	r1, [sp, #28]
    20ac:	1affffd7 	bne	2010 <P2P_TABLE_SIZE+0x10>
    20b0:	eb00145d 	bl	722c <__errno>
    20b4:	e3a03022 	mov	r3, #34	; 0x22
    20b8:	e5803000 	str	r3, [r0]
    20bc:	eaffffd7 	b	2020 <P2P_TABLE_SIZE+0x20>
    20c0:	fefa39ef 	.word	0xfefa39ef
    20c4:	40862e42 	.word	0x40862e42
    20c8:	d52d3051 	.word	0xd52d3051
    20cc:	c0874910 	.word	0xc0874910
    20d0:	00400000 	.word	0x00400000
    20d4:	00007900 	.word	0x00007900
    20d8:	47efffff 	.word	0x47efffff
    20dc:	7ff00000 	.word	0x7ff00000

000020e0 <hypotf>:
    20e0:	e92d41f0 	push	{r4, r5, r6, r7, r8, lr}
    20e4:	e24dd028 	sub	sp, sp, #40	; 0x28
    20e8:	e1a06000 	mov	r6, r0
    20ec:	e1a07001 	mov	r7, r1
    20f0:	eb0002e1 	bl	2c7c <__ieee754_hypotf>
    20f4:	e59f50fc 	ldr	r5, [pc, #252]	; 21f8 <hypotf+0x118>
    20f8:	e1d530d0 	ldrsb	r3, [r5]
    20fc:	e3730001 	cmn	r3, #1
    2100:	e1a04000 	mov	r4, r0
    2104:	0a000002 	beq	2114 <hypotf+0x34>
    2108:	eb000910 	bl	4550 <finitef>
    210c:	e2508000 	subs	r8, r0, #0
    2110:	0a000003 	beq	2124 <hypotf+0x44>
    2114:	e1a00004 	mov	r0, r4
    2118:	e28dd028 	add	sp, sp, #40	; 0x28
    211c:	e8bd41f0 	pop	{r4, r5, r6, r7, r8, lr}
    2120:	e12fff1e 	bx	lr
    2124:	e1a00006 	mov	r0, r6
    2128:	eb000908 	bl	4550 <finitef>
    212c:	e3500000 	cmp	r0, #0
    2130:	0afffff7 	beq	2114 <hypotf+0x34>
    2134:	e1a00007 	mov	r0, r7
    2138:	eb000904 	bl	4550 <finitef>
    213c:	e3500000 	cmp	r0, #0
    2140:	0afffff3 	beq	2114 <hypotf+0x34>
    2144:	e3a02003 	mov	r2, #3
    2148:	e59f30ac 	ldr	r3, [pc, #172]	; 21fc <hypotf+0x11c>
    214c:	e1a00006 	mov	r0, r6
    2150:	e88d000c 	stm	sp, {r2, r3}
    2154:	e58d8020 	str	r8, [sp, #32]
    2158:	eb00107e 	bl	6358 <__aeabi_f2d>
    215c:	e58d0008 	str	r0, [sp, #8]
    2160:	e58d100c 	str	r1, [sp, #12]
    2164:	e1a00007 	mov	r0, r7
    2168:	eb00107a 	bl	6358 <__aeabi_f2d>
    216c:	e1d530d0 	ldrsb	r3, [r5]
    2170:	e3530000 	cmp	r3, #0
    2174:	e58d0010 	str	r0, [sp, #16]
    2178:	e58d1014 	str	r1, [sp, #20]
    217c:	0a000010 	beq	21c4 <hypotf+0xe4>
    2180:	e3a00000 	mov	r0, #0
    2184:	e59f1074 	ldr	r1, [pc, #116]	; 2200 <hypotf+0x120>
    2188:	e3530002 	cmp	r3, #2
    218c:	e58d0018 	str	r0, [sp, #24]
    2190:	e58d101c 	str	r1, [sp, #28]
    2194:	1a00000e 	bne	21d4 <hypotf+0xf4>
    2198:	eb001423 	bl	722c <__errno>
    219c:	e3a03022 	mov	r3, #34	; 0x22
    21a0:	e5803000 	str	r3, [r0]
    21a4:	e59d3020 	ldr	r3, [sp, #32]
    21a8:	e3530000 	cmp	r3, #0
    21ac:	1a00000d 	bne	21e8 <hypotf+0x108>
    21b0:	e28d1018 	add	r1, sp, #24
    21b4:	e8910003 	ldm	r1, {r0, r1}
    21b8:	eb001222 	bl	6a48 <__aeabi_d2f>
    21bc:	e1a04000 	mov	r4, r0
    21c0:	eaffffd3 	b	2114 <hypotf+0x34>
    21c4:	e3a0220e 	mov	r2, #-536870912	; 0xe0000000
    21c8:	e59f3034 	ldr	r3, [pc, #52]	; 2204 <hypotf+0x124>
    21cc:	e58d2018 	str	r2, [sp, #24]
    21d0:	e58d301c 	str	r3, [sp, #28]
    21d4:	e1a0000d 	mov	r0, sp
    21d8:	eb00087b 	bl	43cc <matherr>
    21dc:	e3500000 	cmp	r0, #0
    21e0:	1affffef 	bne	21a4 <hypotf+0xc4>
    21e4:	eaffffeb 	b	2198 <hypotf+0xb8>
    21e8:	eb00140f 	bl	722c <__errno>
    21ec:	e59d3020 	ldr	r3, [sp, #32]
    21f0:	e5803000 	str	r3, [r0]
    21f4:	eaffffed 	b	21b0 <hypotf+0xd0>
    21f8:	00400000 	.word	0x00400000
    21fc:	00007904 	.word	0x00007904
    2200:	7ff00000 	.word	0x7ff00000
    2204:	47efffff 	.word	0x47efffff

00002208 <__ieee754_exp>:
    2208:	e92d4ff0 	push	{r4, r5, r6, r7, r8, r9, sl, fp, lr}
    220c:	e59fc3dc 	ldr	ip, [pc, #988]	; 25f0 <__ieee754_exp+0x3e8>
    2210:	e3c12102 	bic	r2, r1, #-2147483648	; 0x80000000
    2214:	e152000c 	cmp	r2, ip
    2218:	e24dd00c 	sub	sp, sp, #12
    221c:	e1a04001 	mov	r4, r1
    2220:	e1a06fa1 	lsr	r6, r1, #31
    2224:	e1a05000 	mov	r5, r0
    2228:	9a00000d 	bls	2264 <__ieee754_exp+0x5c>
    222c:	e59fc3c0 	ldr	ip, [pc, #960]	; 25f4 <__ieee754_exp+0x3ec>
    2230:	e152000c 	cmp	r2, ip
    2234:	9a00001e 	bls	22b4 <__ieee754_exp+0xac>
    2238:	e3c134ff 	bic	r3, r1, #-16777216	; 0xff000000
    223c:	e3c3360f 	bic	r3, r3, #15728640	; 0xf00000
    2240:	e1933000 	orrs	r3, r3, r0
    2244:	1a0000b0 	bne	250c <__ieee754_exp+0x304>
    2248:	e3560000 	cmp	r6, #0
    224c:	0a000001 	beq	2258 <__ieee754_exp+0x50>
    2250:	e3a00000 	mov	r0, #0
    2254:	e1a01000 	mov	r1, r0
    2258:	e28dd00c 	add	sp, sp, #12
    225c:	e8bd4ff0 	pop	{r4, r5, r6, r7, r8, r9, sl, fp, lr}
    2260:	e12fff1e 	bx	lr
    2264:	e59f338c 	ldr	r3, [pc, #908]	; 25f8 <__ieee754_exp+0x3f0>
    2268:	e1520003 	cmp	r2, r3
    226c:	8a000095 	bhi	24c8 <__ieee754_exp+0x2c0>
    2270:	e59f3384 	ldr	r3, [pc, #900]	; 25fc <__ieee754_exp+0x3f4>
    2274:	e1520003 	cmp	r2, r3
    2278:	8a0000a1 	bhi	2504 <__ieee754_exp+0x2fc>
    227c:	e28f3fc5 	add	r3, pc, #788	; 0x314
    2280:	e893000c 	ldm	r3, {r2, r3}
    2284:	eb000f5c 	bl	5ffc <__adddf3>
    2288:	e3a02000 	mov	r2, #0
    228c:	e59f336c 	ldr	r3, [pc, #876]	; 2600 <__ieee754_exp+0x3f8>
    2290:	eb0011cf 	bl	69d4 <__aeabi_dcmpgt>
    2294:	e2508000 	subs	r8, r0, #0
    2298:	0a000035 	beq	2374 <__ieee754_exp+0x16c>
    229c:	e1a00005 	mov	r0, r5
    22a0:	e1a01004 	mov	r1, r4
    22a4:	e3a02000 	mov	r2, #0
    22a8:	e59f3350 	ldr	r3, [pc, #848]	; 2600 <__ieee754_exp+0x3f8>
    22ac:	eb000f52 	bl	5ffc <__adddf3>
    22b0:	eaffffe8 	b	2258 <__ieee754_exp+0x50>
    22b4:	e28f3fb9 	add	r3, pc, #740	; 0x2e4
    22b8:	e893000c 	ldm	r3, {r2, r3}
    22bc:	eb0011c4 	bl	69d4 <__aeabi_dcmpgt>
    22c0:	e3500000 	cmp	r0, #0
    22c4:	1a000094 	bne	251c <__ieee754_exp+0x314>
    22c8:	e1a00005 	mov	r0, r5
    22cc:	e1a01004 	mov	r1, r4
    22d0:	e28f3e2d 	add	r3, pc, #720	; 0x2d0
    22d4:	e893000c 	ldm	r3, {r2, r3}
    22d8:	eb0011ab 	bl	698c <__aeabi_dcmplt>
    22dc:	e3500000 	cmp	r0, #0
    22e0:	1affffda 	bne	2250 <__ieee754_exp+0x48>
    22e4:	e59f8318 	ldr	r8, [pc, #792]	; 2604 <__ieee754_exp+0x3fc>
    22e8:	e28f3d0b 	add	r3, pc, #704	; 0x2c0
    22ec:	e893000c 	ldm	r3, {r2, r3}
    22f0:	e0888186 	add	r8, r8, r6, lsl #3
    22f4:	e1a00005 	mov	r0, r5
    22f8:	e1a01004 	mov	r1, r4
    22fc:	eb001042 	bl	640c <__aeabi_dmul>
    2300:	e898000c 	ldm	r8, {r2, r3}
    2304:	eb000f3c 	bl	5ffc <__adddf3>
    2308:	eb0011b7 	bl	69ec <__aeabi_d2iz>
    230c:	e1a08000 	mov	r8, r0
    2310:	eb001006 	bl	6330 <__aeabi_i2d>
    2314:	e28f3fa7 	add	r3, pc, #668	; 0x29c
    2318:	e893000c 	ldm	r3, {r2, r3}
    231c:	e1a06000 	mov	r6, r0
    2320:	e1a07001 	mov	r7, r1
    2324:	eb001038 	bl	640c <__aeabi_dmul>
    2328:	e1a02000 	mov	r2, r0
    232c:	e1a03001 	mov	r3, r1
    2330:	e1a00005 	mov	r0, r5
    2334:	e1a01004 	mov	r1, r4
    2338:	eb000f2e 	bl	5ff8 <__aeabi_dsub>
    233c:	e28f3f9f 	add	r3, pc, #636	; 0x27c
    2340:	e893000c 	ldm	r3, {r2, r3}
    2344:	e88d0003 	stm	sp, {r0, r1}
    2348:	e1a00006 	mov	r0, r6
    234c:	e1a01007 	mov	r1, r7
    2350:	eb00102d 	bl	640c <__aeabi_dmul>
    2354:	e1a0a000 	mov	sl, r0
    2358:	e1a0b001 	mov	fp, r1
    235c:	e1a0200a 	mov	r2, sl
    2360:	e1a0300b 	mov	r3, fp
    2364:	e89d0003 	ldm	sp, {r0, r1}
    2368:	eb000f22 	bl	5ff8 <__aeabi_dsub>
    236c:	e1a05000 	mov	r5, r0
    2370:	e1a04001 	mov	r4, r1
    2374:	e1a02005 	mov	r2, r5
    2378:	e1a03004 	mov	r3, r4
    237c:	e1a00005 	mov	r0, r5
    2380:	e1a01004 	mov	r1, r4
    2384:	eb001020 	bl	640c <__aeabi_dmul>
    2388:	e1a06000 	mov	r6, r0
    238c:	e1a07001 	mov	r7, r1
    2390:	e28f3e23 	add	r3, pc, #560	; 0x230
    2394:	e893000c 	ldm	r3, {r2, r3}
    2398:	eb00101b 	bl	640c <__aeabi_dmul>
    239c:	e28f3f8b 	add	r3, pc, #556	; 0x22c
    23a0:	e893000c 	ldm	r3, {r2, r3}
    23a4:	eb000f13 	bl	5ff8 <__aeabi_dsub>
    23a8:	e1a02006 	mov	r2, r6
    23ac:	e1a03007 	mov	r3, r7
    23b0:	eb001015 	bl	640c <__aeabi_dmul>
    23b4:	e28f3f87 	add	r3, pc, #540	; 0x21c
    23b8:	e893000c 	ldm	r3, {r2, r3}
    23bc:	eb000f0e 	bl	5ffc <__adddf3>
    23c0:	e1a02006 	mov	r2, r6
    23c4:	e1a03007 	mov	r3, r7
    23c8:	eb00100f 	bl	640c <__aeabi_dmul>
    23cc:	e28f3f83 	add	r3, pc, #524	; 0x20c
    23d0:	e893000c 	ldm	r3, {r2, r3}
    23d4:	eb000f07 	bl	5ff8 <__aeabi_dsub>
    23d8:	e1a02006 	mov	r2, r6
    23dc:	e1a03007 	mov	r3, r7
    23e0:	eb001009 	bl	640c <__aeabi_dmul>
    23e4:	e28f3f7f 	add	r3, pc, #508	; 0x1fc
    23e8:	e893000c 	ldm	r3, {r2, r3}
    23ec:	eb000f02 	bl	5ffc <__adddf3>
    23f0:	e1a02006 	mov	r2, r6
    23f4:	e1a03007 	mov	r3, r7
    23f8:	eb001003 	bl	640c <__aeabi_dmul>
    23fc:	e1a02000 	mov	r2, r0
    2400:	e1a03001 	mov	r3, r1
    2404:	e1a00005 	mov	r0, r5
    2408:	e1a01004 	mov	r1, r4
    240c:	eb000ef9 	bl	5ff8 <__aeabi_dsub>
    2410:	e1a06000 	mov	r6, r0
    2414:	e1a07001 	mov	r7, r1
    2418:	e3580000 	cmp	r8, #0
    241c:	e1a00005 	mov	r0, r5
    2420:	e1a01004 	mov	r1, r4
    2424:	e1a02006 	mov	r2, r6
    2428:	e1a03007 	mov	r3, r7
    242c:	0a000040 	beq	2534 <__ieee754_exp+0x32c>
    2430:	eb000ff5 	bl	640c <__aeabi_dmul>
    2434:	e1a02006 	mov	r2, r6
    2438:	e1a04000 	mov	r4, r0
    243c:	e1a05001 	mov	r5, r1
    2440:	e1a03007 	mov	r3, r7
    2444:	e3a00000 	mov	r0, #0
    2448:	e3a01101 	mov	r1, #1073741824	; 0x40000000
    244c:	eb000ee9 	bl	5ff8 <__aeabi_dsub>
    2450:	e1a02000 	mov	r2, r0
    2454:	e1a03001 	mov	r3, r1
    2458:	e1a00004 	mov	r0, r4
    245c:	e1a01005 	mov	r1, r5
    2460:	eb00108d 	bl	669c <__aeabi_ddiv>
    2464:	e1a02000 	mov	r2, r0
    2468:	e1a03001 	mov	r3, r1
    246c:	e1a0000a 	mov	r0, sl
    2470:	e1a0100b 	mov	r1, fp
    2474:	eb000edf 	bl	5ff8 <__aeabi_dsub>
    2478:	e89d000c 	ldm	sp, {r2, r3}
    247c:	eb000edd 	bl	5ff8 <__aeabi_dsub>
    2480:	e1a03001 	mov	r3, r1
    2484:	e1a02000 	mov	r2, r0
    2488:	e59f1170 	ldr	r1, [pc, #368]	; 2600 <__ieee754_exp+0x3f8>
    248c:	e3a00000 	mov	r0, #0
    2490:	eb000ed8 	bl	5ff8 <__aeabi_dsub>
    2494:	e3e03fff 	mvn	r3, #1020	; 0x3fc
    2498:	e1580003 	cmp	r8, r3
    249c:	e1a03001 	mov	r3, r1
    24a0:	a0811a08 	addge	r1, r1, r8, lsl #20
    24a4:	aaffff6b 	bge	2258 <__ieee754_exp+0x50>
    24a8:	e2888ffa 	add	r8, r8, #1000	; 0x3e8
    24ac:	e0831a08 	add	r1, r3, r8, lsl #20
    24b0:	e3a02000 	mov	r2, #0
    24b4:	e3a03617 	mov	r3, #24117248	; 0x1700000
    24b8:	eb000fd3 	bl	640c <__aeabi_dmul>
    24bc:	e28dd00c 	add	sp, sp, #12
    24c0:	e8bd4ff0 	pop	{r4, r5, r6, r7, r8, r9, sl, fp, lr}
    24c4:	e12fff1e 	bx	lr
    24c8:	e59f3138 	ldr	r3, [pc, #312]	; 2608 <__ieee754_exp+0x400>
    24cc:	e1520003 	cmp	r2, r3
    24d0:	8affff83 	bhi	22e4 <__ieee754_exp+0xdc>
    24d4:	e59f3130 	ldr	r3, [pc, #304]	; 260c <__ieee754_exp+0x404>
    24d8:	e1a04186 	lsl	r4, r6, #3
    24dc:	e0833004 	add	r3, r3, r4
    24e0:	e893000c 	ldm	r3, {r2, r3}
    24e4:	eb000ec3 	bl	5ff8 <__aeabi_dsub>
    24e8:	e59f3120 	ldr	r3, [pc, #288]	; 2610 <__ieee754_exp+0x408>
    24ec:	e2668001 	rsb	r8, r6, #1
    24f0:	e0833004 	add	r3, r3, r4
    24f4:	e88d0003 	stm	sp, {r0, r1}
    24f8:	e8930c00 	ldm	r3, {sl, fp}
    24fc:	e0488006 	sub	r8, r8, r6
    2500:	eaffff95 	b	235c <__ieee754_exp+0x154>
    2504:	e3a08000 	mov	r8, #0
    2508:	eaffff99 	b	2374 <__ieee754_exp+0x16c>
    250c:	e1a02000 	mov	r2, r0
    2510:	e1a03001 	mov	r3, r1
    2514:	eb000eb8 	bl	5ffc <__adddf3>
    2518:	eaffff4e 	b	2258 <__ieee754_exp+0x50>
    251c:	e28f3074 	add	r3, pc, #116	; 0x74
    2520:	e893000c 	ldm	r3, {r2, r3}
    2524:	e1a00002 	mov	r0, r2
    2528:	e1a01003 	mov	r1, r3
    252c:	eb000fb6 	bl	640c <__aeabi_dmul>
    2530:	eaffff48 	b	2258 <__ieee754_exp+0x50>
    2534:	eb000fb4 	bl	640c <__aeabi_dmul>
    2538:	e3a02000 	mov	r2, #0
    253c:	e1a08000 	mov	r8, r0
    2540:	e1a09001 	mov	r9, r1
    2544:	e3a03101 	mov	r3, #1073741824	; 0x40000000
    2548:	e1a00006 	mov	r0, r6
    254c:	e1a01007 	mov	r1, r7
    2550:	eb000ea8 	bl	5ff8 <__aeabi_dsub>
    2554:	e1a02000 	mov	r2, r0
    2558:	e1a03001 	mov	r3, r1
    255c:	e1a00008 	mov	r0, r8
    2560:	e1a01009 	mov	r1, r9
    2564:	eb00104c 	bl	669c <__aeabi_ddiv>
    2568:	e1a02005 	mov	r2, r5
    256c:	e1a03004 	mov	r3, r4
    2570:	eb000ea0 	bl	5ff8 <__aeabi_dsub>
    2574:	e1a02000 	mov	r2, r0
    2578:	e1a03001 	mov	r3, r1
    257c:	e3a00000 	mov	r0, #0
    2580:	e59f1078 	ldr	r1, [pc, #120]	; 2600 <__ieee754_exp+0x3f8>
    2584:	eb000e9b 	bl	5ff8 <__aeabi_dsub>
    2588:	e28dd00c 	add	sp, sp, #12
    258c:	e8bd4ff0 	pop	{r4, r5, r6, r7, r8, r9, sl, fp, lr}
    2590:	e12fff1e 	bx	lr
    2594:	e1a00000 	nop			; (mov r0, r0)
    2598:	8800759c 	.word	0x8800759c
    259c:	7e37e43c 	.word	0x7e37e43c
    25a0:	fefa39ef 	.word	0xfefa39ef
    25a4:	40862e42 	.word	0x40862e42
    25a8:	d52d3051 	.word	0xd52d3051
    25ac:	c0874910 	.word	0xc0874910
    25b0:	652b82fe 	.word	0x652b82fe
    25b4:	3ff71547 	.word	0x3ff71547
    25b8:	fee00000 	.word	0xfee00000
    25bc:	3fe62e42 	.word	0x3fe62e42
    25c0:	35793c76 	.word	0x35793c76
    25c4:	3dea39ef 	.word	0x3dea39ef
    25c8:	72bea4d0 	.word	0x72bea4d0
    25cc:	3e663769 	.word	0x3e663769
    25d0:	c5d26bf1 	.word	0xc5d26bf1
    25d4:	3ebbbd41 	.word	0x3ebbbd41
    25d8:	af25de2c 	.word	0xaf25de2c
    25dc:	3f11566a 	.word	0x3f11566a
    25e0:	16bebd93 	.word	0x16bebd93
    25e4:	3f66c16c 	.word	0x3f66c16c
    25e8:	5555553e 	.word	0x5555553e
    25ec:	3fc55555 	.word	0x3fc55555
    25f0:	40862e41 	.word	0x40862e41
    25f4:	7fefffff 	.word	0x7fefffff
    25f8:	3fd62e42 	.word	0x3fd62e42
    25fc:	3e2fffff 	.word	0x3e2fffff
    2600:	3ff00000 	.word	0x3ff00000
    2604:	00007910 	.word	0x00007910
    2608:	3ff0a2b1 	.word	0x3ff0a2b1
    260c:	00007920 	.word	0x00007920
    2610:	00007930 	.word	0x00007930
    2614:	00000000 	.word	0x00000000

00002618 <__ieee754_rem_pio2>:
    2618:	e92d4ff0 	push	{r4, r5, r6, r7, r8, r9, sl, fp, lr}
    261c:	e59fc3a4 	ldr	ip, [pc, #932]	; 29c8 <__ieee754_rem_pio2+0x3b0>
    2620:	e3c17102 	bic	r7, r1, #-2147483648	; 0x80000000
    2624:	e157000c 	cmp	r7, ip
    2628:	e24dd03c 	sub	sp, sp, #60	; 0x3c
    262c:	da00006d 	ble	27e8 <__ieee754_rem_pio2+0x1d0>
    2630:	e1a04002 	mov	r4, r2
    2634:	e59f2390 	ldr	r2, [pc, #912]	; 29cc <__ieee754_rem_pio2+0x3b4>
    2638:	e1570002 	cmp	r7, r2
    263c:	e1a05001 	mov	r5, r1
    2640:	ca00001c 	bgt	26b8 <__ieee754_rem_pio2+0xa0>
    2644:	e3510000 	cmp	r1, #0
    2648:	e28f3e35 	add	r3, pc, #848	; 0x350
    264c:	e893000c 	ldm	r3, {r2, r3}
    2650:	da000150 	ble	2b98 <__ieee754_rem_pio2+0x580>
    2654:	eb000e67 	bl	5ff8 <__aeabi_dsub>
    2658:	e59f3370 	ldr	r3, [pc, #880]	; 29d0 <__ieee754_rem_pio2+0x3b8>
    265c:	e1570003 	cmp	r7, r3
    2660:	e1a08000 	mov	r8, r0
    2664:	e1a09001 	mov	r9, r1
    2668:	0a000070 	beq	2830 <__ieee754_rem_pio2+0x218>
    266c:	e28f3fcd 	add	r3, pc, #820	; 0x334
    2670:	e893000c 	ldm	r3, {r2, r3}
    2674:	eb000e5f 	bl	5ff8 <__aeabi_dsub>
    2678:	e1a02000 	mov	r2, r0
    267c:	e1a03001 	mov	r3, r1
    2680:	e1a00008 	mov	r0, r8
    2684:	e884000c 	stm	r4, {r2, r3}
    2688:	e1a01009 	mov	r1, r9
    268c:	eb000e59 	bl	5ff8 <__aeabi_dsub>
    2690:	e28f3e31 	add	r3, pc, #784	; 0x310
    2694:	e893000c 	ldm	r3, {r2, r3}
    2698:	eb000e56 	bl	5ff8 <__aeabi_dsub>
    269c:	e3a06001 	mov	r6, #1
    26a0:	e5840008 	str	r0, [r4, #8]
    26a4:	e584100c 	str	r1, [r4, #12]
    26a8:	e1a00006 	mov	r0, r6
    26ac:	e28dd03c 	add	sp, sp, #60	; 0x3c
    26b0:	e8bd4ff0 	pop	{r4, r5, r6, r7, r8, r9, sl, fp, lr}
    26b4:	e12fff1e 	bx	lr
    26b8:	e59f2314 	ldr	r2, [pc, #788]	; 29d4 <__ieee754_rem_pio2+0x3bc>
    26bc:	e1570002 	cmp	r7, r2
    26c0:	da00006f 	ble	2884 <__ieee754_rem_pio2+0x26c>
    26c4:	e59f230c 	ldr	r2, [pc, #780]	; 29d8 <__ieee754_rem_pio2+0x3c0>
    26c8:	e1570002 	cmp	r7, r2
    26cc:	ca00004f 	bgt	2810 <__ieee754_rem_pio2+0x1f8>
    26d0:	e1a0aa47 	asr	sl, r7, #20
    26d4:	e24aae41 	sub	sl, sl, #1040	; 0x410
    26d8:	e24aa006 	sub	sl, sl, #6
    26dc:	e0479a0a 	sub	r9, r7, sl, lsl #20
    26e0:	e1a01009 	mov	r1, r9
    26e4:	e1a08000 	mov	r8, r0
    26e8:	eb0010bf 	bl	69ec <__aeabi_d2iz>
    26ec:	eb000f0f 	bl	6330 <__aeabi_i2d>
    26f0:	e1a06000 	mov	r6, r0
    26f4:	e1a07001 	mov	r7, r1
    26f8:	e1a02006 	mov	r2, r6
    26fc:	e1a03007 	mov	r3, r7
    2700:	e1a00008 	mov	r0, r8
    2704:	e1a01009 	mov	r1, r9
    2708:	e58d6020 	str	r6, [sp, #32]
    270c:	e58d7024 	str	r7, [sp, #36]	; 0x24
    2710:	eb000e38 	bl	5ff8 <__aeabi_dsub>
    2714:	e3a02000 	mov	r2, #0
    2718:	e59f32bc 	ldr	r3, [pc, #700]	; 29dc <__ieee754_rem_pio2+0x3c4>
    271c:	eb000f3a 	bl	640c <__aeabi_dmul>
    2720:	e1a09001 	mov	r9, r1
    2724:	e1a08000 	mov	r8, r0
    2728:	eb0010af 	bl	69ec <__aeabi_d2iz>
    272c:	eb000eff 	bl	6330 <__aeabi_i2d>
    2730:	e1a06000 	mov	r6, r0
    2734:	e1a07001 	mov	r7, r1
    2738:	e1a02006 	mov	r2, r6
    273c:	e1a03007 	mov	r3, r7
    2740:	e1a00008 	mov	r0, r8
    2744:	e1a01009 	mov	r1, r9
    2748:	e58d6028 	str	r6, [sp, #40]	; 0x28
    274c:	e58d702c 	str	r7, [sp, #44]	; 0x2c
    2750:	eb000e28 	bl	5ff8 <__aeabi_dsub>
    2754:	e3a02000 	mov	r2, #0
    2758:	e59f327c 	ldr	r3, [pc, #636]	; 29dc <__ieee754_rem_pio2+0x3c4>
    275c:	eb000f2a 	bl	640c <__aeabi_dmul>
    2760:	e3a03000 	mov	r3, #0
    2764:	e3a02000 	mov	r2, #0
    2768:	e58d0030 	str	r0, [sp, #48]	; 0x30
    276c:	e58d1034 	str	r1, [sp, #52]	; 0x34
    2770:	eb00107f 	bl	6974 <__aeabi_dcmpeq>
    2774:	e3500000 	cmp	r0, #0
    2778:	03a03003 	moveq	r3, #3
    277c:	0a000007 	beq	27a0 <__ieee754_rem_pio2+0x188>
    2780:	e3a03000 	mov	r3, #0
    2784:	e1a00006 	mov	r0, r6
    2788:	e1a01007 	mov	r1, r7
    278c:	e3a02000 	mov	r2, #0
    2790:	eb001077 	bl	6974 <__aeabi_dcmpeq>
    2794:	e3500000 	cmp	r0, #0
    2798:	13a03001 	movne	r3, #1
    279c:	03a03002 	moveq	r3, #2
    27a0:	e3a00002 	mov	r0, #2
    27a4:	e59f1234 	ldr	r1, [pc, #564]	; 29e0 <__ieee754_rem_pio2+0x3c8>
    27a8:	e1a0200a 	mov	r2, sl
    27ac:	e88d0003 	stm	sp, {r0, r1}
    27b0:	e1a01004 	mov	r1, r4
    27b4:	e28d0020 	add	r0, sp, #32
    27b8:	eb0002e4 	bl	3350 <__kernel_rem_pio2>
    27bc:	e3550000 	cmp	r5, #0
    27c0:	e1a06000 	mov	r6, r0
    27c4:	aa00000d 	bge	2800 <__ieee754_rem_pio2+0x1e8>
    27c8:	e5942004 	ldr	r2, [r4, #4]
    27cc:	e594300c 	ldr	r3, [r4, #12]
    27d0:	e2822102 	add	r2, r2, #-2147483648	; 0x80000000
    27d4:	e2833102 	add	r3, r3, #-2147483648	; 0x80000000
    27d8:	e5842004 	str	r2, [r4, #4]
    27dc:	e584300c 	str	r3, [r4, #12]
    27e0:	e2606000 	rsb	r6, r0, #0
    27e4:	ea000005 	b	2800 <__ieee754_rem_pio2+0x1e8>
    27e8:	e3a04000 	mov	r4, #0
    27ec:	e3a05000 	mov	r5, #0
    27f0:	e3a06000 	mov	r6, #0
    27f4:	e5824008 	str	r4, [r2, #8]
    27f8:	e582500c 	str	r5, [r2, #12]
    27fc:	e8820003 	stm	r2, {r0, r1}
    2800:	e1a00006 	mov	r0, r6
    2804:	e28dd03c 	add	sp, sp, #60	; 0x3c
    2808:	e8bd4ff0 	pop	{r4, r5, r6, r7, r8, r9, sl, fp, lr}
    280c:	e12fff1e 	bx	lr
    2810:	e1a02000 	mov	r2, r0
    2814:	e1a03001 	mov	r3, r1
    2818:	eb000df6 	bl	5ff8 <__aeabi_dsub>
    281c:	e3a06000 	mov	r6, #0
    2820:	e5840008 	str	r0, [r4, #8]
    2824:	e584100c 	str	r1, [r4, #12]
    2828:	e8840003 	stm	r4, {r0, r1}
    282c:	eafffff3 	b	2800 <__ieee754_rem_pio2+0x1e8>
    2830:	e28f3f5e 	add	r3, pc, #376	; 0x178
    2834:	e893000c 	ldm	r3, {r2, r3}
    2838:	eb000dee 	bl	5ff8 <__aeabi_dsub>
    283c:	e28f3f5d 	add	r3, pc, #372	; 0x174
    2840:	e893000c 	ldm	r3, {r2, r3}
    2844:	e1a06000 	mov	r6, r0
    2848:	e1a07001 	mov	r7, r1
    284c:	eb000de9 	bl	5ff8 <__aeabi_dsub>
    2850:	e1a02000 	mov	r2, r0
    2854:	e1a03001 	mov	r3, r1
    2858:	e1a00006 	mov	r0, r6
    285c:	e884000c 	stm	r4, {r2, r3}
    2860:	e1a01007 	mov	r1, r7
    2864:	eb000de3 	bl	5ff8 <__aeabi_dsub>
    2868:	e28f3f52 	add	r3, pc, #328	; 0x148
    286c:	e893000c 	ldm	r3, {r2, r3}
    2870:	eb000de0 	bl	5ff8 <__aeabi_dsub>
    2874:	e3a06001 	mov	r6, #1
    2878:	e5840008 	str	r0, [r4, #8]
    287c:	e584100c 	str	r1, [r4, #12]
    2880:	eaffffde 	b	2800 <__ieee754_rem_pio2+0x1e8>
    2884:	eb000662 	bl	4214 <fabs>
    2888:	e28f3e13 	add	r3, pc, #304	; 0x130
    288c:	e893000c 	ldm	r3, {r2, r3}
    2890:	e1a08000 	mov	r8, r0
    2894:	e1a09001 	mov	r9, r1
    2898:	eb000edb 	bl	640c <__aeabi_dmul>
    289c:	e3a02000 	mov	r2, #0
    28a0:	e59f313c 	ldr	r3, [pc, #316]	; 29e4 <__ieee754_rem_pio2+0x3cc>
    28a4:	eb000dd4 	bl	5ffc <__adddf3>
    28a8:	eb00104f 	bl	69ec <__aeabi_d2iz>
    28ac:	e1a06000 	mov	r6, r0
    28b0:	eb000e9e 	bl	6330 <__aeabi_i2d>
    28b4:	e28f30e4 	add	r3, pc, #228	; 0xe4
    28b8:	e893000c 	ldm	r3, {r2, r3}
    28bc:	e58d0010 	str	r0, [sp, #16]
    28c0:	e58d1014 	str	r1, [sp, #20]
    28c4:	eb000ed0 	bl	640c <__aeabi_dmul>
    28c8:	e1a02000 	mov	r2, r0
    28cc:	e1a03001 	mov	r3, r1
    28d0:	e1a00008 	mov	r0, r8
    28d4:	e1a01009 	mov	r1, r9
    28d8:	eb000dc6 	bl	5ff8 <__aeabi_dsub>
    28dc:	e28f30c4 	add	r3, pc, #196	; 0xc4
    28e0:	e893000c 	ldm	r3, {r2, r3}
    28e4:	e1a0a000 	mov	sl, r0
    28e8:	e1a0b001 	mov	fp, r1
    28ec:	e28d1010 	add	r1, sp, #16
    28f0:	e8910003 	ldm	r1, {r0, r1}
    28f4:	eb000ec4 	bl	640c <__aeabi_dmul>
    28f8:	e356001f 	cmp	r6, #31
    28fc:	e58d0008 	str	r0, [sp, #8]
    2900:	e58d100c 	str	r1, [sp, #12]
    2904:	ca000039 	bgt	29f0 <__ieee754_rem_pio2+0x3d8>
    2908:	e59f30d8 	ldr	r3, [pc, #216]	; 29e8 <__ieee754_rem_pio2+0x3d0>
    290c:	e2462001 	sub	r2, r6, #1
    2910:	e7933102 	ldr	r3, [r3, r2, lsl #2]
    2914:	e1570003 	cmp	r7, r3
    2918:	0a000034 	beq	29f0 <__ieee754_rem_pio2+0x3d8>
    291c:	e1a02000 	mov	r2, r0
    2920:	e1a03001 	mov	r3, r1
    2924:	e1a0000a 	mov	r0, sl
    2928:	e1a0100b 	mov	r1, fp
    292c:	eb000db1 	bl	5ff8 <__aeabi_dsub>
    2930:	e1a02000 	mov	r2, r0
    2934:	e1a03001 	mov	r3, r1
    2938:	e1a09000 	mov	r9, r0
    293c:	e1a08001 	mov	r8, r1
    2940:	e884000c 	stm	r4, {r2, r3}
    2944:	e1a02009 	mov	r2, r9
    2948:	e1a03008 	mov	r3, r8
    294c:	e1a0000a 	mov	r0, sl
    2950:	e1a0100b 	mov	r1, fp
    2954:	eb000da7 	bl	5ff8 <__aeabi_dsub>
    2958:	e28d3008 	add	r3, sp, #8
    295c:	e893000c 	ldm	r3, {r2, r3}
    2960:	eb000da4 	bl	5ff8 <__aeabi_dsub>
    2964:	e1a02000 	mov	r2, r0
    2968:	e1a03001 	mov	r3, r1
    296c:	e3550000 	cmp	r5, #0
    2970:	e5842008 	str	r2, [r4, #8]
    2974:	e584300c 	str	r3, [r4, #12]
    2978:	aaffffa0 	bge	2800 <__ieee754_rem_pio2+0x1e8>
    297c:	e2888102 	add	r8, r8, #-2147483648	; 0x80000000
    2980:	e2811102 	add	r1, r1, #-2147483648	; 0x80000000
    2984:	e5849000 	str	r9, [r4]
    2988:	e5848004 	str	r8, [r4, #4]
    298c:	e584100c 	str	r1, [r4, #12]
    2990:	e5840008 	str	r0, [r4, #8]
    2994:	e2666000 	rsb	r6, r6, #0
    2998:	eaffff98 	b	2800 <__ieee754_rem_pio2+0x1e8>
    299c:	e1a00000 	nop			; (mov r0, r0)
    29a0:	54400000 	.word	0x54400000
    29a4:	3ff921fb 	.word	0x3ff921fb
    29a8:	1a626331 	.word	0x1a626331
    29ac:	3dd0b461 	.word	0x3dd0b461
    29b0:	1a600000 	.word	0x1a600000
    29b4:	3dd0b461 	.word	0x3dd0b461
    29b8:	2e037073 	.word	0x2e037073
    29bc:	3ba3198a 	.word	0x3ba3198a
    29c0:	6dc9c883 	.word	0x6dc9c883
    29c4:	3fe45f30 	.word	0x3fe45f30
    29c8:	3fe921fb 	.word	0x3fe921fb
    29cc:	4002d97b 	.word	0x4002d97b
    29d0:	3ff921fb 	.word	0x3ff921fb
    29d4:	413921fb 	.word	0x413921fb
    29d8:	7fefffff 	.word	0x7fefffff
    29dc:	41700000 	.word	0x41700000
    29e0:	000079c0 	.word	0x000079c0
    29e4:	3fe00000 	.word	0x3fe00000
    29e8:	00007940 	.word	0x00007940
    29ec:	000007ff 	.word	0x000007ff
    29f0:	e28d3008 	add	r3, sp, #8
    29f4:	e893000c 	ldm	r3, {r2, r3}
    29f8:	e1a0000a 	mov	r0, sl
    29fc:	e1a0100b 	mov	r1, fp
    2a00:	eb000d7c 	bl	5ff8 <__aeabi_dsub>
    2a04:	e1a02000 	mov	r2, r0
    2a08:	e1a03001 	mov	r3, r1
    2a0c:	e1a09000 	mov	r9, r0
    2a10:	e51f002c 	ldr	r0, [pc, #-44]	; 29ec <__ieee754_rem_pio2+0x3d4>
    2a14:	e1a08001 	mov	r8, r1
    2a18:	e1a07a47 	asr	r7, r7, #20
    2a1c:	e0001a21 	and	r1, r0, r1, lsr #20
    2a20:	e0471001 	sub	r1, r7, r1
    2a24:	e3510010 	cmp	r1, #16
    2a28:	e884000c 	stm	r4, {r2, r3}
    2a2c:	daffffc4 	ble	2944 <__ieee754_rem_pio2+0x32c>
    2a30:	e28f3f86 	add	r3, pc, #536	; 0x218
    2a34:	e893000c 	ldm	r3, {r2, r3}
    2a38:	e28d1010 	add	r1, sp, #16
    2a3c:	e8910003 	ldm	r1, {r0, r1}
    2a40:	eb000e71 	bl	640c <__aeabi_dmul>
    2a44:	e1a08000 	mov	r8, r0
    2a48:	e1a09001 	mov	r9, r1
    2a4c:	e1a02000 	mov	r2, r0
    2a50:	e1a03001 	mov	r3, r1
    2a54:	e1a0000a 	mov	r0, sl
    2a58:	e1a0100b 	mov	r1, fp
    2a5c:	eb000d65 	bl	5ff8 <__aeabi_dsub>
    2a60:	e58d0018 	str	r0, [sp, #24]
    2a64:	e58d101c 	str	r1, [sp, #28]
    2a68:	e1a02000 	mov	r2, r0
    2a6c:	e1a03001 	mov	r3, r1
    2a70:	e1a0000a 	mov	r0, sl
    2a74:	e1a0100b 	mov	r1, fp
    2a78:	eb000d5e 	bl	5ff8 <__aeabi_dsub>
    2a7c:	e1a02008 	mov	r2, r8
    2a80:	e1a03009 	mov	r3, r9
    2a84:	eb000d5b 	bl	5ff8 <__aeabi_dsub>
    2a88:	e1a08000 	mov	r8, r0
    2a8c:	e1a09001 	mov	r9, r1
    2a90:	e28f3d07 	add	r3, pc, #448	; 0x1c0
    2a94:	e893000c 	ldm	r3, {r2, r3}
    2a98:	e28d1010 	add	r1, sp, #16
    2a9c:	e8910003 	ldm	r1, {r0, r1}
    2aa0:	eb000e59 	bl	640c <__aeabi_dmul>
    2aa4:	e1a02008 	mov	r2, r8
    2aa8:	e1a03009 	mov	r3, r9
    2aac:	eb000d51 	bl	5ff8 <__aeabi_dsub>
    2ab0:	e1a02000 	mov	r2, r0
    2ab4:	e1a03001 	mov	r3, r1
    2ab8:	e28db018 	add	fp, sp, #24
    2abc:	e89b0c00 	ldm	fp, {sl, fp}
    2ac0:	e1a0000a 	mov	r0, sl
    2ac4:	e1a0100b 	mov	r1, fp
    2ac8:	e58d2008 	str	r2, [sp, #8]
    2acc:	e58d300c 	str	r3, [sp, #12]
    2ad0:	eb000d48 	bl	5ff8 <__aeabi_dsub>
    2ad4:	e1a02000 	mov	r2, r0
    2ad8:	e1a03001 	mov	r3, r1
    2adc:	e1a09000 	mov	r9, r0
    2ae0:	e59f0188 	ldr	r0, [pc, #392]	; 2c70 <__ieee754_rem_pio2+0x658>
    2ae4:	e1a08001 	mov	r8, r1
    2ae8:	e0001a21 	and	r1, r0, r1, lsr #20
    2aec:	e0477001 	sub	r7, r7, r1
    2af0:	e3570031 	cmp	r7, #49	; 0x31
    2af4:	e884000c 	stm	r4, {r2, r3}
    2af8:	da000051 	ble	2c44 <__ieee754_rem_pio2+0x62c>
    2afc:	e3a0242e 	mov	r2, #771751936	; 0x2e000000
    2b00:	e59f316c 	ldr	r3, [pc, #364]	; 2c74 <__ieee754_rem_pio2+0x65c>
    2b04:	e28d1010 	add	r1, sp, #16
    2b08:	e8910003 	ldm	r1, {r0, r1}
    2b0c:	eb000e3e 	bl	640c <__aeabi_dmul>
    2b10:	e1a08000 	mov	r8, r0
    2b14:	e1a09001 	mov	r9, r1
    2b18:	e1a02000 	mov	r2, r0
    2b1c:	e1a03001 	mov	r3, r1
    2b20:	e1a0000a 	mov	r0, sl
    2b24:	e1a0100b 	mov	r1, fp
    2b28:	e58da018 	str	sl, [sp, #24]
    2b2c:	e58db01c 	str	fp, [sp, #28]
    2b30:	eb000d30 	bl	5ff8 <__aeabi_dsub>
    2b34:	e1a02000 	mov	r2, r0
    2b38:	e1a03001 	mov	r3, r1
    2b3c:	e1a0a000 	mov	sl, r0
    2b40:	e1a0b001 	mov	fp, r1
    2b44:	e28d1018 	add	r1, sp, #24
    2b48:	e8910003 	ldm	r1, {r0, r1}
    2b4c:	eb000d29 	bl	5ff8 <__aeabi_dsub>
    2b50:	e1a02008 	mov	r2, r8
    2b54:	e1a03009 	mov	r3, r9
    2b58:	eb000d26 	bl	5ff8 <__aeabi_dsub>
    2b5c:	e1a08000 	mov	r8, r0
    2b60:	e1a09001 	mov	r9, r1
    2b64:	e28f30f4 	add	r3, pc, #244	; 0xf4
    2b68:	e893000c 	ldm	r3, {r2, r3}
    2b6c:	e28d1010 	add	r1, sp, #16
    2b70:	e8910003 	ldm	r1, {r0, r1}
    2b74:	eb000e24 	bl	640c <__aeabi_dmul>
    2b78:	e1a02008 	mov	r2, r8
    2b7c:	e1a03009 	mov	r3, r9
    2b80:	eb000d1c 	bl	5ff8 <__aeabi_dsub>
    2b84:	e1a02000 	mov	r2, r0
    2b88:	e1a03001 	mov	r3, r1
    2b8c:	e58d2008 	str	r2, [sp, #8]
    2b90:	e58d300c 	str	r3, [sp, #12]
    2b94:	eaffff62 	b	2924 <__ieee754_rem_pio2+0x30c>
    2b98:	eb000d17 	bl	5ffc <__adddf3>
    2b9c:	e59f30d4 	ldr	r3, [pc, #212]	; 2c78 <__ieee754_rem_pio2+0x660>
    2ba0:	e1570003 	cmp	r7, r3
    2ba4:	e1a08000 	mov	r8, r0
    2ba8:	e1a09001 	mov	r9, r1
    2bac:	0a00000f 	beq	2bf0 <__ieee754_rem_pio2+0x5d8>
    2bb0:	e28f30b0 	add	r3, pc, #176	; 0xb0
    2bb4:	e893000c 	ldm	r3, {r2, r3}
    2bb8:	eb000d0f 	bl	5ffc <__adddf3>
    2bbc:	e1a02000 	mov	r2, r0
    2bc0:	e1a03001 	mov	r3, r1
    2bc4:	e1a00008 	mov	r0, r8
    2bc8:	e884000c 	stm	r4, {r2, r3}
    2bcc:	e1a01009 	mov	r1, r9
    2bd0:	eb000d08 	bl	5ff8 <__aeabi_dsub>
    2bd4:	e28f308c 	add	r3, pc, #140	; 0x8c
    2bd8:	e893000c 	ldm	r3, {r2, r3}
    2bdc:	eb000d06 	bl	5ffc <__adddf3>
    2be0:	e3e06000 	mvn	r6, #0
    2be4:	e5840008 	str	r0, [r4, #8]
    2be8:	e584100c 	str	r1, [r4, #12]
    2bec:	eaffff03 	b	2800 <__ieee754_rem_pio2+0x1e8>
    2bf0:	e28f3058 	add	r3, pc, #88	; 0x58
    2bf4:	e893000c 	ldm	r3, {r2, r3}
    2bf8:	eb000cff 	bl	5ffc <__adddf3>
    2bfc:	e28f3054 	add	r3, pc, #84	; 0x54
    2c00:	e893000c 	ldm	r3, {r2, r3}
    2c04:	e1a06000 	mov	r6, r0
    2c08:	e1a07001 	mov	r7, r1
    2c0c:	eb000cfa 	bl	5ffc <__adddf3>
    2c10:	e1a02000 	mov	r2, r0
    2c14:	e1a03001 	mov	r3, r1
    2c18:	e1a00006 	mov	r0, r6
    2c1c:	e884000c 	stm	r4, {r2, r3}
    2c20:	e1a01007 	mov	r1, r7
    2c24:	eb000cf3 	bl	5ff8 <__aeabi_dsub>
    2c28:	e28f3028 	add	r3, pc, #40	; 0x28
    2c2c:	e893000c 	ldm	r3, {r2, r3}
    2c30:	eb000cf1 	bl	5ffc <__adddf3>
    2c34:	e3e06000 	mvn	r6, #0
    2c38:	e5840008 	str	r0, [r4, #8]
    2c3c:	e584100c 	str	r1, [r4, #12]
    2c40:	eafffeee 	b	2800 <__ieee754_rem_pio2+0x1e8>
    2c44:	e28db018 	add	fp, sp, #24
    2c48:	e89b0c00 	ldm	fp, {sl, fp}
    2c4c:	eaffff3c 	b	2944 <__ieee754_rem_pio2+0x32c>
    2c50:	1a600000 	.word	0x1a600000
    2c54:	3dd0b461 	.word	0x3dd0b461
    2c58:	2e037073 	.word	0x2e037073
    2c5c:	3ba3198a 	.word	0x3ba3198a
    2c60:	252049c1 	.word	0x252049c1
    2c64:	397b839a 	.word	0x397b839a
    2c68:	1a626331 	.word	0x1a626331
    2c6c:	3dd0b461 	.word	0x3dd0b461
    2c70:	000007ff 	.word	0x000007ff
    2c74:	3ba3198a 	.word	0x3ba3198a
    2c78:	3ff921fb 	.word	0x3ff921fb

00002c7c <__ieee754_hypotf>:
    2c7c:	e92d47f0 	push	{r4, r5, r6, r7, r8, r9, sl, lr}
    2c80:	e3c04102 	bic	r4, r0, #-2147483648	; 0x80000000
    2c84:	e3c15102 	bic	r5, r1, #-2147483648	; 0x80000000
    2c88:	e1540005 	cmp	r4, r5
    2c8c:	a1a03004 	movge	r3, r4
    2c90:	b1a03005 	movlt	r3, r5
    2c94:	a1a06005 	movge	r6, r5
    2c98:	b1a06004 	movlt	r6, r4
    2c9c:	e0432006 	sub	r2, r3, r6
    2ca0:	e352040f 	cmp	r2, #251658240	; 0xf000000
    2ca4:	e1a07003 	mov	r7, r3
    2ca8:	e1a08006 	mov	r8, r6
    2cac:	ca00005a 	bgt	2e1c <__ieee754_hypotf+0x1a0>
    2cb0:	e59f222c 	ldr	r2, [pc, #556]	; 2ee4 <__ieee754_hypotf+0x268>
    2cb4:	e1530002 	cmp	r3, r2
    2cb8:	e1a04003 	mov	r4, r3
    2cbc:	e1a05006 	mov	r5, r6
    2cc0:	ca000045 	bgt	2ddc <__ieee754_hypotf+0x160>
    2cc4:	e3a06000 	mov	r6, #0
    2cc8:	e355059a 	cmp	r5, #645922816	; 0x26800000
    2ccc:	aa00000c 	bge	2d04 <__ieee754_hypotf+0x88>
    2cd0:	e3550000 	cmp	r5, #0
    2cd4:	0a00003d 	beq	2dd0 <__ieee754_hypotf+0x154>
    2cd8:	e3550502 	cmp	r5, #8388608	; 0x800000
    2cdc:	aa000078 	bge	2ec4 <__ieee754_hypotf+0x248>
    2ce0:	e1a00008 	mov	r0, r8
    2ce4:	e59f11fc 	ldr	r1, [pc, #508]	; 2ee8 <__ieee754_hypotf+0x26c>
    2ce8:	eb001029 	bl	6d94 <__aeabi_fmul>
    2cec:	e59f11f4 	ldr	r1, [pc, #500]	; 2ee8 <__ieee754_hypotf+0x26c>
    2cf0:	e1a08000 	mov	r8, r0
    2cf4:	e1a00007 	mov	r0, r7
    2cf8:	eb001025 	bl	6d94 <__aeabi_fmul>
    2cfc:	e1a07000 	mov	r7, r0
    2d00:	e246607e 	sub	r6, r6, #126	; 0x7e
    2d04:	e1a01008 	mov	r1, r8
    2d08:	e1a00007 	mov	r0, r7
    2d0c:	eb000f77 	bl	6af0 <__aeabi_fsub>
    2d10:	e1a01000 	mov	r1, r0
    2d14:	e1a09000 	mov	r9, r0
    2d18:	e1a00008 	mov	r0, r8
    2d1c:	eb001107 	bl	7140 <__aeabi_fcmplt>
    2d20:	e3500000 	cmp	r0, #0
    2d24:	1a000043 	bne	2e38 <__ieee754_hypotf+0x1bc>
    2d28:	e3c55eff 	bic	r5, r5, #4080	; 0xff0
    2d2c:	e2844502 	add	r4, r4, #8388608	; 0x800000
    2d30:	e3c5500f 	bic	r5, r5, #15
    2d34:	e1a01004 	mov	r1, r4
    2d38:	e1a00005 	mov	r0, r5
    2d3c:	eb001014 	bl	6d94 <__aeabi_fmul>
    2d40:	e1a01009 	mov	r1, r9
    2d44:	e1a0a000 	mov	sl, r0
    2d48:	e2890102 	add	r0, r9, #-2147483648	; 0x80000000
    2d4c:	eb001010 	bl	6d94 <__aeabi_fmul>
    2d50:	e1a01007 	mov	r1, r7
    2d54:	e1a09000 	mov	r9, r0
    2d58:	e1a00007 	mov	r0, r7
    2d5c:	eb000f64 	bl	6af4 <__addsf3>
    2d60:	e1a01004 	mov	r1, r4
    2d64:	eb000f61 	bl	6af0 <__aeabi_fsub>
    2d68:	e1a01008 	mov	r1, r8
    2d6c:	eb001008 	bl	6d94 <__aeabi_fmul>
    2d70:	e1a01005 	mov	r1, r5
    2d74:	e1a07000 	mov	r7, r0
    2d78:	e1a00008 	mov	r0, r8
    2d7c:	eb000f5b 	bl	6af0 <__aeabi_fsub>
    2d80:	e1a01004 	mov	r1, r4
    2d84:	eb001002 	bl	6d94 <__aeabi_fmul>
    2d88:	e1a01000 	mov	r1, r0
    2d8c:	e1a00007 	mov	r0, r7
    2d90:	eb000f57 	bl	6af4 <__addsf3>
    2d94:	e1a01000 	mov	r1, r0
    2d98:	e1a00009 	mov	r0, r9
    2d9c:	eb000f53 	bl	6af0 <__aeabi_fsub>
    2da0:	e1a01000 	mov	r1, r0
    2da4:	e1a0000a 	mov	r0, sl
    2da8:	eb000f50 	bl	6af0 <__aeabi_fsub>
    2dac:	eb000050 	bl	2ef4 <__ieee754_sqrtf>
    2db0:	e1a07000 	mov	r7, r0
    2db4:	e3560000 	cmp	r6, #0
    2db8:	0a000004 	beq	2dd0 <__ieee754_hypotf+0x154>
    2dbc:	e1a01b86 	lsl	r1, r6, #23
    2dc0:	e1a00007 	mov	r0, r7
    2dc4:	e28115fe 	add	r1, r1, #1065353216	; 0x3f800000
    2dc8:	eb000ff1 	bl	6d94 <__aeabi_fmul>
    2dcc:	e1a07000 	mov	r7, r0
    2dd0:	e1a00007 	mov	r0, r7
    2dd4:	e8bd47f0 	pop	{r4, r5, r6, r7, r8, r9, sl, lr}
    2dd8:	e12fff1e 	bx	lr
    2ddc:	e59f2108 	ldr	r2, [pc, #264]	; 2eec <__ieee754_hypotf+0x270>
    2de0:	e1530002 	cmp	r3, r2
    2de4:	da000030 	ble	2eac <__ieee754_hypotf+0x230>
    2de8:	e2822001 	add	r2, r2, #1
    2dec:	e1530002 	cmp	r3, r2
    2df0:	0a000039 	beq	2edc <__ieee754_hypotf+0x260>
    2df4:	e1a01006 	mov	r1, r6
    2df8:	e1a00003 	mov	r0, r3
    2dfc:	eb000f3c 	bl	6af4 <__addsf3>
    2e00:	e1a07000 	mov	r7, r0
    2e04:	e59f30e4 	ldr	r3, [pc, #228]	; 2ef0 <__ieee754_hypotf+0x274>
    2e08:	e1560003 	cmp	r6, r3
    2e0c:	059f70dc 	ldreq	r7, [pc, #220]	; 2ef0 <__ieee754_hypotf+0x274>
    2e10:	e1a00007 	mov	r0, r7
    2e14:	e8bd47f0 	pop	{r4, r5, r6, r7, r8, r9, sl, lr}
    2e18:	e12fff1e 	bx	lr
    2e1c:	e1a01006 	mov	r1, r6
    2e20:	e1a00003 	mov	r0, r3
    2e24:	eb000f32 	bl	6af4 <__addsf3>
    2e28:	e1a07000 	mov	r7, r0
    2e2c:	e1a00007 	mov	r0, r7
    2e30:	e8bd47f0 	pop	{r4, r5, r6, r7, r8, r9, sl, lr}
    2e34:	e12fff1e 	bx	lr
    2e38:	e3c44eff 	bic	r4, r4, #4080	; 0xff0
    2e3c:	e3c4400f 	bic	r4, r4, #15
    2e40:	e1a01004 	mov	r1, r4
    2e44:	e1a00004 	mov	r0, r4
    2e48:	eb000fd1 	bl	6d94 <__aeabi_fmul>
    2e4c:	e1a01008 	mov	r1, r8
    2e50:	e1a05000 	mov	r5, r0
    2e54:	e2880102 	add	r0, r8, #-2147483648	; 0x80000000
    2e58:	eb000fcd 	bl	6d94 <__aeabi_fmul>
    2e5c:	e1a01004 	mov	r1, r4
    2e60:	e1a08000 	mov	r8, r0
    2e64:	e1a00007 	mov	r0, r7
    2e68:	eb000f20 	bl	6af0 <__aeabi_fsub>
    2e6c:	e1a01004 	mov	r1, r4
    2e70:	e1a09000 	mov	r9, r0
    2e74:	e1a00007 	mov	r0, r7
    2e78:	eb000f1d 	bl	6af4 <__addsf3>
    2e7c:	e1a01000 	mov	r1, r0
    2e80:	e1a00009 	mov	r0, r9
    2e84:	eb000fc2 	bl	6d94 <__aeabi_fmul>
    2e88:	e1a01000 	mov	r1, r0
    2e8c:	e1a00008 	mov	r0, r8
    2e90:	eb000f16 	bl	6af0 <__aeabi_fsub>
    2e94:	e1a01000 	mov	r1, r0
    2e98:	e1a00005 	mov	r0, r5
    2e9c:	eb000f13 	bl	6af0 <__aeabi_fsub>
    2ea0:	eb000013 	bl	2ef4 <__ieee754_sqrtf>
    2ea4:	e1a07000 	mov	r7, r0
    2ea8:	eaffffc1 	b	2db4 <__ieee754_hypotf+0x138>
    2eac:	e28654de 	add	r5, r6, #-570425344	; 0xde000000
    2eb0:	e28344de 	add	r4, r3, #-570425344	; 0xde000000
    2eb4:	e1a07004 	mov	r7, r4
    2eb8:	e1a08005 	mov	r8, r5
    2ebc:	e3a06044 	mov	r6, #68	; 0x44
    2ec0:	eaffff80 	b	2cc8 <__ieee754_hypotf+0x4c>
    2ec4:	e2844422 	add	r4, r4, #570425344	; 0x22000000
    2ec8:	e2855422 	add	r5, r5, #570425344	; 0x22000000
    2ecc:	e1a07004 	mov	r7, r4
    2ed0:	e1a08005 	mov	r8, r5
    2ed4:	e2466044 	sub	r6, r6, #68	; 0x44
    2ed8:	eaffff89 	b	2d04 <__ieee754_hypotf+0x88>
    2edc:	e59f700c 	ldr	r7, [pc, #12]	; 2ef0 <__ieee754_hypotf+0x274>
    2ee0:	eaffffc7 	b	2e04 <__ieee754_hypotf+0x188>
    2ee4:	58800000 	.word	0x58800000
    2ee8:	7e800000 	.word	0x7e800000
    2eec:	7f7fffff 	.word	0x7f7fffff
    2ef0:	7f800000 	.word	0x7f800000

00002ef4 <__ieee754_sqrtf>:
    2ef4:	e59f10fc 	ldr	r1, [pc, #252]	; 2ff8 <__ieee754_sqrtf+0x104>
    2ef8:	e3c02102 	bic	r2, r0, #-2147483648	; 0x80000000
    2efc:	e1520001 	cmp	r2, r1
    2f00:	e92d4010 	push	{r4, lr}
    2f04:	e1a04000 	mov	r4, r0
    2f08:	8a00002d 	bhi	2fc4 <__ieee754_sqrtf+0xd0>
    2f0c:	e3520000 	cmp	r2, #0
    2f10:	0a000029 	beq	2fbc <__ieee754_sqrtf+0xc8>
    2f14:	e3500000 	cmp	r0, #0
    2f18:	e1a03000 	mov	r3, r0
    2f1c:	ba00002e 	blt	2fdc <__ieee754_sqrtf+0xe8>
    2f20:	e3520502 	cmp	r2, #8388608	; 0x800000
    2f24:	e1a00bc0 	asr	r0, r0, #23
    2f28:	2a000008 	bcs	2f50 <__ieee754_sqrtf+0x5c>
    2f2c:	e2132502 	ands	r2, r3, #8388608	; 0x800000
    2f30:	0a000001 	beq	2f3c <__ieee754_sqrtf+0x48>
    2f34:	ea00002d 	b	2ff0 <__ieee754_sqrtf+0xfc>
    2f38:	e1a02001 	mov	r2, r1
    2f3c:	e1a03083 	lsl	r3, r3, #1
    2f40:	e3130502 	tst	r3, #8388608	; 0x800000
    2f44:	e2821001 	add	r1, r2, #1
    2f48:	0afffffa 	beq	2f38 <__ieee754_sqrtf+0x44>
    2f4c:	e0400002 	sub	r0, r0, r2
    2f50:	e3a04000 	mov	r4, #0
    2f54:	e3a0c019 	mov	ip, #25
    2f58:	e1a01004 	mov	r1, r4
    2f5c:	e3a02401 	mov	r2, #16777216	; 0x1000000
    2f60:	e3c334ff 	bic	r3, r3, #-16777216	; 0xff000000
    2f64:	e240007f 	sub	r0, r0, #127	; 0x7f
    2f68:	e3c33502 	bic	r3, r3, #8388608	; 0x800000
    2f6c:	e3100001 	tst	r0, #1
    2f70:	e3833502 	orr	r3, r3, #8388608	; 0x800000
    2f74:	11a03083 	lslne	r3, r3, #1
    2f78:	e1a000c0 	asr	r0, r0, #1
    2f7c:	e1a03083 	lsl	r3, r3, #1
    2f80:	e081e002 	add	lr, r1, r2
    2f84:	e15e0003 	cmp	lr, r3
    2f88:	d043300e 	suble	r3, r3, lr
    2f8c:	d08e1002 	addle	r1, lr, r2
    2f90:	d0844002 	addle	r4, r4, r2
    2f94:	e25cc001 	subs	ip, ip, #1
    2f98:	e1a03083 	lsl	r3, r3, #1
    2f9c:	e1a020a2 	lsr	r2, r2, #1
    2fa0:	1afffff6 	bne	2f80 <__ieee754_sqrtf+0x8c>
    2fa4:	e3530000 	cmp	r3, #0
    2fa8:	12844001 	addne	r4, r4, #1
    2fac:	13c44001 	bicne	r4, r4, #1
    2fb0:	e1a040c4 	asr	r4, r4, #1
    2fb4:	e284443f 	add	r4, r4, #1056964608	; 0x3f000000
    2fb8:	e0840b80 	add	r0, r4, r0, lsl #23
    2fbc:	e8bd4010 	pop	{r4, lr}
    2fc0:	e12fff1e 	bx	lr
    2fc4:	e1a01000 	mov	r1, r0
    2fc8:	eb000f71 	bl	6d94 <__aeabi_fmul>
    2fcc:	e1a01004 	mov	r1, r4
    2fd0:	eb000ec7 	bl	6af4 <__addsf3>
    2fd4:	e8bd4010 	pop	{r4, lr}
    2fd8:	e12fff1e 	bx	lr
    2fdc:	e1a01004 	mov	r1, r4
    2fe0:	eb000ec2 	bl	6af0 <__aeabi_fsub>
    2fe4:	e1a01000 	mov	r1, r0
    2fe8:	eb000fcf 	bl	6f2c <__aeabi_fdiv>
    2fec:	eafffff2 	b	2fbc <__ieee754_sqrtf+0xc8>
    2ff0:	e3e02000 	mvn	r2, #0
    2ff4:	eaffffd4 	b	2f4c <__ieee754_sqrtf+0x58>
    2ff8:	7f7fffff 	.word	0x7f7fffff
    2ffc:	00000000 	.word	0x00000000

00003000 <__kernel_cos>:
    3000:	e92d4ff0 	push	{r4, r5, r6, r7, r8, r9, sl, fp, lr}
    3004:	e3c16102 	bic	r6, r1, #-2147483648	; 0x80000000
    3008:	e35605f9 	cmp	r6, #1044381696	; 0x3e400000
    300c:	e24dd014 	sub	sp, sp, #20
    3010:	e1a04001 	mov	r4, r1
    3014:	e1a0a002 	mov	sl, r2
    3018:	e1a0b003 	mov	fp, r3
    301c:	e1a05000 	mov	r5, r0
    3020:	aa00004f 	bge	3164 <__kernel_cos+0x164>
    3024:	eb000e70 	bl	69ec <__aeabi_d2iz>
    3028:	e3500000 	cmp	r0, #0
    302c:	0a0000af 	beq	32f0 <__kernel_cos+0x2f0>
    3030:	e1a02005 	mov	r2, r5
    3034:	e1a03004 	mov	r3, r4
    3038:	e1a00005 	mov	r0, r5
    303c:	e1a01004 	mov	r1, r4
    3040:	eb000cf1 	bl	640c <__aeabi_dmul>
    3044:	e1a08000 	mov	r8, r0
    3048:	e1a09001 	mov	r9, r1
    304c:	e28f3fad 	add	r3, pc, #692	; 0x2b4
    3050:	e893000c 	ldm	r3, {r2, r3}
    3054:	eb000cec 	bl	640c <__aeabi_dmul>
    3058:	e28f3e2b 	add	r3, pc, #688	; 0x2b0
    305c:	e893000c 	ldm	r3, {r2, r3}
    3060:	eb000be5 	bl	5ffc <__adddf3>
    3064:	e1a02008 	mov	r2, r8
    3068:	e1a03009 	mov	r3, r9
    306c:	eb000ce6 	bl	640c <__aeabi_dmul>
    3070:	e28f3e2a 	add	r3, pc, #672	; 0x2a0
    3074:	e893000c 	ldm	r3, {r2, r3}
    3078:	eb000bde 	bl	5ff8 <__aeabi_dsub>
    307c:	e1a02008 	mov	r2, r8
    3080:	e1a03009 	mov	r3, r9
    3084:	eb000ce0 	bl	640c <__aeabi_dmul>
    3088:	e28f3e29 	add	r3, pc, #656	; 0x290
    308c:	e893000c 	ldm	r3, {r2, r3}
    3090:	eb000bd9 	bl	5ffc <__adddf3>
    3094:	e1a02008 	mov	r2, r8
    3098:	e1a03009 	mov	r3, r9
    309c:	eb000cda 	bl	640c <__aeabi_dmul>
    30a0:	e28f3d0a 	add	r3, pc, #640	; 0x280
    30a4:	e893000c 	ldm	r3, {r2, r3}
    30a8:	eb000bd2 	bl	5ff8 <__aeabi_dsub>
    30ac:	e1a02008 	mov	r2, r8
    30b0:	e1a03009 	mov	r3, r9
    30b4:	eb000cd4 	bl	640c <__aeabi_dmul>
    30b8:	e28f3e27 	add	r3, pc, #624	; 0x270
    30bc:	e893000c 	ldm	r3, {r2, r3}
    30c0:	eb000bcd 	bl	5ffc <__adddf3>
    30c4:	e1a02008 	mov	r2, r8
    30c8:	e1a03009 	mov	r3, r9
    30cc:	eb000cce 	bl	640c <__aeabi_dmul>
    30d0:	e88d0003 	stm	sp, {r0, r1}
    30d4:	e3a02000 	mov	r2, #0
    30d8:	e59f3258 	ldr	r3, [pc, #600]	; 3338 <__kernel_cos+0x338>
    30dc:	e1a00008 	mov	r0, r8
    30e0:	e1a01009 	mov	r1, r9
    30e4:	eb000cc8 	bl	640c <__aeabi_dmul>
    30e8:	e89d000c 	ldm	sp, {r2, r3}
    30ec:	e1a06000 	mov	r6, r0
    30f0:	e1a07001 	mov	r7, r1
    30f4:	e1a00008 	mov	r0, r8
    30f8:	e1a01009 	mov	r1, r9
    30fc:	eb000cc2 	bl	640c <__aeabi_dmul>
    3100:	e1a0200a 	mov	r2, sl
    3104:	e1a08000 	mov	r8, r0
    3108:	e1a09001 	mov	r9, r1
    310c:	e1a0300b 	mov	r3, fp
    3110:	e1a00005 	mov	r0, r5
    3114:	e1a01004 	mov	r1, r4
    3118:	eb000cbb 	bl	640c <__aeabi_dmul>
    311c:	e1a02000 	mov	r2, r0
    3120:	e1a03001 	mov	r3, r1
    3124:	e1a00008 	mov	r0, r8
    3128:	e1a01009 	mov	r1, r9
    312c:	eb000bb1 	bl	5ff8 <__aeabi_dsub>
    3130:	e1a02000 	mov	r2, r0
    3134:	e1a03001 	mov	r3, r1
    3138:	e1a00006 	mov	r0, r6
    313c:	e1a01007 	mov	r1, r7
    3140:	eb000bac 	bl	5ff8 <__aeabi_dsub>
    3144:	e1a02000 	mov	r2, r0
    3148:	e1a03001 	mov	r3, r1
    314c:	e3a00000 	mov	r0, #0
    3150:	e59f11e4 	ldr	r1, [pc, #484]	; 333c <__kernel_cos+0x33c>
    3154:	eb000ba7 	bl	5ff8 <__aeabi_dsub>
    3158:	e28dd014 	add	sp, sp, #20
    315c:	e8bd4ff0 	pop	{r4, r5, r6, r7, r8, r9, sl, fp, lr}
    3160:	e12fff1e 	bx	lr
    3164:	e1a02000 	mov	r2, r0
    3168:	e1a03001 	mov	r3, r1
    316c:	eb000ca6 	bl	640c <__aeabi_dmul>
    3170:	e1a08000 	mov	r8, r0
    3174:	e1a09001 	mov	r9, r1
    3178:	e28f3f62 	add	r3, pc, #392	; 0x188
    317c:	e893000c 	ldm	r3, {r2, r3}
    3180:	eb000ca1 	bl	640c <__aeabi_dmul>
    3184:	e28f3f61 	add	r3, pc, #388	; 0x184
    3188:	e893000c 	ldm	r3, {r2, r3}
    318c:	eb000b9a 	bl	5ffc <__adddf3>
    3190:	e1a02008 	mov	r2, r8
    3194:	e1a03009 	mov	r3, r9
    3198:	eb000c9b 	bl	640c <__aeabi_dmul>
    319c:	e28f3f5d 	add	r3, pc, #372	; 0x174
    31a0:	e893000c 	ldm	r3, {r2, r3}
    31a4:	eb000b93 	bl	5ff8 <__aeabi_dsub>
    31a8:	e1a02008 	mov	r2, r8
    31ac:	e1a03009 	mov	r3, r9
    31b0:	eb000c95 	bl	640c <__aeabi_dmul>
    31b4:	e28f3f59 	add	r3, pc, #356	; 0x164
    31b8:	e893000c 	ldm	r3, {r2, r3}
    31bc:	eb000b8e 	bl	5ffc <__adddf3>
    31c0:	e1a02008 	mov	r2, r8
    31c4:	e1a03009 	mov	r3, r9
    31c8:	eb000c8f 	bl	640c <__aeabi_dmul>
    31cc:	e28f3f55 	add	r3, pc, #340	; 0x154
    31d0:	e893000c 	ldm	r3, {r2, r3}
    31d4:	eb000b87 	bl	5ff8 <__aeabi_dsub>
    31d8:	e1a02008 	mov	r2, r8
    31dc:	e1a03009 	mov	r3, r9
    31e0:	eb000c89 	bl	640c <__aeabi_dmul>
    31e4:	e28f3f51 	add	r3, pc, #324	; 0x144
    31e8:	e893000c 	ldm	r3, {r2, r3}
    31ec:	eb000b82 	bl	5ffc <__adddf3>
    31f0:	e1a03009 	mov	r3, r9
    31f4:	e1a02008 	mov	r2, r8
    31f8:	eb000c83 	bl	640c <__aeabi_dmul>
    31fc:	e59f313c 	ldr	r3, [pc, #316]	; 3340 <__kernel_cos+0x340>
    3200:	e1560003 	cmp	r6, r3
    3204:	e88d0003 	stm	sp, {r0, r1}
    3208:	daffffb1 	ble	30d4 <__kernel_cos+0xd4>
    320c:	e59f3130 	ldr	r3, [pc, #304]	; 3344 <__kernel_cos+0x344>
    3210:	e1560003 	cmp	r6, r3
    3214:	e3a02000 	mov	r2, #0
    3218:	ca00002e 	bgt	32d8 <__kernel_cos+0x2d8>
    321c:	e2463602 	sub	r3, r6, #2097152	; 0x200000
    3220:	e3a00000 	mov	r0, #0
    3224:	e59f1110 	ldr	r1, [pc, #272]	; 333c <__kernel_cos+0x33c>
    3228:	e1a06002 	mov	r6, r2
    322c:	e1a07003 	mov	r7, r3
    3230:	eb000b70 	bl	5ff8 <__aeabi_dsub>
    3234:	e58d0008 	str	r0, [sp, #8]
    3238:	e58d100c 	str	r1, [sp, #12]
    323c:	e3a02000 	mov	r2, #0
    3240:	e59f30f0 	ldr	r3, [pc, #240]	; 3338 <__kernel_cos+0x338>
    3244:	e1a00008 	mov	r0, r8
    3248:	e1a01009 	mov	r1, r9
    324c:	eb000c6e 	bl	640c <__aeabi_dmul>
    3250:	e1a02006 	mov	r2, r6
    3254:	e1a03007 	mov	r3, r7
    3258:	eb000b66 	bl	5ff8 <__aeabi_dsub>
    325c:	e89d000c 	ldm	sp, {r2, r3}
    3260:	e1a06000 	mov	r6, r0
    3264:	e1a07001 	mov	r7, r1
    3268:	e1a00008 	mov	r0, r8
    326c:	e1a01009 	mov	r1, r9
    3270:	eb000c65 	bl	640c <__aeabi_dmul>
    3274:	e1a0200a 	mov	r2, sl
    3278:	e1a08000 	mov	r8, r0
    327c:	e1a09001 	mov	r9, r1
    3280:	e1a0300b 	mov	r3, fp
    3284:	e1a00005 	mov	r0, r5
    3288:	e1a01004 	mov	r1, r4
    328c:	eb000c5e 	bl	640c <__aeabi_dmul>
    3290:	e1a02000 	mov	r2, r0
    3294:	e1a03001 	mov	r3, r1
    3298:	e1a00008 	mov	r0, r8
    329c:	e1a01009 	mov	r1, r9
    32a0:	eb000b54 	bl	5ff8 <__aeabi_dsub>
    32a4:	e1a02000 	mov	r2, r0
    32a8:	e1a03001 	mov	r3, r1
    32ac:	e1a00006 	mov	r0, r6
    32b0:	e1a01007 	mov	r1, r7
    32b4:	eb000b4f 	bl	5ff8 <__aeabi_dsub>
    32b8:	e1a02000 	mov	r2, r0
    32bc:	e1a03001 	mov	r3, r1
    32c0:	e28d1008 	add	r1, sp, #8
    32c4:	e8910003 	ldm	r1, {r0, r1}
    32c8:	eb000b4a 	bl	5ff8 <__aeabi_dsub>
    32cc:	e28dd014 	add	sp, sp, #20
    32d0:	e8bd4ff0 	pop	{r4, r5, r6, r7, r8, r9, sl, fp, lr}
    32d4:	e12fff1e 	bx	lr
    32d8:	e59f3068 	ldr	r3, [pc, #104]	; 3348 <__kernel_cos+0x348>
    32dc:	e3a06000 	mov	r6, #0
    32e0:	e58d2008 	str	r2, [sp, #8]
    32e4:	e58d300c 	str	r3, [sp, #12]
    32e8:	e59f705c 	ldr	r7, [pc, #92]	; 334c <__kernel_cos+0x34c>
    32ec:	eaffffd2 	b	323c <__kernel_cos+0x23c>
    32f0:	e3a00000 	mov	r0, #0
    32f4:	e59f1040 	ldr	r1, [pc, #64]	; 333c <__kernel_cos+0x33c>
    32f8:	e28dd014 	add	sp, sp, #20
    32fc:	e8bd4ff0 	pop	{r4, r5, r6, r7, r8, r9, sl, fp, lr}
    3300:	e12fff1e 	bx	lr
    3304:	e1a00000 	nop			; (mov r0, r0)
    3308:	be8838d4 	.word	0xbe8838d4
    330c:	bda8fae9 	.word	0xbda8fae9
    3310:	bdb4b1c4 	.word	0xbdb4b1c4
    3314:	3e21ee9e 	.word	0x3e21ee9e
    3318:	809c52ad 	.word	0x809c52ad
    331c:	3e927e4f 	.word	0x3e927e4f
    3320:	19cb1590 	.word	0x19cb1590
    3324:	3efa01a0 	.word	0x3efa01a0
    3328:	16c15177 	.word	0x16c15177
    332c:	3f56c16c 	.word	0x3f56c16c
    3330:	5555554c 	.word	0x5555554c
    3334:	3fa55555 	.word	0x3fa55555
    3338:	3fe00000 	.word	0x3fe00000
    333c:	3ff00000 	.word	0x3ff00000
    3340:	3fd33332 	.word	0x3fd33332
    3344:	3fe90000 	.word	0x3fe90000
    3348:	3fe70000 	.word	0x3fe70000
    334c:	3fd20000 	.word	0x3fd20000

00003350 <__kernel_rem_pio2>:
    3350:	e92d4ff0 	push	{r4, r5, r6, r7, r8, r9, sl, fp, lr}
    3354:	e1a04003 	mov	r4, r3
    3358:	e24ddf9b 	sub	sp, sp, #620	; 0x26c
    335c:	e59fcc80 	ldr	ip, [pc, #3200]	; 3fe4 <__kernel_rem_pio2+0xc94>
    3360:	e58d3028 	str	r3, [sp, #40]	; 0x28
    3364:	e2423003 	sub	r3, r2, #3
    3368:	e0ccec93 	smull	lr, ip, r3, ip
    336c:	e1a03fc3 	asr	r3, r3, #31
    3370:	e063314c 	rsb	r3, r3, ip, asr #2
    3374:	e1c3cfc3 	bic	ip, r3, r3, asr #31
    3378:	e59fec68 	ldr	lr, [pc, #3176]	; 3fe8 <__kernel_rem_pio2+0xc98>
    337c:	e59d3290 	ldr	r3, [sp, #656]	; 0x290
    3380:	e79ee103 	ldr	lr, [lr, r3, lsl #2]
    3384:	e58dc02c 	str	ip, [sp, #44]	; 0x2c
    3388:	e1a0500e 	mov	r5, lr
    338c:	e28c3001 	add	r3, ip, #1
    3390:	e58de01c 	str	lr, [sp, #28]
    3394:	e1a0e00c 	mov	lr, ip
    3398:	e244c001 	sub	ip, r4, #1
    339c:	e1a0400c 	mov	r4, ip
    33a0:	e0433103 	sub	r3, r3, r3, lsl #2
    33a4:	e58dc00c 	str	ip, [sp, #12]
    33a8:	e0823183 	add	r3, r2, r3, lsl #3
    33ac:	e095c00c 	adds	ip, r5, ip
    33b0:	e58d0018 	str	r0, [sp, #24]
    33b4:	e58d1020 	str	r1, [sp, #32]
    33b8:	e58d3010 	str	r3, [sp, #16]
    33bc:	e04e5004 	sub	r5, lr, r4
    33c0:	4a000011 	bmi	340c <__kernel_rem_pio2+0xbc>
    33c4:	e085c00c 	add	ip, r5, ip
    33c8:	e3a06000 	mov	r6, #0
    33cc:	e3a07000 	mov	r7, #0
    33d0:	e28c4001 	add	r4, ip, #1
    33d4:	e28d8088 	add	r8, sp, #136	; 0x88
    33d8:	e59d9294 	ldr	r9, [sp, #660]	; 0x294
    33dc:	ea000005 	b	33f8 <__kernel_rem_pio2+0xa8>
    33e0:	e7990105 	ldr	r0, [r9, r5, lsl #2]
    33e4:	eb000bd1 	bl	6330 <__aeabi_i2d>
    33e8:	e2855001 	add	r5, r5, #1
    33ec:	e1550004 	cmp	r5, r4
    33f0:	e8a80003 	stmia	r8!, {r0, r1}
    33f4:	0a000004 	beq	340c <__kernel_rem_pio2+0xbc>
    33f8:	e3550000 	cmp	r5, #0
    33fc:	aafffff7 	bge	33e0 <__kernel_rem_pio2+0x90>
    3400:	e1a00006 	mov	r0, r6
    3404:	e1a01007 	mov	r1, r7
    3408:	eafffff6 	b	33e8 <__kernel_rem_pio2+0x98>
    340c:	e59d301c 	ldr	r3, [sp, #28]
    3410:	e3530000 	cmp	r3, #0
    3414:	ba0002ee 	blt	3fd4 <__kernel_rem_pio2+0xc84>
    3418:	e59d301c 	ldr	r3, [sp, #28]
    341c:	e283b001 	add	fp, r3, #1
    3420:	e59d3028 	ldr	r3, [sp, #40]	; 0x28
    3424:	e28d2088 	add	r2, sp, #136	; 0x88
    3428:	e1a03183 	lsl	r3, r3, #3
    342c:	e0829003 	add	r9, r2, r3
    3430:	e59d2018 	ldr	r2, [sp, #24]
    3434:	e28daf72 	add	sl, sp, #456	; 0x1c8
    3438:	e58d3024 	str	r3, [sp, #36]	; 0x24
    343c:	e08ab18b 	add	fp, sl, fp, lsl #3
    3440:	e0828003 	add	r8, r2, r3
    3444:	e59d300c 	ldr	r3, [sp, #12]
    3448:	e3530000 	cmp	r3, #0
    344c:	ba000243 	blt	3d60 <__kernel_rem_pio2+0xa10>
    3450:	e1a05009 	mov	r5, r9
    3454:	e3a06000 	mov	r6, #0
    3458:	e3a07000 	mov	r7, #0
    345c:	e59d4018 	ldr	r4, [sp, #24]
    3460:	e935000c 	ldmdb	r5!, {r2, r3}
    3464:	e8b40003 	ldm	r4!, {r0, r1}
    3468:	eb000be7 	bl	640c <__aeabi_dmul>
    346c:	e1a02000 	mov	r2, r0
    3470:	e1a03001 	mov	r3, r1
    3474:	e1a00006 	mov	r0, r6
    3478:	e1a01007 	mov	r1, r7
    347c:	eb000ade 	bl	5ffc <__adddf3>
    3480:	e1540008 	cmp	r4, r8
    3484:	e1a06000 	mov	r6, r0
    3488:	e1a07001 	mov	r7, r1
    348c:	1afffff3 	bne	3460 <__kernel_rem_pio2+0x110>
    3490:	e8aa00c0 	stmia	sl!, {r6, r7}
    3494:	e15a000b 	cmp	sl, fp
    3498:	e2899008 	add	r9, r9, #8
    349c:	1affffe8 	bne	3444 <__kernel_rem_pio2+0xf4>
    34a0:	e59d301c 	ldr	r3, [sp, #28]
    34a4:	e59d1018 	ldr	r1, [sp, #24]
    34a8:	e59d0024 	ldr	r0, [sp, #36]	; 0x24
    34ac:	e58d3000 	str	r3, [sp]
    34b0:	e1a03103 	lsl	r3, r3, #2
    34b4:	e2432004 	sub	r2, r3, #4
    34b8:	e081b000 	add	fp, r1, r0
    34bc:	e28d1038 	add	r1, sp, #56	; 0x38
    34c0:	e0812002 	add	r2, r1, r2
    34c4:	e0813003 	add	r3, r1, r3
    34c8:	e58d2030 	str	r2, [sp, #48]	; 0x30
    34cc:	e58d3034 	str	r3, [sp, #52]	; 0x34
    34d0:	e59d2000 	ldr	r2, [sp]
    34d4:	e28d1f9a 	add	r1, sp, #616	; 0x268
    34d8:	e0813182 	add	r3, r1, r2, lsl #3
    34dc:	e3520000 	cmp	r2, #0
    34e0:	e24350a0 	sub	r5, r3, #160	; 0xa0
    34e4:	e8950030 	ldm	r5, {r4, r5}
    34e8:	da00001d 	ble	3564 <__kernel_rem_pio2+0x214>
    34ec:	e28daf72 	add	sl, sp, #456	; 0x1c8
    34f0:	e08a8182 	add	r8, sl, r2, lsl #3
    34f4:	e28d9034 	add	r9, sp, #52	; 0x34
    34f8:	e3a02000 	mov	r2, #0
    34fc:	e59f3ae8 	ldr	r3, [pc, #2792]	; 3fec <__kernel_rem_pio2+0xc9c>
    3500:	e1a00004 	mov	r0, r4
    3504:	e1a01005 	mov	r1, r5
    3508:	eb000bbf 	bl	640c <__aeabi_dmul>
    350c:	eb000d36 	bl	69ec <__aeabi_d2iz>
    3510:	eb000b86 	bl	6330 <__aeabi_i2d>
    3514:	e3a02000 	mov	r2, #0
    3518:	e59f3ad0 	ldr	r3, [pc, #2768]	; 3ff0 <__kernel_rem_pio2+0xca0>
    351c:	e1a06000 	mov	r6, r0
    3520:	e1a07001 	mov	r7, r1
    3524:	eb000bb8 	bl	640c <__aeabi_dmul>
    3528:	e1a02000 	mov	r2, r0
    352c:	e1a03001 	mov	r3, r1
    3530:	e1a00004 	mov	r0, r4
    3534:	e1a01005 	mov	r1, r5
    3538:	eb000aae 	bl	5ff8 <__aeabi_dsub>
    353c:	eb000d2a 	bl	69ec <__aeabi_d2iz>
    3540:	e938000c 	ldmdb	r8!, {r2, r3}
    3544:	e5a90004 	str	r0, [r9, #4]!
    3548:	e1a01007 	mov	r1, r7
    354c:	e1a00006 	mov	r0, r6
    3550:	eb000aa9 	bl	5ffc <__adddf3>
    3554:	e158000a 	cmp	r8, sl
    3558:	e1a04000 	mov	r4, r0
    355c:	e1a05001 	mov	r5, r1
    3560:	1affffe4 	bne	34f8 <__kernel_rem_pio2+0x1a8>
    3564:	e59d9010 	ldr	r9, [sp, #16]
    3568:	e1a00004 	mov	r0, r4
    356c:	e1a01005 	mov	r1, r5
    3570:	e1a02009 	mov	r2, r9
    3574:	eb000397 	bl	43d8 <scalbn>
    3578:	e3a02000 	mov	r2, #0
    357c:	e3a035ff 	mov	r3, #1069547520	; 0x3fc00000
    3580:	e1a04000 	mov	r4, r0
    3584:	e1a05001 	mov	r5, r1
    3588:	eb000b9f 	bl	640c <__aeabi_dmul>
    358c:	eb000327 	bl	4230 <floor>
    3590:	e3a02000 	mov	r2, #0
    3594:	e59f3a58 	ldr	r3, [pc, #2648]	; 3ff4 <__kernel_rem_pio2+0xca4>
    3598:	eb000b9b 	bl	640c <__aeabi_dmul>
    359c:	e1a02000 	mov	r2, r0
    35a0:	e1a03001 	mov	r3, r1
    35a4:	e1a00004 	mov	r0, r4
    35a8:	e1a01005 	mov	r1, r5
    35ac:	eb000a91 	bl	5ff8 <__aeabi_dsub>
    35b0:	e1a05001 	mov	r5, r1
    35b4:	e1a04000 	mov	r4, r0
    35b8:	eb000d0b 	bl	69ec <__aeabi_d2iz>
    35bc:	e1a08000 	mov	r8, r0
    35c0:	eb000b5a 	bl	6330 <__aeabi_i2d>
    35c4:	e1a02000 	mov	r2, r0
    35c8:	e1a03001 	mov	r3, r1
    35cc:	e1a00004 	mov	r0, r4
    35d0:	e1a01005 	mov	r1, r5
    35d4:	eb000a87 	bl	5ff8 <__aeabi_dsub>
    35d8:	e3590000 	cmp	r9, #0
    35dc:	e1a06000 	mov	r6, r0
    35e0:	e1a07001 	mov	r7, r1
    35e4:	da0000aa 	ble	3894 <__kernel_rem_pio2+0x544>
    35e8:	e59d3000 	ldr	r3, [sp]
    35ec:	e28d1f9a 	add	r1, sp, #616	; 0x268
    35f0:	e2433001 	sub	r3, r3, #1
    35f4:	e0813103 	add	r3, r1, r3, lsl #2
    35f8:	e5135230 	ldr	r5, [r3, #-560]	; 0xfffffdd0
    35fc:	e2692018 	rsb	r2, r9, #24
    3600:	e1a01255 	asr	r1, r5, r2
    3604:	e0455211 	sub	r5, r5, r1, lsl r2
    3608:	e2692017 	rsb	r2, r9, #23
    360c:	e5035230 	str	r5, [r3, #-560]	; 0xfffffdd0
    3610:	e0888001 	add	r8, r8, r1
    3614:	e1a05255 	asr	r5, r5, r2
    3618:	e3550000 	cmp	r5, #0
    361c:	da000043 	ble	3730 <__kernel_rem_pio2+0x3e0>
    3620:	e59d3000 	ldr	r3, [sp]
    3624:	e3530000 	cmp	r3, #0
    3628:	e2888001 	add	r8, r8, #1
    362c:	da0001ce 	ble	3d6c <__kernel_rem_pio2+0xa1c>
    3630:	e59d4038 	ldr	r4, [sp, #56]	; 0x38
    3634:	e3540000 	cmp	r4, #0
    3638:	1a000262 	bne	3fc8 <__kernel_rem_pio2+0xc78>
    363c:	e59d3000 	ldr	r3, [sp]
    3640:	e3530001 	cmp	r3, #1
    3644:	c3a03001 	movgt	r3, #1
    3648:	c28d203c 	addgt	r2, sp, #60	; 0x3c
    364c:	da0001f0 	ble	3e14 <__kernel_rem_pio2+0xac4>
    3650:	e4924004 	ldr	r4, [r2], #4
    3654:	e3540000 	cmp	r4, #0
    3658:	0a0001e9 	beq	3e04 <__kernel_rem_pio2+0xab4>
    365c:	e2832001 	add	r2, r3, #1
    3660:	e59d1000 	ldr	r1, [sp]
    3664:	e1510002 	cmp	r1, r2
    3668:	e28d1f9a 	add	r1, sp, #616	; 0x268
    366c:	e2644401 	rsb	r4, r4, #16777216	; 0x1000000
    3670:	e0811103 	add	r1, r1, r3, lsl #2
    3674:	e5014230 	str	r4, [r1, #-560]	; 0xfffffdd0
    3678:	da000013 	ble	36cc <__kernel_rem_pio2+0x37c>
    367c:	e3e014ff 	mvn	r1, #-16777216	; 0xff000000
    3680:	e28d0f9a 	add	r0, sp, #616	; 0x268
    3684:	e0802102 	add	r2, r0, r2, lsl #2
    3688:	e5120230 	ldr	r0, [r2, #-560]	; 0xfffffdd0
    368c:	e59dc000 	ldr	ip, [sp]
    3690:	e2833002 	add	r3, r3, #2
    3694:	e0410000 	sub	r0, r1, r0
    3698:	e15c0003 	cmp	ip, r3
    369c:	e5020230 	str	r0, [r2, #-560]	; 0xfffffdd0
    36a0:	da000009 	ble	36cc <__kernel_rem_pio2+0x37c>
    36a4:	e28d2038 	add	r2, sp, #56	; 0x38
    36a8:	e0823103 	add	r3, r2, r3, lsl #2
    36ac:	e59d2000 	ldr	r2, [sp]
    36b0:	e28d0038 	add	r0, sp, #56	; 0x38
    36b4:	e0800102 	add	r0, r0, r2, lsl #2
    36b8:	e5932000 	ldr	r2, [r3]
    36bc:	e0412002 	sub	r2, r1, r2
    36c0:	e4832004 	str	r2, [r3], #4
    36c4:	e1530000 	cmp	r3, r0
    36c8:	1afffffa 	bne	36b8 <__kernel_rem_pio2+0x368>
    36cc:	e59d3010 	ldr	r3, [sp, #16]
    36d0:	e3530000 	cmp	r3, #0
    36d4:	c3a04001 	movgt	r4, #1
    36d8:	ca0001a7 	bgt	3d7c <__kernel_rem_pio2+0xa2c>
    36dc:	e3550002 	cmp	r5, #2
    36e0:	1a000012 	bne	3730 <__kernel_rem_pio2+0x3e0>
    36e4:	e1a02006 	mov	r2, r6
    36e8:	e1a03007 	mov	r3, r7
    36ec:	e3a00000 	mov	r0, #0
    36f0:	e59f1900 	ldr	r1, [pc, #2304]	; 3ff8 <__kernel_rem_pio2+0xca8>
    36f4:	eb000a3f 	bl	5ff8 <__aeabi_dsub>
    36f8:	e1a06000 	mov	r6, r0
    36fc:	e1a07001 	mov	r7, r1
    3700:	e59d2010 	ldr	r2, [sp, #16]
    3704:	e3a00000 	mov	r0, #0
    3708:	e59f18e8 	ldr	r1, [pc, #2280]	; 3ff8 <__kernel_rem_pio2+0xca8>
    370c:	eb000331 	bl	43d8 <scalbn>
    3710:	e1a02000 	mov	r2, r0
    3714:	e1a03001 	mov	r3, r1
    3718:	e1a00006 	mov	r0, r6
    371c:	e1a01007 	mov	r1, r7
    3720:	eb000a34 	bl	5ff8 <__aeabi_dsub>
    3724:	e3a05002 	mov	r5, #2
    3728:	e1a06000 	mov	r6, r0
    372c:	e1a07001 	mov	r7, r1
    3730:	e3a02000 	mov	r2, #0
    3734:	e3a03000 	mov	r3, #0
    3738:	e1a00006 	mov	r0, r6
    373c:	e1a01007 	mov	r1, r7
    3740:	eb000c8b 	bl	6974 <__aeabi_dcmpeq>
    3744:	e3500000 	cmp	r0, #0
    3748:	0a0001cc 	beq	3e80 <__kernel_rem_pio2+0xb30>
    374c:	e59d3000 	ldr	r3, [sp]
    3750:	e59d201c 	ldr	r2, [sp, #28]
    3754:	e2439001 	sub	r9, r3, #1
    3758:	e1520009 	cmp	r2, r9
    375c:	ca000009 	bgt	3788 <__kernel_rem_pio2+0x438>
    3760:	e3a02000 	mov	r2, #0
    3764:	e28d1038 	add	r1, sp, #56	; 0x38
    3768:	e59d0034 	ldr	r0, [sp, #52]	; 0x34
    376c:	e0813103 	add	r3, r1, r3, lsl #2
    3770:	e5331004 	ldr	r1, [r3, #-4]!
    3774:	e1530000 	cmp	r3, r0
    3778:	e1822001 	orr	r2, r2, r1
    377c:	1afffffb 	bne	3770 <__kernel_rem_pio2+0x420>
    3780:	e3520000 	cmp	r2, #0
    3784:	1a00005d 	bne	3900 <__kernel_rem_pio2+0x5b0>
    3788:	e59d201c 	ldr	r2, [sp, #28]
    378c:	e28d3f9a 	add	r3, sp, #616	; 0x268
    3790:	e0833102 	add	r3, r3, r2, lsl #2
    3794:	e5133234 	ldr	r3, [r3, #-564]	; 0xfffffdcc
    3798:	e3530000 	cmp	r3, #0
    379c:	1a0001e0 	bne	3f24 <__kernel_rem_pio2+0xbd4>
    37a0:	e3a03001 	mov	r3, #1
    37a4:	e59d2030 	ldr	r2, [sp, #48]	; 0x30
    37a8:	e5321004 	ldr	r1, [r2, #-4]!
    37ac:	e3510000 	cmp	r1, #0
    37b0:	e2833001 	add	r3, r3, #1
    37b4:	0afffffb 	beq	37a8 <__kernel_rem_pio2+0x458>
    37b8:	e59d2000 	ldr	r2, [sp]
    37bc:	e0823003 	add	r3, r2, r3
    37c0:	e282a001 	add	sl, r2, #1
    37c4:	e15a0003 	cmp	sl, r3
    37c8:	e58d3024 	str	r3, [sp, #36]	; 0x24
    37cc:	ca00002a 	bgt	387c <__kernel_rem_pio2+0x52c>
    37d0:	e59d2028 	ldr	r2, [sp, #40]	; 0x28
    37d4:	e59d1000 	ldr	r1, [sp]
    37d8:	e0829001 	add	r9, r2, r1
    37dc:	e28d2088 	add	r2, sp, #136	; 0x88
    37e0:	e59d302c 	ldr	r3, [sp, #44]	; 0x2c
    37e4:	e0829189 	add	r9, r2, r9, lsl #3
    37e8:	e59d2024 	ldr	r2, [sp, #36]	; 0x24
    37ec:	e08a8003 	add	r8, sl, r3
    37f0:	e0823003 	add	r3, r2, r3
    37f4:	e59d2294 	ldr	r2, [sp, #660]	; 0x294
    37f8:	e2488107 	sub	r8, r8, #-1073741823	; 0xc0000001
    37fc:	e0828108 	add	r8, r2, r8, lsl #2
    3800:	e28d2f72 	add	r2, sp, #456	; 0x1c8
    3804:	e082a18a 	add	sl, r2, sl, lsl #3
    3808:	e59d2294 	ldr	r2, [sp, #660]	; 0x294
    380c:	e0823103 	add	r3, r2, r3, lsl #2
    3810:	e58d3000 	str	r3, [sp]
    3814:	e5b80004 	ldr	r0, [r8, #4]!
    3818:	eb000ac4 	bl	6330 <__aeabi_i2d>
    381c:	e59d300c 	ldr	r3, [sp, #12]
    3820:	e3530000 	cmp	r3, #0
    3824:	e8a90003 	stmia	r9!, {r0, r1}
    3828:	ba000016 	blt	3888 <__kernel_rem_pio2+0x538>
    382c:	e1a05009 	mov	r5, r9
    3830:	e3a06000 	mov	r6, #0
    3834:	e3a07000 	mov	r7, #0
    3838:	e59d4018 	ldr	r4, [sp, #24]
    383c:	e935000c 	ldmdb	r5!, {r2, r3}
    3840:	e8b40003 	ldm	r4!, {r0, r1}
    3844:	eb000af0 	bl	640c <__aeabi_dmul>
    3848:	e1a02000 	mov	r2, r0
    384c:	e1a03001 	mov	r3, r1
    3850:	e1a00006 	mov	r0, r6
    3854:	e1a01007 	mov	r1, r7
    3858:	eb0009e7 	bl	5ffc <__adddf3>
    385c:	e154000b 	cmp	r4, fp
    3860:	e1a06000 	mov	r6, r0
    3864:	e1a07001 	mov	r7, r1
    3868:	1afffff3 	bne	383c <__kernel_rem_pio2+0x4ec>
    386c:	e59d3000 	ldr	r3, [sp]
    3870:	e1580003 	cmp	r8, r3
    3874:	e8aa00c0 	stmia	sl!, {r6, r7}
    3878:	1affffe5 	bne	3814 <__kernel_rem_pio2+0x4c4>
    387c:	e59d3024 	ldr	r3, [sp, #36]	; 0x24
    3880:	e58d3000 	str	r3, [sp]
    3884:	eaffff11 	b	34d0 <__kernel_rem_pio2+0x180>
    3888:	e3a06000 	mov	r6, #0
    388c:	e3a07000 	mov	r7, #0
    3890:	eafffff5 	b	386c <__kernel_rem_pio2+0x51c>
    3894:	1a000005 	bne	38b0 <__kernel_rem_pio2+0x560>
    3898:	e59d2000 	ldr	r2, [sp]
    389c:	e28d3f9a 	add	r3, sp, #616	; 0x268
    38a0:	e0833102 	add	r3, r3, r2, lsl #2
    38a4:	e5135234 	ldr	r5, [r3, #-564]	; 0xfffffdcc
    38a8:	e1a05bc5 	asr	r5, r5, #23
    38ac:	eaffff59 	b	3618 <__kernel_rem_pio2+0x2c8>
    38b0:	e3a02000 	mov	r2, #0
    38b4:	e59f3740 	ldr	r3, [pc, #1856]	; 3ffc <__kernel_rem_pio2+0xcac>
    38b8:	eb000c3f 	bl	69bc <__aeabi_dcmpge>
    38bc:	e3500000 	cmp	r0, #0
    38c0:	01a05000 	moveq	r5, r0
    38c4:	0affff99 	beq	3730 <__kernel_rem_pio2+0x3e0>
    38c8:	e59d3000 	ldr	r3, [sp]
    38cc:	e3530000 	cmp	r3, #0
    38d0:	e2888001 	add	r8, r8, #1
    38d4:	c3a05002 	movgt	r5, #2
    38d8:	caffff54 	bgt	3630 <__kernel_rem_pio2+0x2e0>
    38dc:	e1a02006 	mov	r2, r6
    38e0:	e1a03007 	mov	r3, r7
    38e4:	e3a00000 	mov	r0, #0
    38e8:	e59f1708 	ldr	r1, [pc, #1800]	; 3ff8 <__kernel_rem_pio2+0xca8>
    38ec:	eb0009c1 	bl	5ff8 <__aeabi_dsub>
    38f0:	e3a05002 	mov	r5, #2
    38f4:	e1a06000 	mov	r6, r0
    38f8:	e1a07001 	mov	r7, r1
    38fc:	eaffff8b 	b	3730 <__kernel_rem_pio2+0x3e0>
    3900:	e28d3f9a 	add	r3, sp, #616	; 0x268
    3904:	e0833109 	add	r3, r3, r9, lsl #2
    3908:	e5133230 	ldr	r3, [r3, #-560]	; 0xfffffdd0
    390c:	e3530000 	cmp	r3, #0
    3910:	e59d3010 	ldr	r3, [sp, #16]
    3914:	e2433018 	sub	r3, r3, #24
    3918:	e58d500c 	str	r5, [sp, #12]
    391c:	e58d8018 	str	r8, [sp, #24]
    3920:	e1a02003 	mov	r2, r3
    3924:	e58d3010 	str	r3, [sp, #16]
    3928:	1a000007 	bne	394c <__kernel_rem_pio2+0x5fc>
    392c:	e28d3038 	add	r3, sp, #56	; 0x38
    3930:	e0833109 	add	r3, r3, r9, lsl #2
    3934:	e5331004 	ldr	r1, [r3, #-4]!
    3938:	e3510000 	cmp	r1, #0
    393c:	e2499001 	sub	r9, r9, #1
    3940:	e2422018 	sub	r2, r2, #24
    3944:	0afffffa 	beq	3934 <__kernel_rem_pio2+0x5e4>
    3948:	e58d2010 	str	r2, [sp, #16]
    394c:	e59d2010 	ldr	r2, [sp, #16]
    3950:	e3a00000 	mov	r0, #0
    3954:	e59f169c 	ldr	r1, [pc, #1692]	; 3ff8 <__kernel_rem_pio2+0xca8>
    3958:	eb00029e 	bl	43d8 <scalbn>
    395c:	e3590000 	cmp	r9, #0
    3960:	e1a04000 	mov	r4, r0
    3964:	e1a05001 	mov	r5, r1
    3968:	ba000188 	blt	3f90 <__kernel_rem_pio2+0xc40>
    396c:	e3a0a000 	mov	sl, #0
    3970:	e1a03189 	lsl	r3, r9, #3
    3974:	e28d2f72 	add	r2, sp, #456	; 0x1c8
    3978:	e58d3000 	str	r3, [sp]
    397c:	e0823003 	add	r3, r2, r3
    3980:	e59fb664 	ldr	fp, [pc, #1636]	; 3fec <__kernel_rem_pio2+0xc9c>
    3984:	e28d2038 	add	r2, sp, #56	; 0x38
    3988:	e58d3010 	str	r3, [sp, #16]
    398c:	e0826109 	add	r6, r2, r9, lsl #2
    3990:	e2837008 	add	r7, r3, #8
    3994:	e28d8034 	add	r8, sp, #52	; 0x34
    3998:	e4160004 	ldr	r0, [r6], #-4
    399c:	eb000a63 	bl	6330 <__aeabi_i2d>
    39a0:	e1a02004 	mov	r2, r4
    39a4:	e1a03005 	mov	r3, r5
    39a8:	eb000a97 	bl	640c <__aeabi_dmul>
    39ac:	e1a0200a 	mov	r2, sl
    39b0:	e9270003 	stmdb	r7!, {r0, r1}
    39b4:	e1a0300b 	mov	r3, fp
    39b8:	e1a00004 	mov	r0, r4
    39bc:	e1a01005 	mov	r1, r5
    39c0:	eb000a91 	bl	640c <__aeabi_dmul>
    39c4:	e1560008 	cmp	r6, r8
    39c8:	e1a04000 	mov	r4, r0
    39cc:	e1a05001 	mov	r5, r1
    39d0:	1afffff0 	bne	3998 <__kernel_rem_pio2+0x648>
    39d4:	e3a0a000 	mov	sl, #0
    39d8:	e59db010 	ldr	fp, [sp, #16]
    39dc:	e58d9010 	str	r9, [sp, #16]
    39e0:	e59d901c 	ldr	r9, [sp, #28]
    39e4:	e3590000 	cmp	r9, #0
    39e8:	b3a06000 	movlt	r6, #0
    39ec:	b3a07000 	movlt	r7, #0
    39f0:	ba000016 	blt	3a50 <__kernel_rem_pio2+0x700>
    39f4:	e59f8604 	ldr	r8, [pc, #1540]	; 4000 <__kernel_rem_pio2+0xcb0>
    39f8:	e1a0500b 	mov	r5, fp
    39fc:	e3a00101 	mov	r0, #1073741824	; 0x40000000
    3a00:	e59f15fc 	ldr	r1, [pc, #1532]	; 4004 <__kernel_rem_pio2+0xcb4>
    3a04:	e3a06000 	mov	r6, #0
    3a08:	e3a07000 	mov	r7, #0
    3a0c:	e3a04000 	mov	r4, #0
    3a10:	ea000002 	b	3a20 <__kernel_rem_pio2+0x6d0>
    3a14:	e154000a 	cmp	r4, sl
    3a18:	ca00000c 	bgt	3a50 <__kernel_rem_pio2+0x700>
    3a1c:	e8b80003 	ldm	r8!, {r0, r1}
    3a20:	e8b5000c 	ldm	r5!, {r2, r3}
    3a24:	eb000a78 	bl	640c <__aeabi_dmul>
    3a28:	e1a02000 	mov	r2, r0
    3a2c:	e1a03001 	mov	r3, r1
    3a30:	e1a00006 	mov	r0, r6
    3a34:	e1a01007 	mov	r1, r7
    3a38:	eb00096f 	bl	5ffc <__adddf3>
    3a3c:	e2844001 	add	r4, r4, #1
    3a40:	e1590004 	cmp	r9, r4
    3a44:	e1a06000 	mov	r6, r0
    3a48:	e1a07001 	mov	r7, r1
    3a4c:	aafffff0 	bge	3a14 <__kernel_rem_pio2+0x6c4>
    3a50:	e28d3d07 	add	r3, sp, #448	; 0x1c0
    3a54:	e24bb008 	sub	fp, fp, #8
    3a58:	e15b0003 	cmp	fp, r3
    3a5c:	e28d3f9a 	add	r3, sp, #616	; 0x268
    3a60:	e083318a 	add	r3, r3, sl, lsl #3
    3a64:	e5036140 	str	r6, [r3, #-320]	; 0xfffffec0
    3a68:	e503713c 	str	r7, [r3, #-316]	; 0xfffffec4
    3a6c:	e28aa001 	add	sl, sl, #1
    3a70:	1affffdb 	bne	39e4 <__kernel_rem_pio2+0x694>
    3a74:	e59d3290 	ldr	r3, [sp, #656]	; 0x290
    3a78:	e59d9010 	ldr	r9, [sp, #16]
    3a7c:	e3530003 	cmp	r3, #3
    3a80:	979ff103 	ldrls	pc, [pc, r3, lsl #2]
    3a84:	ea0000b0 	b	3d4c <__kernel_rem_pio2+0x9fc>
    3a88:	00003cf8 	.word	0x00003cf8
    3a8c:	00003c30 	.word	0x00003c30
    3a90:	00003c30 	.word	0x00003c30
    3a94:	00003a98 	.word	0x00003a98
    3a98:	e3590000 	cmp	r9, #0
    3a9c:	da000138 	ble	3f84 <__kernel_rem_pio2+0xc34>
    3aa0:	e59d2000 	ldr	r2, [sp]
    3aa4:	e28d1f9a 	add	r1, sp, #616	; 0x268
    3aa8:	e0813002 	add	r3, r1, r2
    3aac:	e2437d05 	sub	r7, r3, #320	; 0x140
    3ab0:	e89700c0 	ldm	r7, {r6, r7}
    3ab4:	e1a03002 	mov	r3, r2
    3ab8:	e2828008 	add	r8, r2, #8
    3abc:	e28d2f4a 	add	r2, sp, #296	; 0x128
    3ac0:	e0828008 	add	r8, r2, r8
    3ac4:	e082a003 	add	sl, r2, r3
    3ac8:	e28dbe13 	add	fp, sp, #304	; 0x130
    3acc:	e91a0018 	ldmdb	sl, {r3, r4}
    3ad0:	e1a00003 	mov	r0, r3
    3ad4:	e1a01004 	mov	r1, r4
    3ad8:	e1a02006 	mov	r2, r6
    3adc:	e1a03007 	mov	r3, r7
    3ae0:	e58d0010 	str	r0, [sp, #16]
    3ae4:	e58d1014 	str	r1, [sp, #20]
    3ae8:	eb000943 	bl	5ffc <__adddf3>
    3aec:	e1a04000 	mov	r4, r0
    3af0:	e1a05001 	mov	r5, r1
    3af4:	e1a02000 	mov	r2, r0
    3af8:	e1a03001 	mov	r3, r1
    3afc:	e28d1010 	add	r1, sp, #16
    3b00:	e8910003 	ldm	r1, {r0, r1}
    3b04:	eb00093b 	bl	5ff8 <__aeabi_dsub>
    3b08:	e1a02006 	mov	r2, r6
    3b0c:	e1a03007 	mov	r3, r7
    3b10:	eb000939 	bl	5ffc <__adddf3>
    3b14:	e9280003 	stmdb	r8!, {r0, r1}
    3b18:	e158000b 	cmp	r8, fp
    3b1c:	e92a0030 	stmdb	sl!, {r4, r5}
    3b20:	e1a06004 	mov	r6, r4
    3b24:	e1a07005 	mov	r7, r5
    3b28:	1affffe7 	bne	3acc <__kernel_rem_pio2+0x77c>
    3b2c:	e3590001 	cmp	r9, #1
    3b30:	da000113 	ble	3f84 <__kernel_rem_pio2+0xc34>
    3b34:	e59d2000 	ldr	r2, [sp]
    3b38:	e28d1f9a 	add	r1, sp, #616	; 0x268
    3b3c:	e0813002 	add	r3, r1, r2
    3b40:	e2439d05 	sub	r9, r3, #320	; 0x140
    3b44:	e8990300 	ldm	r9, {r8, r9}
    3b48:	e1a03002 	mov	r3, r2
    3b4c:	e282a008 	add	sl, r2, #8
    3b50:	e28d2f4a 	add	r2, sp, #296	; 0x128
    3b54:	e0825003 	add	r5, r2, r3
    3b58:	e082400a 	add	r4, r2, sl
    3b5c:	e28dbf4e 	add	fp, sp, #312	; 0x138
    3b60:	e915000c 	ldmdb	r5, {r2, r3}
    3b64:	e1a00002 	mov	r0, r2
    3b68:	e1a01003 	mov	r1, r3
    3b6c:	e1a02008 	mov	r2, r8
    3b70:	e1a03009 	mov	r3, r9
    3b74:	e88d0003 	stm	sp, {r0, r1}
    3b78:	eb00091f 	bl	5ffc <__adddf3>
    3b7c:	e1a06000 	mov	r6, r0
    3b80:	e1a07001 	mov	r7, r1
    3b84:	e1a02000 	mov	r2, r0
    3b88:	e1a03001 	mov	r3, r1
    3b8c:	e89d0003 	ldm	sp, {r0, r1}
    3b90:	eb000918 	bl	5ff8 <__aeabi_dsub>
    3b94:	e1a02008 	mov	r2, r8
    3b98:	e1a03009 	mov	r3, r9
    3b9c:	eb000916 	bl	5ffc <__adddf3>
    3ba0:	e9240003 	stmdb	r4!, {r0, r1}
    3ba4:	e15b0004 	cmp	fp, r4
    3ba8:	e92500c0 	stmdb	r5!, {r6, r7}
    3bac:	e1a08006 	mov	r8, r6
    3bb0:	e1a09007 	mov	r9, r7
    3bb4:	1affffe9 	bne	3b60 <__kernel_rem_pio2+0x810>
    3bb8:	e3a03000 	mov	r3, #0
    3bbc:	e1a02003 	mov	r2, r3
    3bc0:	e28d1f4a 	add	r1, sp, #296	; 0x128
    3bc4:	e081a00a 	add	sl, r1, sl
    3bc8:	e1a00003 	mov	r0, r3
    3bcc:	e1a01002 	mov	r1, r2
    3bd0:	e93a000c 	ldmdb	sl!, {r2, r3}
    3bd4:	eb000908 	bl	5ffc <__adddf3>
    3bd8:	e154000a 	cmp	r4, sl
    3bdc:	e1a03000 	mov	r3, r0
    3be0:	e1a02001 	mov	r2, r1
    3be4:	1afffff7 	bne	3bc8 <__kernel_rem_pio2+0x878>
    3be8:	e59d100c 	ldr	r1, [sp, #12]
    3bec:	e3510000 	cmp	r1, #0
    3bf0:	0a0000cd 	beq	3f2c <__kernel_rem_pio2+0xbdc>
    3bf4:	e59d012c 	ldr	r0, [sp, #300]	; 0x12c
    3bf8:	e59d1134 	ldr	r1, [sp, #308]	; 0x134
    3bfc:	e59d4020 	ldr	r4, [sp, #32]
    3c00:	e59de128 	ldr	lr, [sp, #296]	; 0x128
    3c04:	e59dc130 	ldr	ip, [sp, #304]	; 0x130
    3c08:	e2822102 	add	r2, r2, #-2147483648	; 0x80000000
    3c0c:	e2800102 	add	r0, r0, #-2147483648	; 0x80000000
    3c10:	e2811102 	add	r1, r1, #-2147483648	; 0x80000000
    3c14:	e5842014 	str	r2, [r4, #20]
    3c18:	e5843010 	str	r3, [r4, #16]
    3c1c:	e5840004 	str	r0, [r4, #4]
    3c20:	e584100c 	str	r1, [r4, #12]
    3c24:	e584e000 	str	lr, [r4]
    3c28:	e584c008 	str	ip, [r4, #8]
    3c2c:	ea000046 	b	3d4c <__kernel_rem_pio2+0x9fc>
    3c30:	e3a0c000 	mov	ip, #0
    3c34:	e1a0e00c 	mov	lr, ip
    3c38:	e59d3000 	ldr	r3, [sp]
    3c3c:	e28d5f4a 	add	r5, sp, #296	; 0x128
    3c40:	e2834008 	add	r4, r3, #8
    3c44:	e0854004 	add	r4, r5, r4
    3c48:	e1a0000c 	mov	r0, ip
    3c4c:	e1a0100e 	mov	r1, lr
    3c50:	e934000c 	ldmdb	r4!, {r2, r3}
    3c54:	eb0008e8 	bl	5ffc <__adddf3>
    3c58:	e1540005 	cmp	r4, r5
    3c5c:	e1a0c000 	mov	ip, r0
    3c60:	e1a0e001 	mov	lr, r1
    3c64:	1afffff7 	bne	3c48 <__kernel_rem_pio2+0x8f8>
    3c68:	e59d300c 	ldr	r3, [sp, #12]
    3c6c:	e3530000 	cmp	r3, #0
    3c70:	0a000074 	beq	3e48 <__kernel_rem_pio2+0xaf8>
    3c74:	e59d1020 	ldr	r1, [sp, #32]
    3c78:	e1a0300e 	mov	r3, lr
    3c7c:	e28ee102 	add	lr, lr, #-2147483648	; 0x80000000
    3c80:	e1a0200c 	mov	r2, ip
    3c84:	e8815000 	stm	r1, {ip, lr}
    3c88:	e28d1f4a 	add	r1, sp, #296	; 0x128
    3c8c:	e8910003 	ldm	r1, {r0, r1}
    3c90:	eb0008d8 	bl	5ff8 <__aeabi_dsub>
    3c94:	e3590000 	cmp	r9, #0
    3c98:	e1a02000 	mov	r2, r0
    3c9c:	e1a03001 	mov	r3, r1
    3ca0:	da00000d 	ble	3cdc <__kernel_rem_pio2+0x98c>
    3ca4:	e3a04001 	mov	r4, #1
    3ca8:	e28d5e13 	add	r5, sp, #304	; 0x130
    3cac:	e1a00002 	mov	r0, r2
    3cb0:	e1a01003 	mov	r1, r3
    3cb4:	e8b5000c 	ldm	r5!, {r2, r3}
    3cb8:	eb0008cf 	bl	5ffc <__adddf3>
    3cbc:	e2844001 	add	r4, r4, #1
    3cc0:	e1590004 	cmp	r9, r4
    3cc4:	e1a02000 	mov	r2, r0
    3cc8:	e1a03001 	mov	r3, r1
    3ccc:	aafffff6 	bge	3cac <__kernel_rem_pio2+0x95c>
    3cd0:	e59d100c 	ldr	r1, [sp, #12]
    3cd4:	e3510000 	cmp	r1, #0
    3cd8:	0a000000 	beq	3ce0 <__kernel_rem_pio2+0x990>
    3cdc:	e2833102 	add	r3, r3, #-2147483648	; 0x80000000
    3ce0:	e1a01003 	mov	r1, r3
    3ce4:	e1a00002 	mov	r0, r2
    3ce8:	e59d3020 	ldr	r3, [sp, #32]
    3cec:	e5830008 	str	r0, [r3, #8]
    3cf0:	e583100c 	str	r1, [r3, #12]
    3cf4:	ea000014 	b	3d4c <__kernel_rem_pio2+0x9fc>
    3cf8:	e3a02000 	mov	r2, #0
    3cfc:	e1a03002 	mov	r3, r2
    3d00:	e59d1000 	ldr	r1, [sp]
    3d04:	e28d5f4a 	add	r5, sp, #296	; 0x128
    3d08:	e2814008 	add	r4, r1, #8
    3d0c:	e0854004 	add	r4, r5, r4
    3d10:	e1a00002 	mov	r0, r2
    3d14:	e1a01003 	mov	r1, r3
    3d18:	e934000c 	ldmdb	r4!, {r2, r3}
    3d1c:	eb0008b6 	bl	5ffc <__adddf3>
    3d20:	e1550004 	cmp	r5, r4
    3d24:	e1a02000 	mov	r2, r0
    3d28:	e1a03001 	mov	r3, r1
    3d2c:	1afffff7 	bne	3d10 <__kernel_rem_pio2+0x9c0>
    3d30:	e59d100c 	ldr	r1, [sp, #12]
    3d34:	e3510000 	cmp	r1, #0
    3d38:	12833102 	addne	r3, r3, #-2147483648	; 0x80000000
    3d3c:	e1a01003 	mov	r1, r3
    3d40:	e1a00002 	mov	r0, r2
    3d44:	e59d3020 	ldr	r3, [sp, #32]
    3d48:	e8830003 	stm	r3, {r0, r1}
    3d4c:	e59d3018 	ldr	r3, [sp, #24]
    3d50:	e2030007 	and	r0, r3, #7
    3d54:	e28ddf9b 	add	sp, sp, #620	; 0x26c
    3d58:	e8bd4ff0 	pop	{r4, r5, r6, r7, r8, r9, sl, fp, lr}
    3d5c:	e12fff1e 	bx	lr
    3d60:	e3a06000 	mov	r6, #0
    3d64:	e3a07000 	mov	r7, #0
    3d68:	eafffdc8 	b	3490 <__kernel_rem_pio2+0x140>
    3d6c:	e59d3010 	ldr	r3, [sp, #16]
    3d70:	e3530000 	cmp	r3, #0
    3d74:	c3a04000 	movgt	r4, #0
    3d78:	da000028 	ble	3e20 <__kernel_rem_pio2+0xad0>
    3d7c:	e59d3010 	ldr	r3, [sp, #16]
    3d80:	e3530001 	cmp	r3, #1
    3d84:	0a000015 	beq	3de0 <__kernel_rem_pio2+0xa90>
    3d88:	e3530002 	cmp	r3, #2
    3d8c:	1a000007 	bne	3db0 <__kernel_rem_pio2+0xa60>
    3d90:	e59d3000 	ldr	r3, [sp]
    3d94:	e2432001 	sub	r2, r3, #1
    3d98:	e28d3f9a 	add	r3, sp, #616	; 0x268
    3d9c:	e0832102 	add	r2, r3, r2, lsl #2
    3da0:	e5123230 	ldr	r3, [r2, #-560]	; 0xfffffdd0
    3da4:	e3c334ff 	bic	r3, r3, #-16777216	; 0xff000000
    3da8:	e3c33503 	bic	r3, r3, #12582912	; 0xc00000
    3dac:	e5023230 	str	r3, [r2, #-560]	; 0xfffffdd0
    3db0:	e3550002 	cmp	r5, #2
    3db4:	1afffe5d 	bne	3730 <__kernel_rem_pio2+0x3e0>
    3db8:	e1a02006 	mov	r2, r6
    3dbc:	e1a03007 	mov	r3, r7
    3dc0:	e3a00000 	mov	r0, #0
    3dc4:	e59f122c 	ldr	r1, [pc, #556]	; 3ff8 <__kernel_rem_pio2+0xca8>
    3dc8:	eb00088a 	bl	5ff8 <__aeabi_dsub>
    3dcc:	e3540000 	cmp	r4, #0
    3dd0:	e1a06000 	mov	r6, r0
    3dd4:	e1a07001 	mov	r7, r1
    3dd8:	0afffe54 	beq	3730 <__kernel_rem_pio2+0x3e0>
    3ddc:	eafffe47 	b	3700 <__kernel_rem_pio2+0x3b0>
    3de0:	e59d3000 	ldr	r3, [sp]
    3de4:	e2432001 	sub	r2, r3, #1
    3de8:	e28d3f9a 	add	r3, sp, #616	; 0x268
    3dec:	e0832102 	add	r2, r3, r2, lsl #2
    3df0:	e5123230 	ldr	r3, [r2, #-560]	; 0xfffffdd0
    3df4:	e3c334ff 	bic	r3, r3, #-16777216	; 0xff000000
    3df8:	e3c33502 	bic	r3, r3, #8388608	; 0x800000
    3dfc:	e5023230 	str	r3, [r2, #-560]	; 0xfffffdd0
    3e00:	eaffffea 	b	3db0 <__kernel_rem_pio2+0xa60>
    3e04:	e59d1000 	ldr	r1, [sp]
    3e08:	e2833001 	add	r3, r3, #1
    3e0c:	e1510003 	cmp	r1, r3
    3e10:	1afffe0e 	bne	3650 <__kernel_rem_pio2+0x300>
    3e14:	e59d3010 	ldr	r3, [sp, #16]
    3e18:	e3530000 	cmp	r3, #0
    3e1c:	caffffd6 	bgt	3d7c <__kernel_rem_pio2+0xa2c>
    3e20:	e3550002 	cmp	r5, #2
    3e24:	1afffe41 	bne	3730 <__kernel_rem_pio2+0x3e0>
    3e28:	e1a02006 	mov	r2, r6
    3e2c:	e1a03007 	mov	r3, r7
    3e30:	e3a00000 	mov	r0, #0
    3e34:	e59f11bc 	ldr	r1, [pc, #444]	; 3ff8 <__kernel_rem_pio2+0xca8>
    3e38:	eb00086e 	bl	5ff8 <__aeabi_dsub>
    3e3c:	e1a06000 	mov	r6, r0
    3e40:	e1a07001 	mov	r7, r1
    3e44:	eafffe39 	b	3730 <__kernel_rem_pio2+0x3e0>
    3e48:	e1a0000c 	mov	r0, ip
    3e4c:	e1a0100e 	mov	r1, lr
    3e50:	e1a0200c 	mov	r2, ip
    3e54:	e59dc020 	ldr	ip, [sp, #32]
    3e58:	e1a0300e 	mov	r3, lr
    3e5c:	e88c0003 	stm	ip, {r0, r1}
    3e60:	e28d1f4a 	add	r1, sp, #296	; 0x128
    3e64:	e8910003 	ldm	r1, {r0, r1}
    3e68:	eb000862 	bl	5ff8 <__aeabi_dsub>
    3e6c:	e3590000 	cmp	r9, #0
    3e70:	e1a02000 	mov	r2, r0
    3e74:	e1a03001 	mov	r3, r1
    3e78:	caffff89 	bgt	3ca4 <__kernel_rem_pio2+0x954>
    3e7c:	eaffff97 	b	3ce0 <__kernel_rem_pio2+0x990>
    3e80:	e1a01007 	mov	r1, r7
    3e84:	e59d7010 	ldr	r7, [sp, #16]
    3e88:	e1a00006 	mov	r0, r6
    3e8c:	e2672000 	rsb	r2, r7, #0
    3e90:	e58d500c 	str	r5, [sp, #12]
    3e94:	e58d8018 	str	r8, [sp, #24]
    3e98:	eb00014e 	bl	43d8 <scalbn>
    3e9c:	e3a02000 	mov	r2, #0
    3ea0:	e59f3148 	ldr	r3, [pc, #328]	; 3ff0 <__kernel_rem_pio2+0xca0>
    3ea4:	e1a04000 	mov	r4, r0
    3ea8:	e1a05001 	mov	r5, r1
    3eac:	eb000ac2 	bl	69bc <__aeabi_dcmpge>
    3eb0:	e3500000 	cmp	r0, #0
    3eb4:	0a000029 	beq	3f60 <__kernel_rem_pio2+0xc10>
    3eb8:	e3a02000 	mov	r2, #0
    3ebc:	e59f3128 	ldr	r3, [pc, #296]	; 3fec <__kernel_rem_pio2+0xc9c>
    3ec0:	e1a00004 	mov	r0, r4
    3ec4:	e1a01005 	mov	r1, r5
    3ec8:	eb00094f 	bl	640c <__aeabi_dmul>
    3ecc:	eb000ac6 	bl	69ec <__aeabi_d2iz>
    3ed0:	e1a06000 	mov	r6, r0
    3ed4:	eb000915 	bl	6330 <__aeabi_i2d>
    3ed8:	e3a02000 	mov	r2, #0
    3edc:	e59f310c 	ldr	r3, [pc, #268]	; 3ff0 <__kernel_rem_pio2+0xca0>
    3ee0:	eb000949 	bl	640c <__aeabi_dmul>
    3ee4:	e1a02000 	mov	r2, r0
    3ee8:	e1a03001 	mov	r3, r1
    3eec:	e1a00004 	mov	r0, r4
    3ef0:	e1a01005 	mov	r1, r5
    3ef4:	eb00083f 	bl	5ff8 <__aeabi_dsub>
    3ef8:	eb000abb 	bl	69ec <__aeabi_d2iz>
    3efc:	e59d3000 	ldr	r3, [sp]
    3f00:	e28d2f9a 	add	r2, sp, #616	; 0x268
    3f04:	e2839001 	add	r9, r3, #1
    3f08:	e082b103 	add	fp, r2, r3, lsl #2
    3f0c:	e0823109 	add	r3, r2, r9, lsl #2
    3f10:	e2872018 	add	r2, r7, #24
    3f14:	e50b0230 	str	r0, [fp, #-560]	; 0xfffffdd0
    3f18:	e58d2010 	str	r2, [sp, #16]
    3f1c:	e5036230 	str	r6, [r3, #-560]	; 0xfffffdd0
    3f20:	eafffe89 	b	394c <__kernel_rem_pio2+0x5fc>
    3f24:	e3a03001 	mov	r3, #1
    3f28:	eafffe22 	b	37b8 <__kernel_rem_pio2+0x468>
    3f2c:	e1a00003 	mov	r0, r3
    3f30:	e1a01002 	mov	r1, r2
    3f34:	e59dc020 	ldr	ip, [sp, #32]
    3f38:	e28d3f4a 	add	r3, sp, #296	; 0x128
    3f3c:	e893000c 	ldm	r3, {r2, r3}
    3f40:	e28d5e13 	add	r5, sp, #304	; 0x130
    3f44:	e8950030 	ldm	r5, {r4, r5}
    3f48:	e58c0010 	str	r0, [ip, #16]
    3f4c:	e58c1014 	str	r1, [ip, #20]
    3f50:	e88c000c 	stm	ip, {r2, r3}
    3f54:	e58c4008 	str	r4, [ip, #8]
    3f58:	e58c500c 	str	r5, [ip, #12]
    3f5c:	eaffff7a 	b	3d4c <__kernel_rem_pio2+0x9fc>
    3f60:	e1a00004 	mov	r0, r4
    3f64:	e1a01005 	mov	r1, r5
    3f68:	eb000a9f 	bl	69ec <__aeabi_d2iz>
    3f6c:	e59d3000 	ldr	r3, [sp]
    3f70:	e28d2f9a 	add	r2, sp, #616	; 0x268
    3f74:	e082b103 	add	fp, r2, r3, lsl #2
    3f78:	e1a09003 	mov	r9, r3
    3f7c:	e50b0230 	str	r0, [fp, #-560]	; 0xfffffdd0
    3f80:	eafffe71 	b	394c <__kernel_rem_pio2+0x5fc>
    3f84:	e3a03000 	mov	r3, #0
    3f88:	e1a02003 	mov	r2, r3
    3f8c:	eaffff15 	b	3be8 <__kernel_rem_pio2+0x898>
    3f90:	e59d3290 	ldr	r3, [sp, #656]	; 0x290
    3f94:	e3530003 	cmp	r3, #3
    3f98:	979ff103 	ldrls	pc, [pc, r3, lsl #2]
    3f9c:	eaffff6a 	b	3d4c <__kernel_rem_pio2+0x9fc>
    3fa0:	00003fbc 	.word	0x00003fbc
    3fa4:	00003fb0 	.word	0x00003fb0
    3fa8:	00003fb0 	.word	0x00003fb0
    3fac:	00003f84 	.word	0x00003f84
    3fb0:	e3a0c000 	mov	ip, #0
    3fb4:	e1a0e00c 	mov	lr, ip
    3fb8:	eaffff2a 	b	3c68 <__kernel_rem_pio2+0x918>
    3fbc:	e3a02000 	mov	r2, #0
    3fc0:	e1a03002 	mov	r3, r2
    3fc4:	eaffff59 	b	3d30 <__kernel_rem_pio2+0x9e0>
    3fc8:	e3a02001 	mov	r2, #1
    3fcc:	e3a03000 	mov	r3, #0
    3fd0:	eafffda2 	b	3660 <__kernel_rem_pio2+0x310>
    3fd4:	e59d3028 	ldr	r3, [sp, #40]	; 0x28
    3fd8:	e1a03183 	lsl	r3, r3, #3
    3fdc:	e58d3024 	str	r3, [sp, #36]	; 0x24
    3fe0:	eafffd2e 	b	34a0 <__kernel_rem_pio2+0x150>
    3fe4:	2aaaaaab 	.word	0x2aaaaaab
    3fe8:	00007b08 	.word	0x00007b08
    3fec:	3e700000 	.word	0x3e700000
    3ff0:	41700000 	.word	0x41700000
    3ff4:	40200000 	.word	0x40200000
    3ff8:	3ff00000 	.word	0x3ff00000
    3ffc:	3fe00000 	.word	0x3fe00000
    4000:	00007ad0 	.word	0x00007ad0
    4004:	3ff921fb 	.word	0x3ff921fb

00004008 <__kernel_sin>:
    4008:	e92d4ff0 	push	{r4, r5, r6, r7, r8, r9, sl, fp, lr}
    400c:	e3c1c102 	bic	ip, r1, #-2147483648	; 0x80000000
    4010:	e35c05f9 	cmp	ip, #1044381696	; 0x3e400000
    4014:	e24dd014 	sub	sp, sp, #20
    4018:	e1a04001 	mov	r4, r1
    401c:	e1a08002 	mov	r8, r2
    4020:	e1a09003 	mov	r9, r3
    4024:	e1a05000 	mov	r5, r0
    4028:	aa000004 	bge	4040 <__kernel_sin+0x38>
    402c:	eb000a6e 	bl	69ec <__aeabi_d2iz>
    4030:	e3500000 	cmp	r0, #0
    4034:	01a00005 	moveq	r0, r5
    4038:	01a01004 	moveq	r1, r4
    403c:	0a000052 	beq	418c <__kernel_sin+0x184>
    4040:	e1a02005 	mov	r2, r5
    4044:	e1a03004 	mov	r3, r4
    4048:	e1a00005 	mov	r0, r5
    404c:	e1a01004 	mov	r1, r4
    4050:	eb0008ed 	bl	640c <__aeabi_dmul>
    4054:	e1a06000 	mov	r6, r0
    4058:	e1a07001 	mov	r7, r1
    405c:	e1a02000 	mov	r2, r0
    4060:	e1a03001 	mov	r3, r1
    4064:	e1a00005 	mov	r0, r5
    4068:	e1a01004 	mov	r1, r4
    406c:	eb0008e6 	bl	640c <__aeabi_dmul>
    4070:	e28f3f5a 	add	r3, pc, #360	; 0x168
    4074:	e893000c 	ldm	r3, {r2, r3}
    4078:	e1a0a000 	mov	sl, r0
    407c:	e1a0b001 	mov	fp, r1
    4080:	e1a00006 	mov	r0, r6
    4084:	e1a01007 	mov	r1, r7
    4088:	eb0008df 	bl	640c <__aeabi_dmul>
    408c:	e28f3f55 	add	r3, pc, #340	; 0x154
    4090:	e893000c 	ldm	r3, {r2, r3}
    4094:	eb0007d7 	bl	5ff8 <__aeabi_dsub>
    4098:	e1a02006 	mov	r2, r6
    409c:	e1a03007 	mov	r3, r7
    40a0:	eb0008d9 	bl	640c <__aeabi_dmul>
    40a4:	e28f3f51 	add	r3, pc, #324	; 0x144
    40a8:	e893000c 	ldm	r3, {r2, r3}
    40ac:	eb0007d2 	bl	5ffc <__adddf3>
    40b0:	e1a02006 	mov	r2, r6
    40b4:	e1a03007 	mov	r3, r7
    40b8:	eb0008d3 	bl	640c <__aeabi_dmul>
    40bc:	e28f3f4d 	add	r3, pc, #308	; 0x134
    40c0:	e893000c 	ldm	r3, {r2, r3}
    40c4:	eb0007cb 	bl	5ff8 <__aeabi_dsub>
    40c8:	e1a02006 	mov	r2, r6
    40cc:	e1a03007 	mov	r3, r7
    40d0:	eb0008cd 	bl	640c <__aeabi_dmul>
    40d4:	e28f3f49 	add	r3, pc, #292	; 0x124
    40d8:	e893000c 	ldm	r3, {r2, r3}
    40dc:	eb0007c6 	bl	5ffc <__adddf3>
    40e0:	e59d3038 	ldr	r3, [sp, #56]	; 0x38
    40e4:	e3530000 	cmp	r3, #0
    40e8:	e88d0003 	stm	sp, {r0, r1}
    40ec:	0a000029 	beq	4198 <__kernel_sin+0x190>
    40f0:	e3a02000 	mov	r2, #0
    40f4:	e59f3114 	ldr	r3, [pc, #276]	; 4210 <__kernel_sin+0x208>
    40f8:	e1a00008 	mov	r0, r8
    40fc:	e1a01009 	mov	r1, r9
    4100:	eb0008c1 	bl	640c <__aeabi_dmul>
    4104:	e89d000c 	ldm	sp, {r2, r3}
    4108:	e58d0008 	str	r0, [sp, #8]
    410c:	e58d100c 	str	r1, [sp, #12]
    4110:	e1a0000a 	mov	r0, sl
    4114:	e1a0100b 	mov	r1, fp
    4118:	eb0008bb 	bl	640c <__aeabi_dmul>
    411c:	e1a02000 	mov	r2, r0
    4120:	e1a03001 	mov	r3, r1
    4124:	e28d1008 	add	r1, sp, #8
    4128:	e8910003 	ldm	r1, {r0, r1}
    412c:	eb0007b1 	bl	5ff8 <__aeabi_dsub>
    4130:	e1a02006 	mov	r2, r6
    4134:	e1a03007 	mov	r3, r7
    4138:	eb0008b3 	bl	640c <__aeabi_dmul>
    413c:	e1a02008 	mov	r2, r8
    4140:	e1a03009 	mov	r3, r9
    4144:	eb0007ab 	bl	5ff8 <__aeabi_dsub>
    4148:	e28f30b8 	add	r3, pc, #184	; 0xb8
    414c:	e893000c 	ldm	r3, {r2, r3}
    4150:	e1a06000 	mov	r6, r0
    4154:	e1a07001 	mov	r7, r1
    4158:	e1a0000a 	mov	r0, sl
    415c:	e1a0100b 	mov	r1, fp
    4160:	eb0008a9 	bl	640c <__aeabi_dmul>
    4164:	e1a02000 	mov	r2, r0
    4168:	e1a03001 	mov	r3, r1
    416c:	e1a00006 	mov	r0, r6
    4170:	e1a01007 	mov	r1, r7
    4174:	eb0007a0 	bl	5ffc <__adddf3>
    4178:	e1a02000 	mov	r2, r0
    417c:	e1a03001 	mov	r3, r1
    4180:	e1a00005 	mov	r0, r5
    4184:	e1a01004 	mov	r1, r4
    4188:	eb00079a 	bl	5ff8 <__aeabi_dsub>
    418c:	e28dd014 	add	sp, sp, #20
    4190:	e8bd4ff0 	pop	{r4, r5, r6, r7, r8, r9, sl, fp, lr}
    4194:	e12fff1e 	bx	lr
    4198:	e1a02000 	mov	r2, r0
    419c:	e1a03001 	mov	r3, r1
    41a0:	e1a00006 	mov	r0, r6
    41a4:	e1a01007 	mov	r1, r7
    41a8:	eb000897 	bl	640c <__aeabi_dmul>
    41ac:	e28f3054 	add	r3, pc, #84	; 0x54
    41b0:	e893000c 	ldm	r3, {r2, r3}
    41b4:	eb00078f 	bl	5ff8 <__aeabi_dsub>
    41b8:	e1a0200a 	mov	r2, sl
    41bc:	e1a0300b 	mov	r3, fp
    41c0:	eb000891 	bl	640c <__aeabi_dmul>
    41c4:	e1a02005 	mov	r2, r5
    41c8:	e1a03004 	mov	r3, r4
    41cc:	eb00078a 	bl	5ffc <__adddf3>
    41d0:	e28dd014 	add	sp, sp, #20
    41d4:	e8bd4ff0 	pop	{r4, r5, r6, r7, r8, r9, sl, fp, lr}
    41d8:	e12fff1e 	bx	lr
    41dc:	e1a00000 	nop			; (mov r0, r0)
    41e0:	5acfd57c 	.word	0x5acfd57c
    41e4:	3de5d93a 	.word	0x3de5d93a
    41e8:	8a2b9ceb 	.word	0x8a2b9ceb
    41ec:	3e5ae5e6 	.word	0x3e5ae5e6
    41f0:	57b1fe7d 	.word	0x57b1fe7d
    41f4:	3ec71de3 	.word	0x3ec71de3
    41f8:	19c161d5 	.word	0x19c161d5
    41fc:	3f2a01a0 	.word	0x3f2a01a0
    4200:	1110f8a6 	.word	0x1110f8a6
    4204:	3f811111 	.word	0x3f811111
    4208:	55555549 	.word	0x55555549
    420c:	3fc55555 	.word	0x3fc55555
    4210:	3fe00000 	.word	0x3fe00000

00004214 <fabs>:
    4214:	e3c11102 	bic	r1, r1, #-2147483648	; 0x80000000
    4218:	e12fff1e 	bx	lr

0000421c <finite>:
    421c:	e3811102 	orr	r1, r1, #-2147483648	; 0x80000000
    4220:	e2810601 	add	r0, r1, #1048576	; 0x100000
    4224:	e1a00fa0 	lsr	r0, r0, #31
    4228:	e12fff1e 	bx	lr
    422c:	00000000 	andeq	r0, r0, r0

00004230 <floor>:
    4230:	e59f3188 	ldr	r3, [pc, #392]	; 43c0 <floor+0x190>
    4234:	e0033a41 	and	r3, r3, r1, asr #20
    4238:	e92d41f0 	push	{r4, r5, r6, r7, r8, lr}
    423c:	e2434fff 	sub	r4, r3, #1020	; 0x3fc
    4240:	e2444003 	sub	r4, r4, #3
    4244:	e3540013 	cmp	r4, #19
    4248:	e1a0c001 	mov	ip, r1
    424c:	e1a0e000 	mov	lr, r0
    4250:	e1a05001 	mov	r5, r1
    4254:	e1a07001 	mov	r7, r1
    4258:	e1a06000 	mov	r6, r0
    425c:	ca000019 	bgt	42c8 <floor+0x98>
    4260:	e3540000 	cmp	r4, #0
    4264:	ba000036 	blt	4344 <floor+0x114>
    4268:	e59f8154 	ldr	r8, [pc, #340]	; 43c4 <floor+0x194>
    426c:	e1a08458 	asr	r8, r8, r4
    4270:	e0013008 	and	r3, r1, r8
    4274:	e1933000 	orrs	r3, r3, r0
    4278:	0a00000e 	beq	42b8 <floor+0x88>
    427c:	e28f3f4d 	add	r3, pc, #308	; 0x134
    4280:	e893000c 	ldm	r3, {r2, r3}
    4284:	eb00075c 	bl	5ffc <__adddf3>
    4288:	e3a02000 	mov	r2, #0
    428c:	e3a03000 	mov	r3, #0
    4290:	eb0009cf 	bl	69d4 <__aeabi_dcmpgt>
    4294:	e3500000 	cmp	r0, #0
    4298:	0a000004 	beq	42b0 <floor+0x80>
    429c:	e3550000 	cmp	r5, #0
    42a0:	b3a03601 	movlt	r3, #1048576	; 0x100000
    42a4:	e3a06000 	mov	r6, #0
    42a8:	b0857453 	addlt	r7, r5, r3, asr r4
    42ac:	e1c75008 	bic	r5, r7, r8
    42b0:	e1a0e006 	mov	lr, r6
    42b4:	e1a0c005 	mov	ip, r5
    42b8:	e1a0000e 	mov	r0, lr
    42bc:	e1a0100c 	mov	r1, ip
    42c0:	e8bd41f0 	pop	{r4, r5, r6, r7, r8, lr}
    42c4:	e12fff1e 	bx	lr
    42c8:	e3540033 	cmp	r4, #51	; 0x33
    42cc:	da000007 	ble	42f0 <floor+0xc0>
    42d0:	e3540b01 	cmp	r4, #1024	; 0x400
    42d4:	1afffff7 	bne	42b8 <floor+0x88>
    42d8:	e1a02000 	mov	r2, r0
    42dc:	e1a03001 	mov	r3, r1
    42e0:	eb000745 	bl	5ffc <__adddf3>
    42e4:	e1a0e000 	mov	lr, r0
    42e8:	e1a0c001 	mov	ip, r1
    42ec:	eafffff1 	b	42b8 <floor+0x88>
    42f0:	e3e08000 	mvn	r8, #0
    42f4:	e2433e41 	sub	r3, r3, #1040	; 0x410
    42f8:	e2433003 	sub	r3, r3, #3
    42fc:	e1a08338 	lsr	r8, r8, r3
    4300:	e1100008 	tst	r0, r8
    4304:	0affffeb 	beq	42b8 <floor+0x88>
    4308:	e28f30a8 	add	r3, pc, #168	; 0xa8
    430c:	e893000c 	ldm	r3, {r2, r3}
    4310:	eb000739 	bl	5ffc <__adddf3>
    4314:	e3a02000 	mov	r2, #0
    4318:	e3a03000 	mov	r3, #0
    431c:	eb0009ac 	bl	69d4 <__aeabi_dcmpgt>
    4320:	e3500000 	cmp	r0, #0
    4324:	0affffe1 	beq	42b0 <floor+0x80>
    4328:	e3550000 	cmp	r5, #0
    432c:	ba000016 	blt	438c <floor+0x15c>
    4330:	e1a05007 	mov	r5, r7
    4334:	e1c66008 	bic	r6, r6, r8
    4338:	e1a0e006 	mov	lr, r6
    433c:	e1a0c005 	mov	ip, r5
    4340:	eaffffdc 	b	42b8 <floor+0x88>
    4344:	e28f306c 	add	r3, pc, #108	; 0x6c
    4348:	e893000c 	ldm	r3, {r2, r3}
    434c:	eb00072a 	bl	5ffc <__adddf3>
    4350:	e3a02000 	mov	r2, #0
    4354:	e3a03000 	mov	r3, #0
    4358:	eb00099d 	bl	69d4 <__aeabi_dcmpgt>
    435c:	e3500000 	cmp	r0, #0
    4360:	0affffd2 	beq	42b0 <floor+0x80>
    4364:	e3550000 	cmp	r5, #0
    4368:	a3a06000 	movge	r6, #0
    436c:	a1a05006 	movge	r5, r6
    4370:	aaffffce 	bge	42b0 <floor+0x80>
    4374:	e3c52102 	bic	r2, r5, #-2147483648	; 0x80000000
    4378:	e59f3048 	ldr	r3, [pc, #72]	; 43c8 <floor+0x198>
    437c:	e1922006 	orrs	r2, r2, r6
    4380:	11a05003 	movne	r5, r3
    4384:	e3a06000 	mov	r6, #0
    4388:	eaffffc8 	b	42b0 <floor+0x80>
    438c:	e3540014 	cmp	r4, #20
    4390:	02857001 	addeq	r7, r5, #1
    4394:	0affffe5 	beq	4330 <floor+0x100>
    4398:	e3a03001 	mov	r3, #1
    439c:	e2644034 	rsb	r4, r4, #52	; 0x34
    43a0:	e0864413 	add	r4, r6, r3, lsl r4
    43a4:	e1560004 	cmp	r6, r4
    43a8:	80877003 	addhi	r7, r7, r3
    43ac:	e1a06004 	mov	r6, r4
    43b0:	eaffffde 	b	4330 <floor+0x100>
    43b4:	e1a00000 	nop			; (mov r0, r0)
    43b8:	8800759c 	.word	0x8800759c
    43bc:	7e37e43c 	.word	0x7e37e43c
    43c0:	000007ff 	.word	0x000007ff
    43c4:	000fffff 	.word	0x000fffff
    43c8:	bff00000 	.word	0xbff00000

000043cc <matherr>:
    43cc:	e3a00000 	mov	r0, #0
    43d0:	e12fff1e 	bx	lr
    43d4:	00000000 	andeq	r0, r0, r0

000043d8 <scalbn>:
    43d8:	e92d41f0 	push	{r4, r5, r6, r7, r8, lr}
    43dc:	e59f6154 	ldr	r6, [pc, #340]	; 4538 <scalbn+0x160>
    43e0:	e016ca41 	ands	ip, r6, r1, asr #20
    43e4:	e1a04000 	mov	r4, r0
    43e8:	e1a05001 	mov	r5, r1
    43ec:	e1a03001 	mov	r3, r1
    43f0:	e1a07002 	mov	r7, r2
    43f4:	1a00001a 	bne	4464 <scalbn+0x8c>
    43f8:	e3c13102 	bic	r3, r1, #-2147483648	; 0x80000000
    43fc:	e1933000 	orrs	r3, r3, r0
    4400:	0a000015 	beq	445c <scalbn+0x84>
    4404:	e59f3130 	ldr	r3, [pc, #304]	; 453c <scalbn+0x164>
    4408:	e3a02000 	mov	r2, #0
    440c:	eb0007fe 	bl	640c <__aeabi_dmul>
    4410:	e59f3128 	ldr	r3, [pc, #296]	; 4540 <scalbn+0x168>
    4414:	e1570003 	cmp	r7, r3
    4418:	a006ca41 	andge	ip, r6, r1, asr #20
    441c:	e1a04000 	mov	r4, r0
    4420:	e1a05001 	mov	r5, r1
    4424:	e1a03001 	mov	r3, r1
    4428:	a24cc036 	subge	ip, ip, #54	; 0x36
    442c:	ba00001d 	blt	44a8 <scalbn+0xd0>
    4430:	e59f210c 	ldr	r2, [pc, #268]	; 4544 <scalbn+0x16c>
    4434:	e087c00c 	add	ip, r7, ip
    4438:	e15c0002 	cmp	ip, r2
    443c:	ca00001e 	bgt	44bc <scalbn+0xe4>
    4440:	e35c0000 	cmp	ip, #0
    4444:	da00000d 	ble	4480 <scalbn+0xa8>
    4448:	e3c3347f 	bic	r3, r3, #2130706432	; 0x7f000000
    444c:	e3c3360f 	bic	r3, r3, #15728640	; 0xf00000
    4450:	e1835a0c 	orr	r5, r3, ip, lsl #20
    4454:	e1a00004 	mov	r0, r4
    4458:	e1a01005 	mov	r1, r5
    445c:	e8bd41f0 	pop	{r4, r5, r6, r7, r8, lr}
    4460:	e12fff1e 	bx	lr
    4464:	e15c0006 	cmp	ip, r6
    4468:	1afffff0 	bne	4430 <scalbn+0x58>
    446c:	e1a02000 	mov	r2, r0
    4470:	e1a03001 	mov	r3, r1
    4474:	eb0006e0 	bl	5ffc <__adddf3>
    4478:	e8bd41f0 	pop	{r4, r5, r6, r7, r8, lr}
    447c:	e12fff1e 	bx	lr
    4480:	e37c0035 	cmn	ip, #53	; 0x35
    4484:	aa000016 	bge	44e4 <scalbn+0x10c>
    4488:	e59f30b8 	ldr	r3, [pc, #184]	; 4548 <scalbn+0x170>
    448c:	e1570003 	cmp	r7, r3
    4490:	e1a02004 	mov	r2, r4
    4494:	e1a03005 	mov	r3, r5
    4498:	ca00001b 	bgt	450c <scalbn+0x134>
    449c:	e28f1084 	add	r1, pc, #132	; 0x84
    44a0:	e8910003 	ldm	r1, {r0, r1}
    44a4:	eb000030 	bl	456c <copysign>
    44a8:	e28f3078 	add	r3, pc, #120	; 0x78
    44ac:	e893000c 	ldm	r3, {r2, r3}
    44b0:	eb0007d5 	bl	640c <__aeabi_dmul>
    44b4:	e8bd41f0 	pop	{r4, r5, r6, r7, r8, lr}
    44b8:	e12fff1e 	bx	lr
    44bc:	e1a02004 	mov	r2, r4
    44c0:	e1a03005 	mov	r3, r5
    44c4:	e28f1064 	add	r1, pc, #100	; 0x64
    44c8:	e8910003 	ldm	r1, {r0, r1}
    44cc:	eb000026 	bl	456c <copysign>
    44d0:	e28f3058 	add	r3, pc, #88	; 0x58
    44d4:	e893000c 	ldm	r3, {r2, r3}
    44d8:	eb0007cb 	bl	640c <__aeabi_dmul>
    44dc:	e8bd41f0 	pop	{r4, r5, r6, r7, r8, lr}
    44e0:	e12fff1e 	bx	lr
    44e4:	e3c3347f 	bic	r3, r3, #2130706432	; 0x7f000000
    44e8:	e3c3360f 	bic	r3, r3, #15728640	; 0xf00000
    44ec:	e28cc036 	add	ip, ip, #54	; 0x36
    44f0:	e1835a0c 	orr	r5, r3, ip, lsl #20
    44f4:	e1a00004 	mov	r0, r4
    44f8:	e1a01005 	mov	r1, r5
    44fc:	e3a02000 	mov	r2, #0
    4500:	e59f3044 	ldr	r3, [pc, #68]	; 454c <scalbn+0x174>
    4504:	eb0007c0 	bl	640c <__aeabi_dmul>
    4508:	eaffffd3 	b	445c <scalbn+0x84>
    450c:	e28f101c 	add	r1, pc, #28
    4510:	e8910003 	ldm	r1, {r0, r1}
    4514:	eb000014 	bl	456c <copysign>
    4518:	e28f3010 	add	r3, pc, #16
    451c:	e893000c 	ldm	r3, {r2, r3}
    4520:	eb0007b9 	bl	640c <__aeabi_dmul>
    4524:	eaffffcc 	b	445c <scalbn+0x84>
    4528:	c2f8f359 	.word	0xc2f8f359
    452c:	01a56e1f 	.word	0x01a56e1f
    4530:	8800759c 	.word	0x8800759c
    4534:	7e37e43c 	.word	0x7e37e43c
    4538:	000007ff 	.word	0x000007ff
    453c:	43500000 	.word	0x43500000
    4540:	ffff3cb0 	.word	0xffff3cb0
    4544:	000007fe 	.word	0x000007fe
    4548:	0000c350 	.word	0x0000c350
    454c:	3c900000 	.word	0x3c900000

00004550 <finitef>:
    4550:	e59f3010 	ldr	r3, [pc, #16]	; 4568 <finitef+0x18>
    4554:	e3c00102 	bic	r0, r0, #-2147483648	; 0x80000000
    4558:	e1500003 	cmp	r0, r3
    455c:	c3a00000 	movgt	r0, #0
    4560:	d3a00001 	movle	r0, #1
    4564:	e12fff1e 	bx	lr
    4568:	7f7fffff 	.word	0x7f7fffff

0000456c <copysign>:
    456c:	e2033102 	and	r3, r3, #-2147483648	; 0x80000000
    4570:	e3c12102 	bic	r2, r1, #-2147483648	; 0x80000000
    4574:	e1821003 	orr	r1, r2, r3
    4578:	e12fff1e 	bx	lr

0000457c <rte_handler>:
    457c:	4b01      	ldr	r3, [pc, #4]	; (4584 <rte_handler+0x8>)
    457e:	2208      	movs	r2, #8
    4580:	701a      	strb	r2, [r3, #0]
    4582:	4770      	bx	lr
    4584:	e5007f2b 	.word	0xe5007f2b

00004588 <sark_cpu_state>:
    4588:	4b02      	ldr	r3, [pc, #8]	; (4594 <sark_cpu_state+0xc>)
    458a:	69db      	ldr	r3, [r3, #28]
    458c:	332e      	adds	r3, #46	; 0x2e
    458e:	7018      	strb	r0, [r3, #0]
    4590:	4770      	bx	lr
    4592:	46c0      	nop			; (mov r8, r8)
    4594:	0040092c 	.word	0x0040092c

00004598 <sark_app_lead>:
    4598:	235c      	movs	r3, #92	; 0x5c
    459a:	781a      	ldrb	r2, [r3, #0]
    459c:	4b02      	ldr	r3, [pc, #8]	; (45a8 <sark_app_lead+0x10>)
    459e:	00d2      	lsls	r2, r2, #3
    45a0:	681b      	ldr	r3, [r3, #0]
    45a2:	189b      	adds	r3, r3, r2
    45a4:	78d8      	ldrb	r0, [r3, #3]
    45a6:	4770      	bx	lr
    45a8:	e5007fe4 	.word	0xe5007fe4

000045ac <sark_block_init>:
    45ac:	b530      	push	{r4, r5, lr}
    45ae:	000b      	movs	r3, r1
    45b0:	0004      	movs	r4, r0
    45b2:	3b01      	subs	r3, #1
    45b4:	2b00      	cmp	r3, #0
    45b6:	d104      	bne.n	45c2 <sark_block_init+0x16>
    45b8:	3901      	subs	r1, #1
    45ba:	434a      	muls	r2, r1
    45bc:	1880      	adds	r0, r0, r2
    45be:	6003      	str	r3, [r0, #0]
    45c0:	bd30      	pop	{r4, r5, pc}
    45c2:	18a5      	adds	r5, r4, r2
    45c4:	6025      	str	r5, [r4, #0]
    45c6:	002c      	movs	r4, r5
    45c8:	e7f3      	b.n	45b2 <sark_block_init+0x6>
	...

000045cc <sark_msg_get>:
    45cc:	b510      	push	{r4, lr}
    45ce:	f7fb edfc 	blx	1c8 <cpu_int_disable>
    45d2:	4a09      	ldr	r2, [pc, #36]	; (45f8 <sark_msg_get+0x2c>)
    45d4:	6a14      	ldr	r4, [r2, #32]
    45d6:	2c00      	cmp	r4, #0
    45d8:	d00a      	beq.n	45f0 <sark_msg_get+0x24>
    45da:	6823      	ldr	r3, [r4, #0]
    45dc:	6213      	str	r3, [r2, #32]
    45de:	8c93      	ldrh	r3, [r2, #36]	; 0x24
    45e0:	8cd1      	ldrh	r1, [r2, #38]	; 0x26
    45e2:	3301      	adds	r3, #1
    45e4:	041b      	lsls	r3, r3, #16
    45e6:	0c1b      	lsrs	r3, r3, #16
    45e8:	8493      	strh	r3, [r2, #36]	; 0x24
    45ea:	4299      	cmp	r1, r3
    45ec:	d200      	bcs.n	45f0 <sark_msg_get+0x24>
    45ee:	84d3      	strh	r3, [r2, #38]	; 0x26
    45f0:	f7fb edf2 	blx	1d8 <cpu_int_restore>
    45f4:	0020      	movs	r0, r4
    45f6:	bd10      	pop	{r4, pc}
    45f8:	0040092c 	.word	0x0040092c

000045fc <sark_msg_free>:
    45fc:	b510      	push	{r4, lr}
    45fe:	0004      	movs	r4, r0
    4600:	f7fb ede2 	blx	1c8 <cpu_int_disable>
    4604:	4b04      	ldr	r3, [pc, #16]	; (4618 <sark_msg_free+0x1c>)
    4606:	6a1a      	ldr	r2, [r3, #32]
    4608:	6022      	str	r2, [r4, #0]
    460a:	8c9a      	ldrh	r2, [r3, #36]	; 0x24
    460c:	621c      	str	r4, [r3, #32]
    460e:	3a01      	subs	r2, #1
    4610:	849a      	strh	r2, [r3, #36]	; 0x24
    4612:	f7fb ede2 	blx	1d8 <cpu_int_restore>
    4616:	bd10      	pop	{r4, pc}
    4618:	0040092c 	.word	0x0040092c

0000461c <sark_shmsg_get>:
    461c:	b510      	push	{r4, lr}
    461e:	2000      	movs	r0, #0
    4620:	f7fb ede2 	blx	1e8 <sark_lock_get>
    4624:	4a09      	ldr	r2, [pc, #36]	; (464c <sark_shmsg_get+0x30>)
    4626:	6814      	ldr	r4, [r2, #0]
    4628:	2c00      	cmp	r4, #0
    462a:	d00a      	beq.n	4642 <sark_shmsg_get+0x26>
    462c:	6823      	ldr	r3, [r4, #0]
    462e:	6013      	str	r3, [r2, #0]
    4630:	8893      	ldrh	r3, [r2, #4]
    4632:	88d1      	ldrh	r1, [r2, #6]
    4634:	3301      	adds	r3, #1
    4636:	041b      	lsls	r3, r3, #16
    4638:	0c1b      	lsrs	r3, r3, #16
    463a:	8093      	strh	r3, [r2, #4]
    463c:	4299      	cmp	r1, r3
    463e:	d200      	bcs.n	4642 <sark_shmsg_get+0x26>
    4640:	80d3      	strh	r3, [r2, #6]
    4642:	2100      	movs	r1, #0
    4644:	f7fb ede2 	blx	20c <sark_lock_free>
    4648:	0020      	movs	r0, r4
    464a:	bd10      	pop	{r4, pc}
    464c:	e5007f68 	.word	0xe5007f68

00004650 <sark_shmsg_free>:
    4650:	b510      	push	{r4, lr}
    4652:	0004      	movs	r4, r0
    4654:	2000      	movs	r0, #0
    4656:	f7fb edc8 	blx	1e8 <sark_lock_get>
    465a:	4b05      	ldr	r3, [pc, #20]	; (4670 <sark_shmsg_free+0x20>)
    465c:	2100      	movs	r1, #0
    465e:	681a      	ldr	r2, [r3, #0]
    4660:	6022      	str	r2, [r4, #0]
    4662:	889a      	ldrh	r2, [r3, #4]
    4664:	601c      	str	r4, [r3, #0]
    4666:	3a01      	subs	r2, #1
    4668:	809a      	strh	r2, [r3, #4]
    466a:	f7fb edd0 	blx	20c <sark_lock_free>
    466e:	bd10      	pop	{r4, pc}
    4670:	e5007f68 	.word	0xe5007f68

00004674 <sark_call_cpp_constructors>:
    4674:	b510      	push	{r4, lr}
    4676:	4c04      	ldr	r4, [pc, #16]	; (4688 <sark_call_cpp_constructors+0x14>)
    4678:	4b04      	ldr	r3, [pc, #16]	; (468c <sark_call_cpp_constructors+0x18>)
    467a:	429c      	cmp	r4, r3
    467c:	d300      	bcc.n	4680 <sark_call_cpp_constructors+0xc>
    467e:	bd10      	pop	{r4, pc}
    4680:	cc08      	ldmia	r4!, {r3}
    4682:	4798      	blx	r3
    4684:	e7f8      	b.n	4678 <sark_call_cpp_constructors+0x4>
    4686:	46c0      	nop			; (mov r8, r8)
    4688:	00007370 	.word	0x00007370
    468c:	00007370 	.word	0x00007370

00004690 <sark_init>:
    4690:	b570      	push	{r4, r5, r6, lr}
    4692:	2520      	movs	r5, #32
    4694:	0004      	movs	r4, r0
    4696:	8c28      	ldrh	r0, [r5, #32]
    4698:	8c6a      	ldrh	r2, [r5, #34]	; 0x22
    469a:	0080      	lsls	r0, r0, #2
    469c:	1a20      	subs	r0, r4, r0
    469e:	21d2      	movs	r1, #210	; 0xd2
    46a0:	f7fb ed76 	blx	190 <cpu_init_mode>
    46a4:	8caa      	ldrh	r2, [r5, #36]	; 0x24
    46a6:	21d1      	movs	r1, #209	; 0xd1
    46a8:	f7fb ed72 	blx	190 <cpu_init_mode>
    46ac:	2200      	movs	r2, #0
    46ae:	21df      	movs	r1, #223	; 0xdf
    46b0:	f7fb ed6e 	blx	190 <cpu_init_mode>
    46b4:	8ce9      	ldrh	r1, [r5, #38]	; 0x26
    46b6:	2658      	movs	r6, #88	; 0x58
    46b8:	0889      	lsrs	r1, r1, #2
    46ba:	0089      	lsls	r1, r1, #2
    46bc:	1a61      	subs	r1, r4, r1
    46be:	4c37      	ldr	r4, [pc, #220]	; (479c <sark_init+0x10c>)
    46c0:	6121      	str	r1, [r4, #16]
    46c2:	6ae8      	ldr	r0, [r5, #44]	; 0x2c
    46c4:	6160      	str	r0, [r4, #20]
    46c6:	f000 fb57 	bl	4d78 <sark_heap_init>
    46ca:	4b35      	ldr	r3, [pc, #212]	; (47a0 <sark_init+0x110>)
    46cc:	4a35      	ldr	r2, [pc, #212]	; (47a4 <sark_init+0x114>)
    46ce:	681b      	ldr	r3, [r3, #0]
    46d0:	4d35      	ldr	r5, [pc, #212]	; (47a8 <sark_init+0x118>)
    46d2:	0e1b      	lsrs	r3, r3, #24
    46d4:	6063      	str	r3, [r4, #4]
    46d6:	189b      	adds	r3, r3, r2
    46d8:	2192      	movs	r1, #146	; 0x92
    46da:	0049      	lsls	r1, r1, #1
    46dc:	61a0      	str	r0, [r4, #24]
    46de:	781b      	ldrb	r3, [r3, #0]
    46e0:	6023      	str	r3, [r4, #0]
    46e2:	8cab      	ldrh	r3, [r5, #36]	; 0x24
    46e4:	8623      	strh	r3, [r4, #48]	; 0x30
    46e6:	4b31      	ldr	r3, [pc, #196]	; (47ac <sark_init+0x11c>)
    46e8:	60a3      	str	r3, [r4, #8]
    46ea:	7830      	ldrb	r0, [r6, #0]
    46ec:	f000 fb38 	bl	4d60 <sark_alloc>
    46f0:	2292      	movs	r2, #146	; 0x92
    46f2:	0052      	lsls	r2, r2, #1
    46f4:	6220      	str	r0, [r4, #32]
    46f6:	7831      	ldrb	r1, [r6, #0]
    46f8:	f7ff ff58 	bl	45ac <sark_block_init>
    46fc:	4b2c      	ldr	r3, [pc, #176]	; (47b0 <sark_init+0x120>)
    46fe:	221f      	movs	r2, #31
    4700:	681b      	ldr	r3, [r3, #0]
    4702:	4013      	ands	r3, r2
    4704:	6862      	ldr	r2, [r4, #4]
    4706:	429a      	cmp	r2, r3
    4708:	d032      	beq.n	4770 <sark_init+0xe0>
    470a:	6823      	ldr	r3, [r4, #0]
    470c:	4a29      	ldr	r2, [pc, #164]	; (47b4 <sark_init+0x124>)
    470e:	01d8      	lsls	r0, r3, #7
    4710:	1880      	adds	r0, r0, r2
    4712:	6daa      	ldr	r2, [r5, #88]	; 0x58
    4714:	2100      	movs	r1, #0
    4716:	435a      	muls	r2, r3
    4718:	0093      	lsls	r3, r2, #2
    471a:	6d6a      	ldr	r2, [r5, #84]	; 0x54
    471c:	61e0      	str	r0, [r4, #28]
    471e:	18d3      	adds	r3, r2, r3
    4720:	2270      	movs	r2, #112	; 0x70
    4722:	6363      	str	r3, [r4, #52]	; 0x34
    4724:	f7fb ed86 	blx	234 <sark_word_set>
    4728:	69e0      	ldr	r0, [r4, #28]
    472a:	2205      	movs	r2, #5
    472c:	0003      	movs	r3, r0
    472e:	332e      	adds	r3, #46	; 0x2e
    4730:	701a      	strb	r2, [r3, #0]
    4732:	6862      	ldr	r2, [r4, #4]
    4734:	3b01      	subs	r3, #1
    4736:	701a      	strb	r2, [r3, #0]
    4738:	225c      	movs	r2, #92	; 0x5c
    473a:	7812      	ldrb	r2, [r2, #0]
    473c:	709a      	strb	r2, [r3, #2]
    473e:	69eb      	ldr	r3, [r5, #28]
    4740:	6443      	str	r3, [r0, #68]	; 0x44
    4742:	4b1d      	ldr	r3, [pc, #116]	; (47b8 <sark_init+0x128>)
    4744:	65c3      	str	r3, [r0, #92]	; 0x5c
    4746:	491d      	ldr	r1, [pc, #116]	; (47bc <sark_init+0x12c>)
    4748:	3048      	adds	r0, #72	; 0x48
    474a:	f7fb ed6a 	blx	220 <sark_str_cpy>
    474e:	4b1c      	ldr	r3, [pc, #112]	; (47c0 <sark_init+0x130>)
    4750:	22ff      	movs	r2, #255	; 0xff
    4752:	681b      	ldr	r3, [r3, #0]
    4754:	0412      	lsls	r2, r2, #16
    4756:	21c0      	movs	r1, #192	; 0xc0
    4758:	401a      	ands	r2, r3
    475a:	0289      	lsls	r1, r1, #10
    475c:	428a      	cmp	r2, r1
    475e:	d104      	bne.n	476a <sark_init+0xda>
    4760:	22ff      	movs	r2, #255	; 0xff
    4762:	0212      	lsls	r2, r2, #8
    4764:	4013      	ands	r3, r2
    4766:	2bff      	cmp	r3, #255	; 0xff
    4768:	d802      	bhi.n	4770 <sark_init+0xe0>
    476a:	2014      	movs	r0, #20
    476c:	f7fb ecde 	blx	12c <rt_error>
    4770:	f000 fa34 	bl	4bdc <sark_vic_init>
    4774:	2359      	movs	r3, #89	; 0x59
    4776:	7818      	ldrb	r0, [r3, #0]
    4778:	2201      	movs	r2, #1
    477a:	4b12      	ldr	r3, [pc, #72]	; (47c4 <sark_init+0x134>)
    477c:	2112      	movs	r1, #18
    477e:	f000 fa55 	bl	4c2c <sark_vic_set>
    4782:	2201      	movs	r2, #1
    4784:	2106      	movs	r1, #6
    4786:	4b10      	ldr	r3, [pc, #64]	; (47c8 <sark_init+0x138>)
    4788:	2010      	movs	r0, #16
    478a:	f000 fa4f 	bl	4c2c <sark_vic_set>
    478e:	235a      	movs	r3, #90	; 0x5a
    4790:	7818      	ldrb	r0, [r3, #0]
    4792:	f000 fa05 	bl	4ba0 <event_alloc>
    4796:	201f      	movs	r0, #31
    4798:	bd70      	pop	{r4, r5, r6, pc}
    479a:	46c0      	nop			; (mov r8, r8)
    479c:	0040092c 	.word	0x0040092c
    47a0:	40000014 	.word	0x40000014
    47a4:	e5007f94 	.word	0xe5007f94
    47a8:	e5007f00 	.word	0xe5007f00
    47ac:	deaddead 	.word	0xdeaddead
    47b0:	e2000034 	.word	0xe2000034
    47b4:	e5007000 	.word	0xe5007000
    47b8:	00030100 	.word	0x00030100
    47bc:	00007608 	.word	0x00007608
    47c0:	e5007ffc 	.word	0xe5007ffc
    47c4:	00000300 	.word	0x00000300
    47c8:	00004c6c 	.word	0x00004c6c

000047cc <sark_msg_send>:
    47cc:	b5f8      	push	{r3, r4, r5, r6, r7, lr}
    47ce:	0004      	movs	r4, r0
    47d0:	000f      	movs	r7, r1
    47d2:	f7ff ff23 	bl	461c <sark_shmsg_get>
    47d6:	1e06      	subs	r6, r0, #0
    47d8:	d032      	beq.n	4840 <sark_msg_send+0x74>
    47da:	0021      	movs	r1, r4
    47dc:	f7fb ed3c 	blx	258 <sark_msg_cpy>
    47e0:	4d1a      	ldr	r5, [pc, #104]	; (484c <sark_msg_send+0x80>)
    47e2:	2401      	movs	r4, #1
    47e4:	69eb      	ldr	r3, [r5, #28]
    47e6:	0020      	movs	r0, r4
    47e8:	635e      	str	r6, [r3, #52]	; 0x34
    47ea:	3339      	adds	r3, #57	; 0x39
    47ec:	701c      	strb	r4, [r3, #0]
    47ee:	f7fb ecfc 	blx	1e8 <sark_lock_get>
    47f2:	4b17      	ldr	r3, [pc, #92]	; (4850 <sark_msg_send+0x84>)
    47f4:	6829      	ldr	r1, [r5, #0]
    47f6:	681a      	ldr	r2, [r3, #0]
    47f8:	469c      	mov	ip, r3
    47fa:	0023      	movs	r3, r4
    47fc:	408b      	lsls	r3, r1
    47fe:	4313      	orrs	r3, r2
    4800:	4661      	mov	r1, ip
    4802:	600b      	str	r3, [r1, #0]
    4804:	2a00      	cmp	r2, #0
    4806:	d106      	bne.n	4816 <sark_msg_send+0x4a>
    4808:	4b12      	ldr	r3, [pc, #72]	; (4854 <sark_msg_send+0x88>)
    480a:	781b      	ldrb	r3, [r3, #0]
    480c:	409c      	lsls	r4, r3
    480e:	4b12      	ldr	r3, [pc, #72]	; (4858 <sark_msg_send+0x8c>)
    4810:	18e4      	adds	r4, r4, r3
    4812:	4b12      	ldr	r3, [pc, #72]	; (485c <sark_msg_send+0x90>)
    4814:	601c      	str	r4, [r3, #0]
    4816:	2101      	movs	r1, #1
    4818:	f7fb ecf8 	blx	20c <sark_lock_free>
    481c:	4a10      	ldr	r2, [pc, #64]	; (4860 <sark_msg_send+0x94>)
    481e:	69eb      	ldr	r3, [r5, #28]
    4820:	6810      	ldr	r0, [r2, #0]
    4822:	3339      	adds	r3, #57	; 0x39
    4824:	7819      	ldrb	r1, [r3, #0]
    4826:	2900      	cmp	r1, #0
    4828:	d003      	beq.n	4832 <sark_msg_send+0x66>
    482a:	6811      	ldr	r1, [r2, #0]
    482c:	1a09      	subs	r1, r1, r0
    482e:	42b9      	cmp	r1, r7
    4830:	d9f8      	bls.n	4824 <sark_msg_send+0x58>
    4832:	781b      	ldrb	r3, [r3, #0]
    4834:	2b00      	cmp	r3, #0
    4836:	d004      	beq.n	4842 <sark_msg_send+0x76>
    4838:	0030      	movs	r0, r6
    483a:	f7ff ff09 	bl	4650 <sark_shmsg_free>
    483e:	2000      	movs	r0, #0
    4840:	bdf8      	pop	{r3, r4, r5, r6, r7, pc}
    4842:	6aeb      	ldr	r3, [r5, #44]	; 0x2c
    4844:	2001      	movs	r0, #1
    4846:	3301      	adds	r3, #1
    4848:	62eb      	str	r3, [r5, #44]	; 0x2c
    484a:	e7f9      	b.n	4840 <sark_msg_send+0x74>
    484c:	0040092c 	.word	0x0040092c
    4850:	e5007fec 	.word	0xe5007fec
    4854:	e5007fa8 	.word	0xe5007fa8
    4858:	5ec00000 	.word	0x5ec00000
    485c:	e2000008 	.word	0xe2000008
    4860:	e5007f10 	.word	0xe5007f10

00004864 <sark_cmd_ver>:
    4864:	4a0d      	ldr	r2, [pc, #52]	; (489c <sark_cmd_ver+0x38>)
    4866:	b510      	push	{r4, lr}
    4868:	6853      	ldr	r3, [r2, #4]
    486a:	6812      	ldr	r2, [r2, #0]
    486c:	021b      	lsls	r3, r3, #8
    486e:	189b      	adds	r3, r3, r2
    4870:	4a0b      	ldr	r2, [pc, #44]	; (48a0 <sark_cmd_ver+0x3c>)
    4872:	0004      	movs	r4, r0
    4874:	8812      	ldrh	r2, [r2, #0]
    4876:	490b      	ldr	r1, [pc, #44]	; (48a4 <sark_cmd_ver+0x40>)
    4878:	0412      	lsls	r2, r2, #16
    487a:	189b      	adds	r3, r3, r2
    487c:	6143      	str	r3, [r0, #20]
    487e:	4b0a      	ldr	r3, [pc, #40]	; (48a8 <sark_cmd_ver+0x44>)
    4880:	6183      	str	r3, [r0, #24]
    4882:	4b0a      	ldr	r3, [pc, #40]	; (48ac <sark_cmd_ver+0x48>)
    4884:	681b      	ldr	r3, [r3, #0]
    4886:	61c3      	str	r3, [r0, #28]
    4888:	3020      	adds	r0, #32
    488a:	f7fb ecca 	blx	220 <sark_str_cpy>
    488e:	0020      	movs	r0, r4
    4890:	302f      	adds	r0, #47	; 0x2f
    4892:	4907      	ldr	r1, [pc, #28]	; (48b0 <sark_cmd_ver+0x4c>)
    4894:	f7fb ecc4 	blx	220 <sark_str_cpy>
    4898:	2021      	movs	r0, #33	; 0x21
    489a:	bd10      	pop	{r4, pc}
    489c:	0040092c 	.word	0x0040092c
    48a0:	e5007f00 	.word	0xe5007f00
    48a4:	00007b18 	.word	0x00007b18
    48a8:	ffff0100 	.word	0xffff0100
    48ac:	00007610 	.word	0x00007610
    48b0:	00007b27 	.word	0x00007b27

000048b4 <sark_cmd_read>:
    48b4:	6981      	ldr	r1, [r0, #24]
    48b6:	2380      	movs	r3, #128	; 0x80
    48b8:	b530      	push	{r4, r5, lr}
    48ba:	005b      	lsls	r3, r3, #1
    48bc:	4299      	cmp	r1, r3
    48be:	d802      	bhi.n	48c6 <sark_cmd_read+0x12>
    48c0:	69c2      	ldr	r2, [r0, #28]
    48c2:	2a02      	cmp	r2, #2
    48c4:	d904      	bls.n	48d0 <sark_cmd_read+0x1c>
    48c6:	2384      	movs	r3, #132	; 0x84
    48c8:	2100      	movs	r1, #0
    48ca:	8203      	strh	r3, [r0, #16]
    48cc:	0008      	movs	r0, r1
    48ce:	bd30      	pop	{r4, r5, pc}
    48d0:	0003      	movs	r3, r0
    48d2:	6944      	ldr	r4, [r0, #20]
    48d4:	3314      	adds	r3, #20
    48d6:	2a00      	cmp	r2, #0
    48d8:	d00f      	beq.n	48fa <sark_cmd_read+0x46>
    48da:	2a01      	cmp	r2, #1
    48dc:	d110      	bne.n	4900 <sark_cmd_read+0x4c>
    48de:	084a      	lsrs	r2, r1, #1
    48e0:	0052      	lsls	r2, r2, #1
    48e2:	189a      	adds	r2, r3, r2
    48e4:	0018      	movs	r0, r3
    48e6:	4290      	cmp	r0, r2
    48e8:	d0f0      	beq.n	48cc <sark_cmd_read+0x18>
    48ea:	1ac5      	subs	r5, r0, r3
    48ec:	5b2d      	ldrh	r5, [r5, r4]
    48ee:	8005      	strh	r5, [r0, #0]
    48f0:	3002      	adds	r0, #2
    48f2:	e7f8      	b.n	48e6 <sark_cmd_read+0x32>
    48f4:	5d10      	ldrb	r0, [r2, r4]
    48f6:	5498      	strb	r0, [r3, r2]
    48f8:	3201      	adds	r2, #1
    48fa:	428a      	cmp	r2, r1
    48fc:	d1fa      	bne.n	48f4 <sark_cmd_read+0x40>
    48fe:	e7e5      	b.n	48cc <sark_cmd_read+0x18>
    4900:	088a      	lsrs	r2, r1, #2
    4902:	0092      	lsls	r2, r2, #2
    4904:	189a      	adds	r2, r3, r2
    4906:	0018      	movs	r0, r3
    4908:	4290      	cmp	r0, r2
    490a:	d0df      	beq.n	48cc <sark_cmd_read+0x18>
    490c:	1ac5      	subs	r5, r0, r3
    490e:	592d      	ldr	r5, [r5, r4]
    4910:	c020      	stmia	r0!, {r5}
    4912:	e7f9      	b.n	4908 <sark_cmd_read+0x54>

00004914 <sark_cmd_write>:
    4914:	6983      	ldr	r3, [r0, #24]
    4916:	2280      	movs	r2, #128	; 0x80
    4918:	b530      	push	{r4, r5, lr}
    491a:	0052      	lsls	r2, r2, #1
    491c:	4293      	cmp	r3, r2
    491e:	d802      	bhi.n	4926 <sark_cmd_write+0x12>
    4920:	69c1      	ldr	r1, [r0, #28]
    4922:	2902      	cmp	r1, #2
    4924:	d903      	bls.n	492e <sark_cmd_write+0x1a>
    4926:	2384      	movs	r3, #132	; 0x84
    4928:	8203      	strh	r3, [r0, #16]
    492a:	2000      	movs	r0, #0
    492c:	bd30      	pop	{r4, r5, pc}
    492e:	6942      	ldr	r2, [r0, #20]
    4930:	3020      	adds	r0, #32
    4932:	2900      	cmp	r1, #0
    4934:	d108      	bne.n	4948 <sark_cmd_write+0x34>
    4936:	18c3      	adds	r3, r0, r3
    4938:	0001      	movs	r1, r0
    493a:	4299      	cmp	r1, r3
    493c:	d0f5      	beq.n	492a <sark_cmd_write+0x16>
    493e:	780d      	ldrb	r5, [r1, #0]
    4940:	1a0c      	subs	r4, r1, r0
    4942:	54a5      	strb	r5, [r4, r2]
    4944:	3101      	adds	r1, #1
    4946:	e7f8      	b.n	493a <sark_cmd_write+0x26>
    4948:	2901      	cmp	r1, #1
    494a:	d10a      	bne.n	4962 <sark_cmd_write+0x4e>
    494c:	085b      	lsrs	r3, r3, #1
    494e:	005b      	lsls	r3, r3, #1
    4950:	18c3      	adds	r3, r0, r3
    4952:	0001      	movs	r1, r0
    4954:	4299      	cmp	r1, r3
    4956:	d0e8      	beq.n	492a <sark_cmd_write+0x16>
    4958:	880d      	ldrh	r5, [r1, #0]
    495a:	1a0c      	subs	r4, r1, r0
    495c:	52a5      	strh	r5, [r4, r2]
    495e:	3102      	adds	r1, #2
    4960:	e7f8      	b.n	4954 <sark_cmd_write+0x40>
    4962:	089b      	lsrs	r3, r3, #2
    4964:	009b      	lsls	r3, r3, #2
    4966:	18c3      	adds	r3, r0, r3
    4968:	0001      	movs	r1, r0
    496a:	4299      	cmp	r1, r3
    496c:	d0dd      	beq.n	492a <sark_cmd_write+0x16>
    496e:	1a0c      	subs	r4, r1, r0
    4970:	680d      	ldr	r5, [r1, #0]
    4972:	50a5      	str	r5, [r4, r2]
    4974:	3104      	adds	r1, #4
    4976:	e7f8      	b.n	496a <sark_cmd_write+0x56>

00004978 <sark_cmd_fill>:
    4978:	b510      	push	{r4, lr}
    497a:	69c2      	ldr	r2, [r0, #28]
    497c:	6981      	ldr	r1, [r0, #24]
    497e:	6940      	ldr	r0, [r0, #20]
    4980:	f7fb ec58 	blx	234 <sark_word_set>
    4984:	2000      	movs	r0, #0
    4986:	bd10      	pop	{r4, pc}

00004988 <sark_wait>:
    4988:	b570      	push	{r4, r5, r6, lr}
    498a:	255d      	movs	r5, #93	; 0x5d
    498c:	2401      	movs	r4, #1
    498e:	782b      	ldrb	r3, [r5, #0]
    4990:	4223      	tst	r3, r4
    4992:	d100      	bne.n	4996 <sark_wait+0xe>
    4994:	bd70      	pop	{r4, r5, r6, pc}
    4996:	f7fb ec24 	blx	1e0 <cpu_wfi>
    499a:	e7f8      	b.n	498e <sark_wait+0x6>

0000499c <sark_int>:
    499c:	b570      	push	{r4, r5, r6, lr}
    499e:	4d52      	ldr	r5, [pc, #328]	; (4ae8 <sark_int+0x14c>)
    49a0:	2301      	movs	r3, #1
    49a2:	686a      	ldr	r2, [r5, #4]
    49a4:	4093      	lsls	r3, r2
    49a6:	4a51      	ldr	r2, [pc, #324]	; (4aec <sark_int+0x150>)
    49a8:	189b      	adds	r3, r3, r2
    49aa:	4a51      	ldr	r2, [pc, #324]	; (4af0 <sark_int+0x154>)
    49ac:	6013      	str	r3, [r2, #0]
    49ae:	69ea      	ldr	r2, [r5, #28]
    49b0:	0011      	movs	r1, r2
    49b2:	3138      	adds	r1, #56	; 0x38
    49b4:	780b      	ldrb	r3, [r1, #0]
    49b6:	2b00      	cmp	r3, #0
    49b8:	d015      	beq.n	49e6 <sark_int+0x4a>
    49ba:	6b16      	ldr	r6, [r2, #48]	; 0x30
    49bc:	2b02      	cmp	r3, #2
    49be:	d100      	bne.n	49c2 <sark_int+0x26>
    49c0:	6310      	str	r0, [r2, #48]	; 0x30
    49c2:	2200      	movs	r2, #0
    49c4:	700a      	strb	r2, [r1, #0]
    49c6:	2b03      	cmp	r3, #3
    49c8:	d123      	bne.n	4a12 <sark_int+0x76>
    49ca:	1ef0      	subs	r0, r6, #3
    49cc:	280a      	cmp	r0, #10
    49ce:	d80a      	bhi.n	49e6 <sark_int+0x4a>
    49d0:	f7fb fcc8 	bl	364 <__gnu_thumb1_case_uqi>
    49d4:	06090910 	.word	0x06090910
    49d8:	161d0c0a 	.word	0x161d0c0a
    49dc:	1616      	.short	0x1616
    49de:	16          	.byte	0x16
    49df:	00          	.byte	0x00
    49e0:	2001      	movs	r0, #1
    49e2:	f000 f8bb 	bl	4b5c <event_pause>
    49e6:	bd70      	pop	{r4, r5, r6, pc}
    49e8:	2000      	movs	r0, #0
    49ea:	e7fa      	b.n	49e2 <sark_int+0x46>
    49ec:	20ff      	movs	r0, #255	; 0xff
    49ee:	f000 f8cb 	bl	4b88 <event_stop>
    49f2:	e7f8      	b.n	49e6 <sark_int+0x4a>
    49f4:	225d      	movs	r2, #93	; 0x5d
    49f6:	7813      	ldrb	r3, [r2, #0]
    49f8:	2101      	movs	r1, #1
    49fa:	438b      	bics	r3, r1
    49fc:	7013      	strb	r3, [r2, #0]
    49fe:	e7f2      	b.n	49e6 <sark_int+0x4a>
    4a00:	4b3c      	ldr	r3, [pc, #240]	; (4af4 <sark_int+0x158>)
    4a02:	2280      	movs	r2, #128	; 0x80
    4a04:	0592      	lsls	r2, r2, #22
    4a06:	62de      	str	r6, [r3, #44]	; 0x2c
    4a08:	4b3b      	ldr	r3, [pc, #236]	; (4af8 <sark_int+0x15c>)
    4a0a:	601a      	str	r2, [r3, #0]
    4a0c:	e7eb      	b.n	49e6 <sark_int+0x4a>
    4a0e:	2210      	movs	r2, #16
    4a10:	e7fa      	b.n	4a08 <sark_int+0x6c>
    4a12:	2b01      	cmp	r3, #1
    4a14:	d1e7      	bne.n	49e6 <sark_int+0x4a>
    4a16:	f7ff fdd9 	bl	45cc <sark_msg_get>
    4a1a:	1e04      	subs	r4, r0, #0
    4a1c:	d060      	beq.n	4ae0 <sark_int+0x144>
    4a1e:	0031      	movs	r1, r6
    4a20:	f7fb ec1a 	blx	258 <sark_msg_cpy>
    4a24:	0030      	movs	r0, r6
    4a26:	f7ff fe13 	bl	4650 <sark_shmsg_free>
    4a2a:	6aab      	ldr	r3, [r5, #40]	; 0x28
    4a2c:	3301      	adds	r3, #1
    4a2e:	62ab      	str	r3, [r5, #40]	; 0x28
    4a30:	7aa5      	ldrb	r5, [r4, #10]
    4a32:	231f      	movs	r3, #31
    4a34:	0028      	movs	r0, r5
    4a36:	4398      	bics	r0, r3
    4a38:	d133      	bne.n	4aa2 <sark_int+0x106>
    4a3a:	88a3      	ldrh	r3, [r4, #4]
    4a3c:	2b17      	cmp	r3, #23
    4a3e:	d802      	bhi.n	4a46 <sark_int+0xaa>
    4a40:	2381      	movs	r3, #129	; 0x81
    4a42:	8223      	strh	r3, [r4, #16]
    4a44:	e007      	b.n	4a56 <sark_int+0xba>
    4a46:	8a23      	ldrh	r3, [r4, #16]
    4a48:	2280      	movs	r2, #128	; 0x80
    4a4a:	8222      	strh	r2, [r4, #16]
    4a4c:	2b00      	cmp	r3, #0
    4a4e:	d114      	bne.n	4a7a <sark_int+0xde>
    4a50:	0020      	movs	r0, r4
    4a52:	f7ff ff07 	bl	4864 <sark_cmd_ver>
    4a56:	7aa2      	ldrb	r2, [r4, #10]
    4a58:	7ae1      	ldrb	r1, [r4, #11]
    4a5a:	300c      	adds	r0, #12
    4a5c:	89a3      	ldrh	r3, [r4, #12]
    4a5e:	72e2      	strb	r2, [r4, #11]
    4a60:	89e2      	ldrh	r2, [r4, #14]
    4a62:	80a0      	strh	r0, [r4, #4]
    4a64:	72a1      	strb	r1, [r4, #10]
    4a66:	81a2      	strh	r2, [r4, #12]
    4a68:	81e3      	strh	r3, [r4, #14]
    4a6a:	210a      	movs	r1, #10
    4a6c:	0020      	movs	r0, r4
    4a6e:	f7ff fead 	bl	47cc <sark_msg_send>
    4a72:	0020      	movs	r0, r4
    4a74:	f7ff fdc2 	bl	45fc <sark_msg_free>
    4a78:	e7b5      	b.n	49e6 <sark_int+0x4a>
    4a7a:	2b02      	cmp	r3, #2
    4a7c:	d103      	bne.n	4a86 <sark_int+0xea>
    4a7e:	0020      	movs	r0, r4
    4a80:	f7ff ff18 	bl	48b4 <sark_cmd_read>
    4a84:	e7e7      	b.n	4a56 <sark_int+0xba>
    4a86:	2b03      	cmp	r3, #3
    4a88:	d103      	bne.n	4a92 <sark_int+0xf6>
    4a8a:	0020      	movs	r0, r4
    4a8c:	f7ff ff42 	bl	4914 <sark_cmd_write>
    4a90:	e7e1      	b.n	4a56 <sark_int+0xba>
    4a92:	2b05      	cmp	r3, #5
    4a94:	d103      	bne.n	4a9e <sark_int+0x102>
    4a96:	0020      	movs	r0, r4
    4a98:	f7ff ff6e 	bl	4978 <sark_cmd_fill>
    4a9c:	e7db      	b.n	4a56 <sark_int+0xba>
    4a9e:	2383      	movs	r3, #131	; 0x83
    4aa0:	e7cf      	b.n	4a42 <sark_int+0xa6>
    4aa2:	235b      	movs	r3, #91	; 0x5b
    4aa4:	781b      	ldrb	r3, [r3, #0]
    4aa6:	2b00      	cmp	r3, #0
    4aa8:	d00f      	beq.n	4aca <sark_int+0x12e>
    4aaa:	4b14      	ldr	r3, [pc, #80]	; (4afc <sark_int+0x160>)
    4aac:	699b      	ldr	r3, [r3, #24]
    4aae:	2b00      	cmp	r3, #0
    4ab0:	d0df      	beq.n	4a72 <sark_int+0xd6>
    4ab2:	f7fb eb8a 	blx	1c8 <cpu_int_disable>
    4ab6:	096a      	lsrs	r2, r5, #5
    4ab8:	0021      	movs	r1, r4
    4aba:	0006      	movs	r6, r0
    4abc:	2003      	movs	r0, #3
    4abe:	f000 ffab 	bl	5a18 <schedule_sysmode>
    4ac2:	0030      	movs	r0, r6
    4ac4:	f7fb eb88 	blx	1d8 <cpu_int_restore>
    4ac8:	e78d      	b.n	49e6 <sark_int+0x4a>
    4aca:	4b0d      	ldr	r3, [pc, #52]	; (4b00 <sark_int+0x164>)
    4acc:	681a      	ldr	r2, [r3, #0]
    4ace:	2380      	movs	r3, #128	; 0x80
    4ad0:	055b      	lsls	r3, r3, #21
    4ad2:	421a      	tst	r2, r3
    4ad4:	d0cd      	beq.n	4a72 <sark_int+0xd6>
    4ad6:	4a07      	ldr	r2, [pc, #28]	; (4af4 <sark_int+0x158>)
    4ad8:	6294      	str	r4, [r2, #40]	; 0x28
    4ada:	4a07      	ldr	r2, [pc, #28]	; (4af8 <sark_int+0x15c>)
    4adc:	6013      	str	r3, [r2, #0]
    4ade:	e782      	b.n	49e6 <sark_int+0x4a>
    4ae0:	0030      	movs	r0, r6
    4ae2:	f7ff fdb5 	bl	4650 <sark_shmsg_free>
    4ae6:	e77e      	b.n	49e6 <sark_int+0x4a>
    4ae8:	0040092c 	.word	0x0040092c
    4aec:	5ec00000 	.word	0x5ec00000
    4af0:	e200000c 	.word	0xe200000c
    4af4:	00400968 	.word	0x00400968
    4af8:	1f000018 	.word	0x1f000018
    4afc:	00400bac 	.word	0x00400bac
    4b00:	1f000010 	.word	0x1f000010

00004b04 <event_wait>:
    4b04:	4b12      	ldr	r3, [pc, #72]	; (4b50 <event_wait+0x4c>)
    4b06:	b570      	push	{r4, r5, r6, lr}
    4b08:	681b      	ldr	r3, [r3, #0]
    4b0a:	4d12      	ldr	r5, [pc, #72]	; (4b54 <event_wait+0x50>)
    4b0c:	2401      	movs	r4, #1
    4b0e:	409c      	lsls	r4, r3
    4b10:	7eab      	ldrb	r3, [r5, #26]
    4b12:	4e11      	ldr	r6, [pc, #68]	; (4b58 <event_wait+0x54>)
    4b14:	2b00      	cmp	r3, #0
    4b16:	d011      	beq.n	4b3c <event_wait+0x38>
    4b18:	2009      	movs	r0, #9
    4b1a:	f7ff fd35 	bl	4588 <sark_cpu_state>
    4b1e:	6833      	ldr	r3, [r6, #0]
    4b20:	0022      	movs	r2, r4
    4b22:	439a      	bics	r2, r3
    4b24:	d107      	bne.n	4b36 <event_wait+0x32>
    4b26:	7eaa      	ldrb	r2, [r5, #26]
    4b28:	2301      	movs	r3, #1
    4b2a:	4053      	eors	r3, r2
    4b2c:	2007      	movs	r0, #7
    4b2e:	76ab      	strb	r3, [r5, #26]
    4b30:	f7ff fd2a 	bl	4588 <sark_cpu_state>
    4b34:	bd70      	pop	{r4, r5, r6, pc}
    4b36:	f7fb eb54 	blx	1e0 <cpu_wfi>
    4b3a:	e7f0      	b.n	4b1e <event_wait+0x1a>
    4b3c:	2008      	movs	r0, #8
    4b3e:	f7ff fd23 	bl	4588 <sark_cpu_state>
    4b42:	6833      	ldr	r3, [r6, #0]
    4b44:	4223      	tst	r3, r4
    4b46:	d0ee      	beq.n	4b26 <event_wait+0x22>
    4b48:	f7fb eb4a 	blx	1e0 <cpu_wfi>
    4b4c:	e7f9      	b.n	4b42 <event_wait+0x3e>
    4b4e:	46c0      	nop			; (mov r8, r8)
    4b50:	0040092c 	.word	0x0040092c
    4b54:	00400968 	.word	0x00400968
    4b58:	e2000058 	.word	0xe2000058

00004b5c <event_pause>:
    4b5c:	b570      	push	{r4, r5, r6, lr}
    4b5e:	1e05      	subs	r5, r0, #0
    4b60:	4c08      	ldr	r4, [pc, #32]	; (4b84 <event_pause+0x28>)
    4b62:	d00b      	beq.n	4b7c <event_pause+0x20>
    4b64:	2301      	movs	r3, #1
    4b66:	200a      	movs	r0, #10
    4b68:	7623      	strb	r3, [r4, #24]
    4b6a:	f7ff fd0d 	bl	4588 <sark_cpu_state>
    4b6e:	6b23      	ldr	r3, [r4, #48]	; 0x30
    4b70:	2b00      	cmp	r3, #0
    4b72:	d002      	beq.n	4b7a <event_pause+0x1e>
    4b74:	6b61      	ldr	r1, [r4, #52]	; 0x34
    4b76:	0028      	movs	r0, r5
    4b78:	4798      	blx	r3
    4b7a:	bd70      	pop	{r4, r5, r6, pc}
    4b7c:	7620      	strb	r0, [r4, #24]
    4b7e:	2007      	movs	r0, #7
    4b80:	e7f3      	b.n	4b6a <event_pause+0xe>
    4b82:	46c0      	nop			; (mov r8, r8)
    4b84:	00400968 	.word	0x00400968

00004b88 <event_stop>:
    4b88:	4b03      	ldr	r3, [pc, #12]	; (4b98 <event_stop+0x10>)
    4b8a:	2202      	movs	r2, #2
    4b8c:	761a      	strb	r2, [r3, #24]
    4b8e:	4a03      	ldr	r2, [pc, #12]	; (4b9c <event_stop+0x14>)
    4b90:	6cd9      	ldr	r1, [r3, #76]	; 0x4c
    4b92:	6011      	str	r1, [r2, #0]
    4b94:	6398      	str	r0, [r3, #56]	; 0x38
    4b96:	4770      	bx	lr
    4b98:	00400968 	.word	0x00400968
    4b9c:	1f000014 	.word	0x1f000014

00004ba0 <event_alloc>:
    4ba0:	b570      	push	{r4, r5, r6, lr}
    4ba2:	2118      	movs	r1, #24
    4ba4:	0006      	movs	r6, r0
    4ba6:	f000 f8db 	bl	4d60 <sark_alloc>
    4baa:	4d0b      	ldr	r5, [pc, #44]	; (4bd8 <event_alloc+0x38>)
    4bac:	1e04      	subs	r4, r0, #0
    4bae:	d00d      	beq.n	4bcc <event_alloc+0x2c>
    4bb0:	0031      	movs	r1, r6
    4bb2:	2218      	movs	r2, #24
    4bb4:	f7ff fcfa 	bl	45ac <sark_block_init>
    4bb8:	0006      	movs	r6, r0
    4bba:	f7fb eb06 	blx	1c8 <cpu_int_disable>
    4bbe:	682b      	ldr	r3, [r5, #0]
    4bc0:	6033      	str	r3, [r6, #0]
    4bc2:	602c      	str	r4, [r5, #0]
    4bc4:	f7fb eb08 	blx	1d8 <cpu_int_restore>
    4bc8:	2001      	movs	r0, #1
    4bca:	bd70      	pop	{r4, r5, r6, pc}
    4bcc:	696a      	ldr	r2, [r5, #20]
    4bce:	2308      	movs	r3, #8
    4bd0:	4313      	orrs	r3, r2
    4bd2:	616b      	str	r3, [r5, #20]
    4bd4:	e7f9      	b.n	4bca <event_alloc+0x2a>
    4bd6:	46c0      	nop			; (mov r8, r8)
    4bd8:	00400968 	.word	0x00400968

00004bdc <sark_vic_init>:
    4bdc:	4b0b      	ldr	r3, [pc, #44]	; (4c0c <sark_vic_init+0x30>)
    4bde:	2201      	movs	r2, #1
    4be0:	4252      	negs	r2, r2
    4be2:	b510      	push	{r4, lr}
    4be4:	601a      	str	r2, [r3, #0]
    4be6:	4b0a      	ldr	r3, [pc, #40]	; (4c10 <sark_vic_init+0x34>)
    4be8:	2200      	movs	r2, #0
    4bea:	601a      	str	r2, [r3, #0]
    4bec:	4b09      	ldr	r3, [pc, #36]	; (4c14 <sark_vic_init+0x38>)
    4bee:	4c0a      	ldr	r4, [pc, #40]	; (4c18 <sark_vic_init+0x3c>)
    4bf0:	601a      	str	r2, [r3, #0]
    4bf2:	490a      	ldr	r1, [pc, #40]	; (4c1c <sark_vic_init+0x40>)
    4bf4:	4b0a      	ldr	r3, [pc, #40]	; (4c20 <sark_vic_init+0x44>)
    4bf6:	1e58      	subs	r0, r3, #1
    4bf8:	601a      	str	r2, [r3, #0]
    4bfa:	38ff      	subs	r0, #255	; 0xff
    4bfc:	3304      	adds	r3, #4
    4bfe:	6004      	str	r4, [r0, #0]
    4c00:	428b      	cmp	r3, r1
    4c02:	d1f8      	bne.n	4bf6 <sark_vic_init+0x1a>
    4c04:	4b07      	ldr	r3, [pc, #28]	; (4c24 <sark_vic_init+0x48>)
    4c06:	4a08      	ldr	r2, [pc, #32]	; (4c28 <sark_vic_init+0x4c>)
    4c08:	601a      	str	r2, [r3, #0]
    4c0a:	bd10      	pop	{r4, pc}
    4c0c:	1f000014 	.word	0x1f000014
    4c10:	1f00000c 	.word	0x1f00000c
    4c14:	1f000030 	.word	0x1f000030
    4c18:	00000108 	.word	0x00000108
    4c1c:	1f000240 	.word	0x1f000240
    4c20:	1f000200 	.word	0x1f000200
    4c24:	1f000034 	.word	0x1f000034
    4c28:	00000330 	.word	0x00000330

00004c2c <sark_vic_set>:
    4c2c:	b510      	push	{r4, lr}
    4c2e:	2810      	cmp	r0, #16
    4c30:	d10b      	bne.n	4c4a <sark_vic_set+0x1e>
    4c32:	62c3      	str	r3, [r0, #44]	; 0x2c
    4c34:	2301      	movs	r3, #1
    4c36:	480a      	ldr	r0, [pc, #40]	; (4c60 <sark_vic_set+0x34>)
    4c38:	408b      	lsls	r3, r1
    4c3a:	6003      	str	r3, [r0, #0]
    4c3c:	2a00      	cmp	r2, #0
    4c3e:	d003      	beq.n	4c48 <sark_vic_set+0x1c>
    4c40:	2301      	movs	r3, #1
    4c42:	4a08      	ldr	r2, [pc, #32]	; (4c64 <sark_vic_set+0x38>)
    4c44:	408b      	lsls	r3, r1
    4c46:	6013      	str	r3, [r2, #0]
    4c48:	bd10      	pop	{r4, pc}
    4c4a:	3040      	adds	r0, #64	; 0x40
    4c4c:	24f8      	movs	r4, #248	; 0xf8
    4c4e:	0080      	lsls	r0, r0, #2
    4c50:	0564      	lsls	r4, r4, #21
    4c52:	1904      	adds	r4, r0, r4
    4c54:	6023      	str	r3, [r4, #0]
    4c56:	4b04      	ldr	r3, [pc, #16]	; (4c68 <sark_vic_set+0x3c>)
    4c58:	18c0      	adds	r0, r0, r3
    4c5a:	2320      	movs	r3, #32
    4c5c:	430b      	orrs	r3, r1
    4c5e:	e7ec      	b.n	4c3a <sark_vic_set+0xe>
    4c60:	1f00000c 	.word	0x1f00000c
    4c64:	1f000010 	.word	0x1f000010
    4c68:	1f000100 	.word	0x1f000100

00004c6c <sark_fiq_han>:
    4c6c:	e92d000c 	push	{r2, r3}
    4c70:	e59f2018 	ldr	r2, [pc, #24]	; 4c90 <sark_fiq_han+0x24>
    4c74:	e3a03202 	mov	r3, #536870912	; 0x20000000
    4c78:	e5933014 	ldr	r3, [r3, #20]
    4c7c:	e5923038 	ldr	r3, [r2, #56]	; 0x38
    4c80:	e2833001 	add	r3, r3, #1
    4c84:	e5823038 	str	r3, [r2, #56]	; 0x38
    4c88:	e8bd000c 	pop	{r2, r3}
    4c8c:	e25ef004 	subs	pc, lr, #4
    4c90:	0040092c 	.word	0x0040092c

00004c94 <sark_xalloc>:
    4c94:	b5f7      	push	{r0, r1, r2, r4, r5, r6, r7, lr}
    4c96:	0006      	movs	r6, r0
    4c98:	0017      	movs	r7, r2
    4c9a:	2900      	cmp	r1, #0
    4c9c:	d101      	bne.n	4ca2 <sark_xalloc+0xe>
    4c9e:	2000      	movs	r0, #0
    4ca0:	e056      	b.n	4d50 <sark_xalloc+0xbc>
    4ca2:	2aff      	cmp	r2, #255	; 0xff
    4ca4:	d8fb      	bhi.n	4c9e <sark_xalloc+0xa>
    4ca6:	0a1d      	lsrs	r5, r3, #8
    4ca8:	079a      	lsls	r2, r3, #30
    4caa:	d401      	bmi.n	4cb0 <sark_xalloc+0x1c>
    4cac:	225c      	movs	r2, #92	; 0x5c
    4cae:	7815      	ldrb	r5, [r2, #0]
    4cb0:	022d      	lsls	r5, r5, #8
    4cb2:	19ed      	adds	r5, r5, r7
    4cb4:	2f00      	cmp	r7, #0
    4cb6:	d005      	beq.n	4cc4 <sark_xalloc+0x30>
    4cb8:	4a27      	ldr	r2, [pc, #156]	; (4d58 <sark_xalloc+0xc4>)
    4cba:	00a8      	lsls	r0, r5, #2
    4cbc:	6812      	ldr	r2, [r2, #0]
    4cbe:	5882      	ldr	r2, [r0, r2]
    4cc0:	2a00      	cmp	r2, #0
    4cc2:	d1ec      	bne.n	4c9e <sark_xalloc+0xa>
    4cc4:	2203      	movs	r2, #3
    4cc6:	3103      	adds	r1, #3
    4cc8:	4391      	bics	r1, r2
    4cca:	3a02      	subs	r2, #2
    4ccc:	3108      	adds	r1, #8
    4cce:	4013      	ands	r3, r2
    4cd0:	9101      	str	r1, [sp, #4]
    4cd2:	9300      	str	r3, [sp, #0]
    4cd4:	d003      	beq.n	4cde <sark_xalloc+0x4a>
    4cd6:	2006      	movs	r0, #6
    4cd8:	f7fb ea86 	blx	1e8 <sark_lock_get>
    4cdc:	4684      	mov	ip, r0
    4cde:	6834      	ldr	r4, [r6, #0]
    4ce0:	2200      	movs	r2, #0
    4ce2:	2c00      	cmp	r4, #0
    4ce4:	d107      	bne.n	4cf6 <sark_xalloc+0x62>
    4ce6:	9b00      	ldr	r3, [sp, #0]
    4ce8:	2b00      	cmp	r3, #0
    4cea:	d0d8      	beq.n	4c9e <sark_xalloc+0xa>
    4cec:	2106      	movs	r1, #6
    4cee:	4660      	mov	r0, ip
    4cf0:	f7fb ea8c 	blx	20c <sark_lock_free>
    4cf4:	e7d3      	b.n	4c9e <sark_xalloc+0xa>
    4cf6:	9b01      	ldr	r3, [sp, #4]
    4cf8:	6821      	ldr	r1, [r4, #0]
    4cfa:	18e3      	adds	r3, r4, r3
    4cfc:	429c      	cmp	r4, r3
    4cfe:	d2f2      	bcs.n	4ce6 <sark_xalloc+0x52>
    4d00:	4299      	cmp	r1, r3
    4d02:	d202      	bcs.n	4d0a <sark_xalloc+0x76>
    4d04:	0022      	movs	r2, r4
    4d06:	6864      	ldr	r4, [r4, #4]
    4d08:	e7eb      	b.n	4ce2 <sark_xalloc+0x4e>
    4d0a:	0018      	movs	r0, r3
    4d0c:	3008      	adds	r0, #8
    4d0e:	4281      	cmp	r1, r0
    4d10:	d904      	bls.n	4d1c <sark_xalloc+0x88>
    4d12:	6019      	str	r1, [r3, #0]
    4d14:	6861      	ldr	r1, [r4, #4]
    4d16:	6023      	str	r3, [r4, #0]
    4d18:	6059      	str	r1, [r3, #4]
    4d1a:	6063      	str	r3, [r4, #4]
    4d1c:	6863      	ldr	r3, [r4, #4]
    4d1e:	2a00      	cmp	r2, #0
    4d20:	d017      	beq.n	4d52 <sark_xalloc+0xbe>
    4d22:	6053      	str	r3, [r2, #4]
    4d24:	68f3      	ldr	r3, [r6, #12]
    4d26:	9a01      	ldr	r2, [sp, #4]
    4d28:	1a99      	subs	r1, r3, r2
    4d2a:	9b00      	ldr	r3, [sp, #0]
    4d2c:	60f1      	str	r1, [r6, #12]
    4d2e:	2b00      	cmp	r3, #0
    4d30:	d003      	beq.n	4d3a <sark_xalloc+0xa6>
    4d32:	2106      	movs	r1, #6
    4d34:	4660      	mov	r0, ip
    4d36:	f7fb ea6a 	blx	20c <sark_lock_free>
    4d3a:	4b08      	ldr	r3, [pc, #32]	; (4d5c <sark_xalloc+0xc8>)
    4d3c:	0020      	movs	r0, r4
    4d3e:	18eb      	adds	r3, r5, r3
    4d40:	6063      	str	r3, [r4, #4]
    4d42:	3008      	adds	r0, #8
    4d44:	2f00      	cmp	r7, #0
    4d46:	d003      	beq.n	4d50 <sark_xalloc+0xbc>
    4d48:	4b03      	ldr	r3, [pc, #12]	; (4d58 <sark_xalloc+0xc4>)
    4d4a:	00ad      	lsls	r5, r5, #2
    4d4c:	681b      	ldr	r3, [r3, #0]
    4d4e:	50e8      	str	r0, [r5, r3]
    4d50:	bdfe      	pop	{r1, r2, r3, r4, r5, r6, r7, pc}
    4d52:	6033      	str	r3, [r6, #0]
    4d54:	e7e6      	b.n	4d24 <sark_xalloc+0x90>
    4d56:	46c0      	nop			; (mov r8, r8)
    4d58:	e5007fdc 	.word	0xe5007fdc
    4d5c:	ffff0000 	.word	0xffff0000

00004d60 <sark_alloc>:
    4d60:	4341      	muls	r1, r0
    4d62:	4804      	ldr	r0, [pc, #16]	; (4d74 <sark_alloc+0x14>)
    4d64:	2300      	movs	r3, #0
    4d66:	b510      	push	{r4, lr}
    4d68:	001a      	movs	r2, r3
    4d6a:	6980      	ldr	r0, [r0, #24]
    4d6c:	f7ff ff92 	bl	4c94 <sark_xalloc>
    4d70:	bd10      	pop	{r4, pc}
    4d72:	46c0      	nop			; (mov r8, r8)
    4d74:	0040092c 	.word	0x0040092c

00004d78 <sark_heap_init>:
    4d78:	0003      	movs	r3, r0
    4d7a:	3908      	subs	r1, #8
    4d7c:	3310      	adds	r3, #16
    4d7e:	6043      	str	r3, [r0, #4]
    4d80:	6003      	str	r3, [r0, #0]
    4d82:	1acb      	subs	r3, r1, r3
    4d84:	3b08      	subs	r3, #8
    4d86:	60c3      	str	r3, [r0, #12]
    4d88:	2300      	movs	r3, #0
    4d8a:	6101      	str	r1, [r0, #16]
    4d8c:	6081      	str	r1, [r0, #8]
    4d8e:	600b      	str	r3, [r1, #0]
    4d90:	6143      	str	r3, [r0, #20]
    4d92:	604b      	str	r3, [r1, #4]
    4d94:	4770      	bx	lr
	...

00004d98 <sark_tag_ptr>:
    4d98:	2900      	cmp	r1, #0
    4d9a:	d101      	bne.n	4da0 <sark_tag_ptr+0x8>
    4d9c:	235c      	movs	r3, #92	; 0x5c
    4d9e:	7819      	ldrb	r1, [r3, #0]
    4da0:	4b03      	ldr	r3, [pc, #12]	; (4db0 <sark_tag_ptr+0x18>)
    4da2:	0209      	lsls	r1, r1, #8
    4da4:	1809      	adds	r1, r1, r0
    4da6:	681b      	ldr	r3, [r3, #0]
    4da8:	0089      	lsls	r1, r1, #2
    4daa:	58c8      	ldr	r0, [r1, r3]
    4dac:	4770      	bx	lr
    4dae:	46c0      	nop			; (mov r8, r8)
    4db0:	e5007fdc 	.word	0xe5007fdc

00004db4 <io_buf_init>:
    4db4:	b570      	push	{r4, r5, r6, lr}
    4db6:	4d0c      	ldr	r5, [pc, #48]	; (4de8 <io_buf_init+0x34>)
    4db8:	480c      	ldr	r0, [pc, #48]	; (4dec <io_buf_init+0x38>)
    4dba:	6d29      	ldr	r1, [r5, #80]	; 0x50
    4dbc:	2301      	movs	r3, #1
    4dbe:	3110      	adds	r1, #16
    4dc0:	2200      	movs	r2, #0
    4dc2:	6800      	ldr	r0, [r0, #0]
    4dc4:	f7ff ff66 	bl	4c94 <sark_xalloc>
    4dc8:	1e04      	subs	r4, r0, #0
    4dca:	d102      	bne.n	4dd2 <io_buf_init+0x1e>
    4dcc:	200e      	movs	r0, #14
    4dce:	f7fb e9ae 	blx	12c <rt_error>
    4dd2:	69eb      	ldr	r3, [r5, #28]
    4dd4:	6063      	str	r3, [r4, #4]
    4dd6:	4a06      	ldr	r2, [pc, #24]	; (4df0 <io_buf_init+0x3c>)
    4dd8:	8b2b      	ldrh	r3, [r5, #24]
    4dda:	60a3      	str	r3, [r4, #8]
    4ddc:	2300      	movs	r3, #0
    4dde:	0020      	movs	r0, r4
    4de0:	6023      	str	r3, [r4, #0]
    4de2:	6013      	str	r3, [r2, #0]
    4de4:	60e3      	str	r3, [r4, #12]
    4de6:	bd70      	pop	{r4, r5, r6, pc}
    4de8:	e5007f00 	.word	0xe5007f00
    4dec:	e5007fd0 	.word	0xe5007fd0
    4df0:	00400444 	.word	0x00400444

00004df4 <io_put_char>:
    4df4:	b570      	push	{r4, r5, r6, lr}
    4df6:	000d      	movs	r5, r1
    4df8:	2803      	cmp	r0, #3
    4dfa:	d907      	bls.n	4e0c <io_put_char+0x18>
    4dfc:	4932      	ldr	r1, [pc, #200]	; (4ec8 <io_put_char+0xd4>)
    4dfe:	680a      	ldr	r2, [r1, #0]
    4e00:	1c53      	adds	r3, r2, #1
    4e02:	5485      	strb	r5, [r0, r2]
    4e04:	2200      	movs	r2, #0
    4e06:	600b      	str	r3, [r1, #0]
    4e08:	54c2      	strb	r2, [r0, r3]
    4e0a:	bd70      	pop	{r4, r5, r6, pc}
    4e0c:	2800      	cmp	r0, #0
    4e0e:	d136      	bne.n	4e7e <io_put_char+0x8a>
    4e10:	4e2e      	ldr	r6, [pc, #184]	; (4ecc <io_put_char+0xd8>)
    4e12:	6833      	ldr	r3, [r6, #0]
    4e14:	2b00      	cmp	r3, #0
    4e16:	d11c      	bne.n	4e52 <io_put_char+0x5e>
    4e18:	2192      	movs	r1, #146	; 0x92
    4e1a:	0049      	lsls	r1, r1, #1
    4e1c:	3001      	adds	r0, #1
    4e1e:	f7ff ff9f 	bl	4d60 <sark_alloc>
    4e22:	1e04      	subs	r4, r0, #0
    4e24:	d102      	bne.n	4e2c <io_put_char+0x38>
    4e26:	200e      	movs	r0, #14
    4e28:	f7fb e980 	blx	12c <rt_error>
    4e2c:	2307      	movs	r3, #7
    4e2e:	7223      	strb	r3, [r4, #8]
    4e30:	2300      	movs	r3, #0
    4e32:	7263      	strb	r3, [r4, #9]
    4e34:	33ff      	adds	r3, #255	; 0xff
    4e36:	72a3      	strb	r3, [r4, #10]
    4e38:	4b25      	ldr	r3, [pc, #148]	; (4ed0 <io_put_char+0xdc>)
    4e3a:	889a      	ldrh	r2, [r3, #4]
    4e3c:	81a2      	strh	r2, [r4, #12]
    4e3e:	4a25      	ldr	r2, [pc, #148]	; (4ed4 <io_put_char+0xe0>)
    4e40:	6812      	ldr	r2, [r2, #0]
    4e42:	72e2      	strb	r2, [r4, #11]
    4e44:	881b      	ldrh	r3, [r3, #0]
    4e46:	81e3      	strh	r3, [r4, #14]
    4e48:	2340      	movs	r3, #64	; 0x40
    4e4a:	8223      	strh	r3, [r4, #16]
    4e4c:	3b34      	subs	r3, #52	; 0x34
    4e4e:	80a3      	strh	r3, [r4, #4]
    4e50:	6034      	str	r4, [r6, #0]
    4e52:	6830      	ldr	r0, [r6, #0]
    4e54:	8883      	ldrh	r3, [r0, #4]
    4e56:	1c5a      	adds	r2, r3, #1
    4e58:	18c3      	adds	r3, r0, r3
    4e5a:	8082      	strh	r2, [r0, #4]
    4e5c:	721d      	strb	r5, [r3, #8]
    4e5e:	2d0a      	cmp	r5, #10
    4e60:	d006      	beq.n	4e70 <io_put_char+0x7c>
    4e62:	2d00      	cmp	r5, #0
    4e64:	d004      	beq.n	4e70 <io_put_char+0x7c>
    4e66:	8882      	ldrh	r2, [r0, #4]
    4e68:	2386      	movs	r3, #134	; 0x86
    4e6a:	005b      	lsls	r3, r3, #1
    4e6c:	429a      	cmp	r2, r3
    4e6e:	d1cc      	bne.n	4e0a <io_put_char+0x16>
    4e70:	210a      	movs	r1, #10
    4e72:	f7ff fcab 	bl	47cc <sark_msg_send>
    4e76:	6833      	ldr	r3, [r6, #0]
    4e78:	220c      	movs	r2, #12
    4e7a:	809a      	strh	r2, [r3, #4]
    4e7c:	e7c5      	b.n	4e0a <io_put_char+0x16>
    4e7e:	2802      	cmp	r0, #2
    4e80:	d1c3      	bne.n	4e0a <io_put_char+0x16>
    4e82:	4c15      	ldr	r4, [pc, #84]	; (4ed8 <io_put_char+0xe4>)
    4e84:	6823      	ldr	r3, [r4, #0]
    4e86:	2b00      	cmp	r3, #0
    4e88:	d105      	bne.n	4e96 <io_put_char+0xa2>
    4e8a:	4b12      	ldr	r3, [pc, #72]	; (4ed4 <io_put_char+0xe0>)
    4e8c:	69de      	ldr	r6, [r3, #28]
    4e8e:	f7ff ff91 	bl	4db4 <io_buf_init>
    4e92:	65b0      	str	r0, [r6, #88]	; 0x58
    4e94:	6020      	str	r0, [r4, #0]
    4e96:	4911      	ldr	r1, [pc, #68]	; (4edc <io_put_char+0xe8>)
    4e98:	6826      	ldr	r6, [r4, #0]
    4e9a:	680a      	ldr	r2, [r1, #0]
    4e9c:	1c53      	adds	r3, r2, #1
    4e9e:	18b2      	adds	r2, r6, r2
    4ea0:	7415      	strb	r5, [r2, #16]
    4ea2:	4a0b      	ldr	r2, [pc, #44]	; (4ed0 <io_put_char+0xdc>)
    4ea4:	600b      	str	r3, [r1, #0]
    4ea6:	6d12      	ldr	r2, [r2, #80]	; 0x50
    4ea8:	4293      	cmp	r3, r2
    4eaa:	d107      	bne.n	4ebc <io_put_char+0xc8>
    4eac:	60f3      	str	r3, [r6, #12]
    4eae:	f7ff ff81 	bl	4db4 <io_buf_init>
    4eb2:	6823      	ldr	r3, [r4, #0]
    4eb4:	6030      	str	r0, [r6, #0]
    4eb6:	681b      	ldr	r3, [r3, #0]
    4eb8:	6023      	str	r3, [r4, #0]
    4eba:	e7a6      	b.n	4e0a <io_put_char+0x16>
    4ebc:	2d0a      	cmp	r5, #10
    4ebe:	d001      	beq.n	4ec4 <io_put_char+0xd0>
    4ec0:	2d00      	cmp	r5, #0
    4ec2:	d1a2      	bne.n	4e0a <io_put_char+0x16>
    4ec4:	60f3      	str	r3, [r6, #12]
    4ec6:	e7a0      	b.n	4e0a <io_put_char+0x16>
    4ec8:	00400450 	.word	0x00400450
    4ecc:	0040044c 	.word	0x0040044c
    4ed0:	e5007f00 	.word	0xe5007f00
    4ed4:	0040092c 	.word	0x0040092c
    4ed8:	00400448 	.word	0x00400448
    4edc:	00400444 	.word	0x00400444

00004ee0 <io_put_fixed>:
    4ee0:	b5f0      	push	{r4, r5, r6, r7, lr}
    4ee2:	b08d      	sub	sp, #52	; 0x34
    4ee4:	9001      	str	r0, [sp, #4]
    4ee6:	0017      	movs	r7, r2
    4ee8:	2b0c      	cmp	r3, #12
    4eea:	d900      	bls.n	4eee <io_put_fixed+0xe>
    4eec:	230c      	movs	r3, #12
    4eee:	aa05      	add	r2, sp, #20
    4ef0:	4694      	mov	ip, r2
    4ef2:	0008      	movs	r0, r1
    4ef4:	2400      	movs	r4, #0
    4ef6:	449c      	add	ip, r3
    4ef8:	0400      	lsls	r0, r0, #16
    4efa:	0c00      	lsrs	r0, r0, #16
    4efc:	220a      	movs	r2, #10
    4efe:	4342      	muls	r2, r0
    4f00:	0010      	movs	r0, r2
    4f02:	429c      	cmp	r4, r3
    4f04:	d11f      	bne.n	4f46 <io_put_fixed+0x66>
    4f06:	0c10      	lsrs	r0, r2, #16
    4f08:	2204      	movs	r2, #4
    4f0a:	4282      	cmp	r2, r0
    4f0c:	4192      	sbcs	r2, r2
    4f0e:	2530      	movs	r5, #48	; 0x30
    4f10:	4252      	negs	r2, r2
    4f12:	2000      	movs	r0, #0
    4f14:	ae05      	add	r6, sp, #20
    4f16:	46ac      	mov	ip, r5
    4f18:	2a00      	cmp	r2, #0
    4f1a:	d001      	beq.n	4f20 <io_put_fixed+0x40>
    4f1c:	4283      	cmp	r3, r0
    4f1e:	d119      	bne.n	4f54 <io_put_fixed+0x74>
    4f20:	2b00      	cmp	r3, #0
    4f22:	d002      	beq.n	4f2a <io_put_fixed+0x4a>
    4f24:	232e      	movs	r3, #46	; 0x2e
    4f26:	5533      	strb	r3, [r6, r4]
    4f28:	3401      	adds	r4, #1
    4f2a:	0c09      	lsrs	r1, r1, #16
    4f2c:	1851      	adds	r1, r2, r1
    4f2e:	a803      	add	r0, sp, #12
    4f30:	f7fb e9ce 	blx	2d0 <sark_div10>
    4f34:	9b04      	ldr	r3, [sp, #16]
    4f36:	9903      	ldr	r1, [sp, #12]
    4f38:	3330      	adds	r3, #48	; 0x30
    4f3a:	1c65      	adds	r5, r4, #1
    4f3c:	5533      	strb	r3, [r6, r4]
    4f3e:	2900      	cmp	r1, #0
    4f40:	d013      	beq.n	4f6a <io_put_fixed+0x8a>
    4f42:	002c      	movs	r4, r5
    4f44:	e7f3      	b.n	4f2e <io_put_fixed+0x4e>
    4f46:	3401      	adds	r4, #1
    4f48:	0c02      	lsrs	r2, r0, #16
    4f4a:	4266      	negs	r6, r4
    4f4c:	3230      	adds	r2, #48	; 0x30
    4f4e:	4665      	mov	r5, ip
    4f50:	55aa      	strb	r2, [r5, r6]
    4f52:	e7d1      	b.n	4ef8 <io_put_fixed+0x18>
    4f54:	5c35      	ldrb	r5, [r6, r0]
    4f56:	2d38      	cmp	r5, #56	; 0x38
    4f58:	d903      	bls.n	4f62 <io_put_fixed+0x82>
    4f5a:	4665      	mov	r5, ip
    4f5c:	5435      	strb	r5, [r6, r0]
    4f5e:	3001      	adds	r0, #1
    4f60:	e7da      	b.n	4f18 <io_put_fixed+0x38>
    4f62:	3501      	adds	r5, #1
    4f64:	5435      	strb	r5, [r6, r0]
    4f66:	2200      	movs	r2, #0
    4f68:	e7f9      	b.n	4f5e <io_put_fixed+0x7e>
    4f6a:	9b13      	ldr	r3, [sp, #76]	; 0x4c
    4f6c:	2b00      	cmp	r3, #0
    4f6e:	d002      	beq.n	4f76 <io_put_fixed+0x96>
    4f70:	232d      	movs	r3, #45	; 0x2d
    4f72:	5573      	strb	r3, [r6, r5]
    4f74:	1ca5      	adds	r5, r4, #2
    4f76:	1c6b      	adds	r3, r5, #1
    4f78:	42bb      	cmp	r3, r7
    4f7a:	d308      	bcc.n	4f8e <io_put_fixed+0xae>
    4f7c:	3d01      	subs	r5, #1
    4f7e:	5d71      	ldrb	r1, [r6, r5]
    4f80:	9801      	ldr	r0, [sp, #4]
    4f82:	f7ff ff37 	bl	4df4 <io_put_char>
    4f86:	2d00      	cmp	r5, #0
    4f88:	d1f8      	bne.n	4f7c <io_put_fixed+0x9c>
    4f8a:	b00d      	add	sp, #52	; 0x34
    4f8c:	bdf0      	pop	{r4, r5, r6, r7, pc}
    4f8e:	9912      	ldr	r1, [sp, #72]	; 0x48
    4f90:	9801      	ldr	r0, [sp, #4]
    4f92:	f7ff ff2f 	bl	4df4 <io_put_char>
    4f96:	3f01      	subs	r7, #1
    4f98:	e7ed      	b.n	4f76 <io_put_fixed+0x96>
	...

00004f9c <io_printf>:
    4f9c:	b40e      	push	{r1, r2, r3}
    4f9e:	b5f0      	push	{r4, r5, r6, r7, lr}
    4fa0:	0004      	movs	r4, r0
    4fa2:	b08c      	sub	sp, #48	; 0x30
    4fa4:	2803      	cmp	r0, #3
    4fa6:	d051      	beq.n	504c <io_printf+0xb0>
    4fa8:	d903      	bls.n	4fb2 <io_printf+0x16>
    4faa:	4a9d      	ldr	r2, [pc, #628]	; (5220 <io_printf+0x284>)
    4fac:	2300      	movs	r3, #0
    4fae:	7003      	strb	r3, [r0, #0]
    4fb0:	6013      	str	r3, [r2, #0]
    4fb2:	ab12      	add	r3, sp, #72	; 0x48
    4fb4:	9305      	str	r3, [sp, #20]
    4fb6:	9b11      	ldr	r3, [sp, #68]	; 0x44
    4fb8:	7819      	ldrb	r1, [r3, #0]
    4fba:	2900      	cmp	r1, #0
    4fbc:	d046      	beq.n	504c <io_printf+0xb0>
    4fbe:	2925      	cmp	r1, #37	; 0x25
    4fc0:	d005      	beq.n	4fce <io_printf+0x32>
    4fc2:	3301      	adds	r3, #1
    4fc4:	9311      	str	r3, [sp, #68]	; 0x44
    4fc6:	0020      	movs	r0, r4
    4fc8:	f7ff ff14 	bl	4df4 <io_put_char>
    4fcc:	e7f3      	b.n	4fb6 <io_printf+0x1a>
    4fce:	9b11      	ldr	r3, [sp, #68]	; 0x44
    4fd0:	7859      	ldrb	r1, [r3, #1]
    4fd2:	1c9a      	adds	r2, r3, #2
    4fd4:	2900      	cmp	r1, #0
    4fd6:	d039      	beq.n	504c <io_printf+0xb0>
    4fd8:	2320      	movs	r3, #32
    4fda:	9303      	str	r3, [sp, #12]
    4fdc:	2930      	cmp	r1, #48	; 0x30
    4fde:	d100      	bne.n	4fe2 <io_printf+0x46>
    4fe0:	9103      	str	r1, [sp, #12]
    4fe2:	2700      	movs	r7, #0
    4fe4:	000b      	movs	r3, r1
    4fe6:	3b30      	subs	r3, #48	; 0x30
    4fe8:	9211      	str	r2, [sp, #68]	; 0x44
    4fea:	2b09      	cmp	r3, #9
    4fec:	d924      	bls.n	5038 <io_printf+0x9c>
    4fee:	2306      	movs	r3, #6
    4ff0:	292e      	cmp	r1, #46	; 0x2e
    4ff2:	d109      	bne.n	5008 <io_printf+0x6c>
    4ff4:	7811      	ldrb	r1, [r2, #0]
    4ff6:	2300      	movs	r3, #0
    4ff8:	3201      	adds	r2, #1
    4ffa:	0008      	movs	r0, r1
    4ffc:	3830      	subs	r0, #48	; 0x30
    4ffe:	9211      	str	r2, [sp, #68]	; 0x44
    5000:	2809      	cmp	r0, #9
    5002:	d928      	bls.n	5056 <io_printf+0xba>
    5004:	2900      	cmp	r1, #0
    5006:	d021      	beq.n	504c <io_printf+0xb0>
    5008:	296b      	cmp	r1, #107	; 0x6b
    500a:	d100      	bne.n	500e <io_printf+0x72>
    500c:	e0d2      	b.n	51b4 <io_printf+0x218>
    500e:	d82e      	bhi.n	506e <io_printf+0xd2>
    5010:	2963      	cmp	r1, #99	; 0x63
    5012:	d068      	beq.n	50e6 <io_printf+0x14a>
    5014:	d826      	bhi.n	5064 <io_printf+0xc8>
    5016:	294b      	cmp	r1, #75	; 0x4b
    5018:	d001      	beq.n	501e <io_printf+0x82>
    501a:	2952      	cmp	r1, #82	; 0x52
    501c:	d1d3      	bne.n	4fc6 <io_printf+0x2a>
    501e:	9905      	ldr	r1, [sp, #20]
    5020:	1d0a      	adds	r2, r1, #4
    5022:	9205      	str	r2, [sp, #20]
    5024:	2200      	movs	r2, #0
    5026:	9201      	str	r2, [sp, #4]
    5028:	9a03      	ldr	r2, [sp, #12]
    502a:	9200      	str	r2, [sp, #0]
    502c:	6809      	ldr	r1, [r1, #0]
    502e:	003a      	movs	r2, r7
    5030:	0020      	movs	r0, r4
    5032:	f7ff ff55 	bl	4ee0 <io_put_fixed>
    5036:	e7be      	b.n	4fb6 <io_printf+0x1a>
    5038:	230a      	movs	r3, #10
    503a:	437b      	muls	r3, r7
    503c:	3201      	adds	r2, #1
    503e:	1859      	adds	r1, r3, r1
    5040:	3930      	subs	r1, #48	; 0x30
    5042:	1e53      	subs	r3, r2, #1
    5044:	000f      	movs	r7, r1
    5046:	7819      	ldrb	r1, [r3, #0]
    5048:	2900      	cmp	r1, #0
    504a:	d1cb      	bne.n	4fe4 <io_printf+0x48>
    504c:	b00c      	add	sp, #48	; 0x30
    504e:	bcf0      	pop	{r4, r5, r6, r7}
    5050:	bc08      	pop	{r3}
    5052:	b003      	add	sp, #12
    5054:	4718      	bx	r3
    5056:	200a      	movs	r0, #10
    5058:	4358      	muls	r0, r3
    505a:	1843      	adds	r3, r0, r1
    505c:	3b30      	subs	r3, #48	; 0x30
    505e:	7811      	ldrb	r1, [r2, #0]
    5060:	3201      	adds	r2, #1
    5062:	e7ca      	b.n	4ffa <io_printf+0x5e>
    5064:	2964      	cmp	r1, #100	; 0x64
    5066:	d049      	beq.n	50fc <io_printf+0x160>
    5068:	2966      	cmp	r1, #102	; 0x66
    506a:	d0d8      	beq.n	501e <io_printf+0x82>
    506c:	e7ab      	b.n	4fc6 <io_printf+0x2a>
    506e:	2975      	cmp	r1, #117	; 0x75
    5070:	d079      	beq.n	5166 <io_printf+0x1ca>
    5072:	d81a      	bhi.n	50aa <io_printf+0x10e>
    5074:	2972      	cmp	r1, #114	; 0x72
    5076:	d100      	bne.n	507a <io_printf+0xde>
    5078:	e09c      	b.n	51b4 <io_printf+0x218>
    507a:	2973      	cmp	r1, #115	; 0x73
    507c:	d1a3      	bne.n	4fc6 <io_printf+0x2a>
    507e:	9b05      	ldr	r3, [sp, #20]
    5080:	681d      	ldr	r5, [r3, #0]
    5082:	1d1a      	adds	r2, r3, #4
    5084:	002b      	movs	r3, r5
    5086:	9205      	str	r2, [sp, #20]
    5088:	1b5e      	subs	r6, r3, r5
    508a:	3301      	adds	r3, #1
    508c:	1e5a      	subs	r2, r3, #1
    508e:	7812      	ldrb	r2, [r2, #0]
    5090:	2a00      	cmp	r2, #0
    5092:	d1f9      	bne.n	5088 <io_printf+0xec>
    5094:	42b7      	cmp	r7, r6
    5096:	dc2b      	bgt.n	50f0 <io_printf+0x154>
    5098:	7829      	ldrb	r1, [r5, #0]
    509a:	2900      	cmp	r1, #0
    509c:	d100      	bne.n	50a0 <io_printf+0x104>
    509e:	e78a      	b.n	4fb6 <io_printf+0x1a>
    50a0:	0020      	movs	r0, r4
    50a2:	3501      	adds	r5, #1
    50a4:	f7ff fea6 	bl	4df4 <io_put_char>
    50a8:	e7f6      	b.n	5098 <io_printf+0xfc>
    50aa:	2978      	cmp	r1, #120	; 0x78
    50ac:	d100      	bne.n	50b0 <io_printf+0x114>
    50ae:	e08f      	b.n	51d0 <io_printf+0x234>
    50b0:	297a      	cmp	r1, #122	; 0x7a
    50b2:	d000      	beq.n	50b6 <io_printf+0x11a>
    50b4:	e787      	b.n	4fc6 <io_printf+0x2a>
    50b6:	9b05      	ldr	r3, [sp, #20]
    50b8:	1e7e      	subs	r6, r7, #1
    50ba:	1d1a      	adds	r2, r3, #4
    50bc:	681b      	ldr	r3, [r3, #0]
    50be:	9303      	str	r3, [sp, #12]
    50c0:	4b58      	ldr	r3, [pc, #352]	; (5224 <io_printf+0x288>)
    50c2:	9205      	str	r2, [sp, #20]
    50c4:	18fd      	adds	r5, r7, r3
    50c6:	00ad      	lsls	r5, r5, #2
    50c8:	270f      	movs	r7, #15
    50ca:	2e00      	cmp	r6, #0
    50cc:	da00      	bge.n	50d0 <io_printf+0x134>
    50ce:	e772      	b.n	4fb6 <io_printf+0x1a>
    50d0:	9b03      	ldr	r3, [sp, #12]
    50d2:	4a55      	ldr	r2, [pc, #340]	; (5228 <io_printf+0x28c>)
    50d4:	40eb      	lsrs	r3, r5
    50d6:	403b      	ands	r3, r7
    50d8:	5cd1      	ldrb	r1, [r2, r3]
    50da:	0020      	movs	r0, r4
    50dc:	f7ff fe8a 	bl	4df4 <io_put_char>
    50e0:	3e01      	subs	r6, #1
    50e2:	3d04      	subs	r5, #4
    50e4:	e7f1      	b.n	50ca <io_printf+0x12e>
    50e6:	9b05      	ldr	r3, [sp, #20]
    50e8:	1d1a      	adds	r2, r3, #4
    50ea:	9205      	str	r2, [sp, #20]
    50ec:	6819      	ldr	r1, [r3, #0]
    50ee:	e76a      	b.n	4fc6 <io_printf+0x2a>
    50f0:	2120      	movs	r1, #32
    50f2:	0020      	movs	r0, r4
    50f4:	f7ff fe7e 	bl	4df4 <io_put_char>
    50f8:	3f01      	subs	r7, #1
    50fa:	e7cb      	b.n	5094 <io_printf+0xf8>
    50fc:	9b05      	ldr	r3, [sp, #20]
    50fe:	6819      	ldr	r1, [r3, #0]
    5100:	1d1a      	adds	r2, r3, #4
    5102:	2300      	movs	r3, #0
    5104:	9205      	str	r2, [sp, #20]
    5106:	9303      	str	r3, [sp, #12]
    5108:	4299      	cmp	r1, r3
    510a:	da02      	bge.n	5112 <io_printf+0x176>
    510c:	332d      	adds	r3, #45	; 0x2d
    510e:	4249      	negs	r1, r1
    5110:	9303      	str	r3, [sp, #12]
    5112:	2500      	movs	r5, #0
    5114:	a806      	add	r0, sp, #24
    5116:	f7fb e8dc 	blx	2d0 <sark_div10>
    511a:	9b07      	ldr	r3, [sp, #28]
    511c:	3501      	adds	r5, #1
    511e:	9906      	ldr	r1, [sp, #24]
    5120:	ae08      	add	r6, sp, #32
    5122:	1e6a      	subs	r2, r5, #1
    5124:	3330      	adds	r3, #48	; 0x30
    5126:	54b3      	strb	r3, [r6, r2]
    5128:	2900      	cmp	r1, #0
    512a:	d1f3      	bne.n	5114 <io_printf+0x178>
    512c:	3d01      	subs	r5, #1
    512e:	5d73      	ldrb	r3, [r6, r5]
    5130:	2b30      	cmp	r3, #48	; 0x30
    5132:	d101      	bne.n	5138 <io_printf+0x19c>
    5134:	2d00      	cmp	r5, #0
    5136:	d1f9      	bne.n	512c <io_printf+0x190>
    5138:	9b03      	ldr	r3, [sp, #12]
    513a:	2b00      	cmp	r3, #0
    513c:	d003      	beq.n	5146 <io_printf+0x1aa>
    513e:	466b      	mov	r3, sp
    5140:	3501      	adds	r5, #1
    5142:	7b1b      	ldrb	r3, [r3, #12]
    5144:	5573      	strb	r3, [r6, r5]
    5146:	1c6b      	adds	r3, r5, #1
    5148:	429f      	cmp	r7, r3
    514a:	d806      	bhi.n	515a <io_printf+0x1be>
    514c:	5d71      	ldrb	r1, [r6, r5]
    514e:	0020      	movs	r0, r4
    5150:	f7ff fe50 	bl	4df4 <io_put_char>
    5154:	3d01      	subs	r5, #1
    5156:	d2f9      	bcs.n	514c <io_printf+0x1b0>
    5158:	e72d      	b.n	4fb6 <io_printf+0x1a>
    515a:	2120      	movs	r1, #32
    515c:	0020      	movs	r0, r4
    515e:	f7ff fe49 	bl	4df4 <io_put_char>
    5162:	3f01      	subs	r7, #1
    5164:	e7ef      	b.n	5146 <io_printf+0x1aa>
    5166:	9b05      	ldr	r3, [sp, #20]
    5168:	2500      	movs	r5, #0
    516a:	6819      	ldr	r1, [r3, #0]
    516c:	1d1a      	adds	r2, r3, #4
    516e:	9205      	str	r2, [sp, #20]
    5170:	a806      	add	r0, sp, #24
    5172:	f7fb e8ae 	blx	2d0 <sark_div10>
    5176:	9b07      	ldr	r3, [sp, #28]
    5178:	3501      	adds	r5, #1
    517a:	9906      	ldr	r1, [sp, #24]
    517c:	ae08      	add	r6, sp, #32
    517e:	1e6a      	subs	r2, r5, #1
    5180:	3330      	adds	r3, #48	; 0x30
    5182:	54b3      	strb	r3, [r6, r2]
    5184:	2900      	cmp	r1, #0
    5186:	d1f3      	bne.n	5170 <io_printf+0x1d4>
    5188:	3d01      	subs	r5, #1
    518a:	5d73      	ldrb	r3, [r6, r5]
    518c:	2b30      	cmp	r3, #48	; 0x30
    518e:	d101      	bne.n	5194 <io_printf+0x1f8>
    5190:	2d00      	cmp	r5, #0
    5192:	d1f9      	bne.n	5188 <io_printf+0x1ec>
    5194:	1c6b      	adds	r3, r5, #1
    5196:	42bb      	cmp	r3, r7
    5198:	d306      	bcc.n	51a8 <io_printf+0x20c>
    519a:	5d71      	ldrb	r1, [r6, r5]
    519c:	0020      	movs	r0, r4
    519e:	f7ff fe29 	bl	4df4 <io_put_char>
    51a2:	3d01      	subs	r5, #1
    51a4:	d2f9      	bcs.n	519a <io_printf+0x1fe>
    51a6:	e706      	b.n	4fb6 <io_printf+0x1a>
    51a8:	9903      	ldr	r1, [sp, #12]
    51aa:	0020      	movs	r0, r4
    51ac:	f7ff fe22 	bl	4df4 <io_put_char>
    51b0:	3f01      	subs	r7, #1
    51b2:	e7ef      	b.n	5194 <io_printf+0x1f8>
    51b4:	9a05      	ldr	r2, [sp, #20]
    51b6:	1d11      	adds	r1, r2, #4
    51b8:	6812      	ldr	r2, [r2, #0]
    51ba:	9105      	str	r1, [sp, #20]
    51bc:	17d0      	asrs	r0, r2, #31
    51be:	1811      	adds	r1, r2, r0
    51c0:	0fd2      	lsrs	r2, r2, #31
    51c2:	4041      	eors	r1, r0
    51c4:	9201      	str	r2, [sp, #4]
    51c6:	9a03      	ldr	r2, [sp, #12]
    51c8:	9200      	str	r2, [sp, #0]
    51ca:	0049      	lsls	r1, r1, #1
    51cc:	003a      	movs	r2, r7
    51ce:	e72f      	b.n	5030 <io_printf+0x94>
    51d0:	9b05      	ldr	r3, [sp, #20]
    51d2:	4815      	ldr	r0, [pc, #84]	; (5228 <io_printf+0x28c>)
    51d4:	1d1a      	adds	r2, r3, #4
    51d6:	9205      	str	r2, [sp, #20]
    51d8:	681b      	ldr	r3, [r3, #0]
    51da:	220f      	movs	r2, #15
    51dc:	2500      	movs	r5, #0
    51de:	ae08      	add	r6, sp, #32
    51e0:	4694      	mov	ip, r2
    51e2:	4661      	mov	r1, ip
    51e4:	4019      	ands	r1, r3
    51e6:	3501      	adds	r5, #1
    51e8:	1e6a      	subs	r2, r5, #1
    51ea:	5c41      	ldrb	r1, [r0, r1]
    51ec:	54b1      	strb	r1, [r6, r2]
    51ee:	091b      	lsrs	r3, r3, #4
    51f0:	d1f7      	bne.n	51e2 <io_printf+0x246>
    51f2:	3d01      	subs	r5, #1
    51f4:	5d73      	ldrb	r3, [r6, r5]
    51f6:	2b30      	cmp	r3, #48	; 0x30
    51f8:	d101      	bne.n	51fe <io_printf+0x262>
    51fa:	2d00      	cmp	r5, #0
    51fc:	d1f9      	bne.n	51f2 <io_printf+0x256>
    51fe:	1c6b      	adds	r3, r5, #1
    5200:	42bb      	cmp	r3, r7
    5202:	d306      	bcc.n	5212 <io_printf+0x276>
    5204:	5d71      	ldrb	r1, [r6, r5]
    5206:	0020      	movs	r0, r4
    5208:	f7ff fdf4 	bl	4df4 <io_put_char>
    520c:	3d01      	subs	r5, #1
    520e:	d2f9      	bcs.n	5204 <io_printf+0x268>
    5210:	e6d1      	b.n	4fb6 <io_printf+0x1a>
    5212:	9903      	ldr	r1, [sp, #12]
    5214:	0020      	movs	r0, r4
    5216:	f7ff fded 	bl	4df4 <io_put_char>
    521a:	3f01      	subs	r7, #1
    521c:	e7ef      	b.n	51fe <io_printf+0x262>
    521e:	46c0      	nop			; (mov r8, r8)
    5220:	00400450 	.word	0x00400450
    5224:	3fffffff 	.word	0x3fffffff
    5228:	00007b2d 	.word	0x00007b2d

0000522c <configure_dma_controller>:
    522c:	4b06      	ldr	r3, [pc, #24]	; (5248 <configure_dma_controller+0x1c>)
    522e:	223f      	movs	r2, #63	; 0x3f
    5230:	601a      	str	r2, [r3, #0]
    5232:	3a32      	subs	r2, #50	; 0x32
    5234:	601a      	str	r2, [r3, #0]
    5236:	4b05      	ldr	r3, [pc, #20]	; (524c <configure_dma_controller+0x20>)
    5238:	22c0      	movs	r2, #192	; 0xc0
    523a:	0112      	lsls	r2, r2, #4
    523c:	601a      	str	r2, [r3, #0]
    523e:	4b04      	ldr	r3, [pc, #16]	; (5250 <configure_dma_controller+0x24>)
    5240:	2203      	movs	r2, #3
    5242:	601a      	str	r2, [r3, #0]
    5244:	4770      	bx	lr
    5246:	46c0      	nop			; (mov r8, r8)
    5248:	40000010 	.word	0x40000010
    524c:	40000018 	.word	0x40000018
    5250:	40000028 	.word	0x40000028

00005254 <configure_timer1>:
    5254:	4b08      	ldr	r3, [pc, #32]	; (5278 <configure_timer1+0x24>)
    5256:	2200      	movs	r2, #0
    5258:	601a      	str	r2, [r3, #0]
    525a:	4b08      	ldr	r3, [pc, #32]	; (527c <configure_timer1+0x28>)
    525c:	3201      	adds	r2, #1
    525e:	601a      	str	r2, [r3, #0]
    5260:	4b07      	ldr	r3, [pc, #28]	; (5280 <configure_timer1+0x2c>)
    5262:	1841      	adds	r1, r0, r1
    5264:	8c9b      	ldrh	r3, [r3, #36]	; 0x24
    5266:	2284      	movs	r2, #132	; 0x84
    5268:	4359      	muls	r1, r3
    526a:	4358      	muls	r0, r3
    526c:	4b05      	ldr	r3, [pc, #20]	; (5284 <configure_timer1+0x30>)
    526e:	0592      	lsls	r2, r2, #22
    5270:	6011      	str	r1, [r2, #0]
    5272:	6018      	str	r0, [r3, #0]
    5274:	4770      	bx	lr
    5276:	46c0      	nop			; (mov r8, r8)
    5278:	21000008 	.word	0x21000008
    527c:	2100000c 	.word	0x2100000c
    5280:	e5007f00 	.word	0xe5007f00
    5284:	21000018 	.word	0x21000018

00005288 <configure_vic>:
    5288:	4b36      	ldr	r3, [pc, #216]	; (5364 <configure_vic+0xdc>)
    528a:	4a37      	ldr	r2, [pc, #220]	; (5368 <configure_vic+0xe0>)
    528c:	b530      	push	{r4, r5, lr}
    528e:	601a      	str	r2, [r3, #0]
    5290:	4a36      	ldr	r2, [pc, #216]	; (536c <configure_vic+0xe4>)
    5292:	2320      	movs	r3, #32
    5294:	69d9      	ldr	r1, [r3, #28]
    5296:	6011      	str	r1, [r2, #0]
    5298:	4935      	ldr	r1, [pc, #212]	; (5370 <configure_vic+0xe8>)
    529a:	4a36      	ldr	r2, [pc, #216]	; (5374 <configure_vic+0xec>)
    529c:	0004      	movs	r4, r0
    529e:	6808      	ldr	r0, [r1, #0]
    52a0:	6010      	str	r0, [r2, #0]
    52a2:	4a35      	ldr	r2, [pc, #212]	; (5378 <configure_vic+0xf0>)
    52a4:	4835      	ldr	r0, [pc, #212]	; (537c <configure_vic+0xf4>)
    52a6:	6815      	ldr	r5, [r2, #0]
    52a8:	6005      	str	r5, [r0, #0]
    52aa:	4835      	ldr	r0, [pc, #212]	; (5380 <configure_vic+0xf8>)
    52ac:	6800      	ldr	r0, [r0, #0]
    52ae:	2807      	cmp	r0, #7
    52b0:	d854      	bhi.n	535c <configure_vic+0xd4>
    52b2:	f7fb f857 	bl	364 <__gnu_thumb1_case_uqi>
    52b6:	4604      	.short	0x4604
    52b8:	044f534b 	.word	0x044f534b
    52bc:	4141      	.short	0x4141
    52be:	4831      	ldr	r0, [pc, #196]	; (5384 <configure_vic+0xfc>)
    52c0:	61d8      	str	r0, [r3, #28]
    52c2:	2080      	movs	r0, #128	; 0x80
    52c4:	0440      	lsls	r0, r0, #17
    52c6:	2359      	movs	r3, #89	; 0x59
    52c8:	781b      	ldrb	r3, [r3, #0]
    52ca:	4d2f      	ldr	r5, [pc, #188]	; (5388 <configure_vic+0x100>)
    52cc:	009b      	lsls	r3, r3, #2
    52ce:	195b      	adds	r3, r3, r5
    52d0:	2500      	movs	r5, #0
    52d2:	601d      	str	r5, [r3, #0]
    52d4:	4b2d      	ldr	r3, [pc, #180]	; (538c <configure_vic+0x104>)
    52d6:	4d2e      	ldr	r5, [pc, #184]	; (5390 <configure_vic+0x108>)
    52d8:	601d      	str	r5, [r3, #0]
    52da:	4b2b      	ldr	r3, [pc, #172]	; (5388 <configure_vic+0x100>)
    52dc:	2532      	movs	r5, #50	; 0x32
    52de:	601d      	str	r5, [r3, #0]
    52e0:	4b2c      	ldr	r3, [pc, #176]	; (5394 <configure_vic+0x10c>)
    52e2:	4d2d      	ldr	r5, [pc, #180]	; (5398 <configure_vic+0x110>)
    52e4:	601d      	str	r5, [r3, #0]
    52e6:	4b2d      	ldr	r3, [pc, #180]	; (539c <configure_vic+0x114>)
    52e8:	2538      	movs	r5, #56	; 0x38
    52ea:	601d      	str	r5, [r3, #0]
    52ec:	4b2c      	ldr	r3, [pc, #176]	; (53a0 <configure_vic+0x118>)
    52ee:	4d2d      	ldr	r5, [pc, #180]	; (53a4 <configure_vic+0x11c>)
    52f0:	601d      	str	r5, [r3, #0]
    52f2:	4b2d      	ldr	r3, [pc, #180]	; (53a8 <configure_vic+0x120>)
    52f4:	253b      	movs	r5, #59	; 0x3b
    52f6:	601d      	str	r5, [r3, #0]
    52f8:	4b2c      	ldr	r3, [pc, #176]	; (53ac <configure_vic+0x124>)
    52fa:	4d2d      	ldr	r5, [pc, #180]	; (53b0 <configure_vic+0x128>)
    52fc:	601d      	str	r5, [r3, #0]
    52fe:	4b2d      	ldr	r3, [pc, #180]	; (53b4 <configure_vic+0x12c>)
    5300:	252c      	movs	r5, #44	; 0x2c
    5302:	601d      	str	r5, [r3, #0]
    5304:	4b2c      	ldr	r3, [pc, #176]	; (53b8 <configure_vic+0x130>)
    5306:	4d2d      	ldr	r5, [pc, #180]	; (53bc <configure_vic+0x134>)
    5308:	601d      	str	r5, [r3, #0]
    530a:	4b2d      	ldr	r3, [pc, #180]	; (53c0 <configure_vic+0x138>)
    530c:	2524      	movs	r5, #36	; 0x24
    530e:	601d      	str	r5, [r3, #0]
    5310:	4b2c      	ldr	r3, [pc, #176]	; (53c4 <configure_vic+0x13c>)
    5312:	4d2d      	ldr	r5, [pc, #180]	; (53c8 <configure_vic+0x140>)
    5314:	601d      	str	r5, [r3, #0]
    5316:	4b2d      	ldr	r3, [pc, #180]	; (53cc <configure_vic+0x144>)
    5318:	252b      	movs	r5, #43	; 0x2b
    531a:	601d      	str	r5, [r3, #0]
    531c:	4b2c      	ldr	r3, [pc, #176]	; (53d0 <configure_vic+0x148>)
    531e:	4d2d      	ldr	r5, [pc, #180]	; (53d4 <configure_vic+0x14c>)
    5320:	601d      	str	r5, [r3, #0]
    5322:	4b2d      	ldr	r3, [pc, #180]	; (53d8 <configure_vic+0x150>)
    5324:	2521      	movs	r5, #33	; 0x21
    5326:	601d      	str	r5, [r3, #0]
    5328:	6008      	str	r0, [r1, #0]
    532a:	2c00      	cmp	r4, #0
    532c:	d118      	bne.n	5360 <configure_vic+0xd8>
    532e:	4b2b      	ldr	r3, [pc, #172]	; (53dc <configure_vic+0x154>)
    5330:	492b      	ldr	r1, [pc, #172]	; (53e0 <configure_vic+0x158>)
    5332:	400b      	ands	r3, r1
    5334:	6013      	str	r3, [r2, #0]
    5336:	bd30      	pop	{r4, r5, pc}
    5338:	482a      	ldr	r0, [pc, #168]	; (53e4 <configure_vic+0x15c>)
    533a:	61d8      	str	r0, [r3, #28]
    533c:	2080      	movs	r0, #128	; 0x80
    533e:	0500      	lsls	r0, r0, #20
    5340:	e7c1      	b.n	52c6 <configure_vic+0x3e>
    5342:	4829      	ldr	r0, [pc, #164]	; (53e8 <configure_vic+0x160>)
    5344:	61d8      	str	r0, [r3, #28]
    5346:	2080      	movs	r0, #128	; 0x80
    5348:	0140      	lsls	r0, r0, #5
    534a:	e7bc      	b.n	52c6 <configure_vic+0x3e>
    534c:	4827      	ldr	r0, [pc, #156]	; (53ec <configure_vic+0x164>)
    534e:	61d8      	str	r0, [r3, #28]
    5350:	2010      	movs	r0, #16
    5352:	e7b8      	b.n	52c6 <configure_vic+0x3e>
    5354:	4826      	ldr	r0, [pc, #152]	; (53f0 <configure_vic+0x168>)
    5356:	61d8      	str	r0, [r3, #28]
    5358:	2002      	movs	r0, #2
    535a:	e7b4      	b.n	52c6 <configure_vic+0x3e>
    535c:	2000      	movs	r0, #0
    535e:	e7b2      	b.n	52c6 <configure_vic+0x3e>
    5360:	4b01      	ldr	r3, [pc, #4]	; (5368 <configure_vic+0xe0>)
    5362:	e7e5      	b.n	5330 <configure_vic+0xa8>
    5364:	1f000014 	.word	0x1f000014
    5368:	09003012 	.word	0x09003012
    536c:	00400a00 	.word	0x00400a00
    5370:	1f00000c 	.word	0x1f00000c
    5374:	00400ba0 	.word	0x00400ba0
    5378:	1f000010 	.word	0x1f000010
    537c:	00400a4c 	.word	0x00400a4c
    5380:	00400004 	.word	0x00400004
    5384:	00005bf8 	.word	0x00005bf8
    5388:	2f000200 	.word	0x2f000200
    538c:	2f000100 	.word	0x2f000100
    5390:	00000300 	.word	0x00000300
    5394:	2f00010c 	.word	0x2f00010c
    5398:	00005b84 	.word	0x00005b84
    539c:	2f00020c 	.word	0x2f00020c
    53a0:	2f000110 	.word	0x2f000110
    53a4:	00005c30 	.word	0x00005c30
    53a8:	2f000210 	.word	0x2f000210
    53ac:	2f000108 	.word	0x2f000108
    53b0:	00005d68 	.word	0x00005d68
    53b4:	2f000208 	.word	0x2f000208
    53b8:	2f000104 	.word	0x2f000104
    53bc:	00005e70 	.word	0x00005e70
    53c0:	2f000204 	.word	0x2f000204
    53c4:	2f000114 	.word	0x2f000114
    53c8:	00005cdc 	.word	0x00005cdc
    53cc:	2f000214 	.word	0x2f000214
    53d0:	2f000118 	.word	0x2f000118
    53d4:	00005f38 	.word	0x00005f38
    53d8:	2f000218 	.word	0x2f000218
    53dc:	09003002 	.word	0x09003002
    53e0:	ffffdfff 	.word	0xffffdfff
    53e4:	00005ca4 	.word	0x00005ca4
    53e8:	00005df8 	.word	0x00005df8
    53ec:	00005ef8 	.word	0x00005ef8
    53f0:	00005fa0 	.word	0x00005fa0

000053f4 <resume>:
    53f4:	4a0b      	ldr	r2, [pc, #44]	; (5424 <resume+0x30>)
    53f6:	b510      	push	{r4, lr}
    53f8:	6813      	ldr	r3, [r2, #0]
    53fa:	2b01      	cmp	r3, #1
    53fc:	d105      	bne.n	540a <resume+0x16>
    53fe:	2100      	movs	r1, #0
    5400:	6011      	str	r1, [r2, #0]
    5402:	4a09      	ldr	r2, [pc, #36]	; (5428 <resume+0x34>)
    5404:	7e91      	ldrb	r1, [r2, #26]
    5406:	404b      	eors	r3, r1
    5408:	7693      	strb	r3, [r2, #26]
    540a:	4b08      	ldr	r3, [pc, #32]	; (542c <resume+0x38>)
    540c:	2200      	movs	r2, #0
    540e:	2007      	movs	r0, #7
    5410:	601a      	str	r2, [r3, #0]
    5412:	f7ff f8b9 	bl	4588 <sark_cpu_state>
    5416:	4b06      	ldr	r3, [pc, #24]	; (5430 <resume+0x3c>)
    5418:	2210      	movs	r2, #16
    541a:	601a      	str	r2, [r3, #0]
    541c:	4b05      	ldr	r3, [pc, #20]	; (5434 <resume+0x40>)
    541e:	32d2      	adds	r2, #210	; 0xd2
    5420:	601a      	str	r2, [r3, #0]
    5422:	bd10      	pop	{r4, pc}
    5424:	00400458 	.word	0x00400458
    5428:	00400968 	.word	0x00400968
    542c:	00400454 	.word	0x00400454
    5430:	1f000010 	.word	0x1f000010
    5434:	21000008 	.word	0x21000008

00005438 <resume_wait>:
    5438:	4b06      	ldr	r3, [pc, #24]	; (5454 <resume_wait+0x1c>)
    543a:	2001      	movs	r0, #1
    543c:	681b      	ldr	r3, [r3, #0]
    543e:	4098      	lsls	r0, r3
    5440:	4b05      	ldr	r3, [pc, #20]	; (5458 <resume_wait+0x20>)
    5442:	7e9a      	ldrb	r2, [r3, #26]
    5444:	4b05      	ldr	r3, [pc, #20]	; (545c <resume_wait+0x24>)
    5446:	681b      	ldr	r3, [r3, #0]
    5448:	2a00      	cmp	r2, #0
    544a:	d001      	beq.n	5450 <resume_wait+0x18>
    544c:	4398      	bics	r0, r3
    544e:	4770      	bx	lr
    5450:	4018      	ands	r0, r3
    5452:	e7fc      	b.n	544e <resume_wait+0x16>
    5454:	0040092c 	.word	0x0040092c
    5458:	00400968 	.word	0x00400968
    545c:	e2000058 	.word	0xe2000058

00005460 <dispatch>:
    5460:	b5f7      	push	{r0, r1, r2, r4, r5, r6, r7, lr}
    5462:	4a33      	ldr	r2, [pc, #204]	; (5530 <dispatch+0xd0>)
    5464:	2300      	movs	r3, #0
    5466:	6013      	str	r3, [r2, #0]
    5468:	4b32      	ldr	r3, [pc, #200]	; (5534 <dispatch+0xd4>)
    546a:	681b      	ldr	r3, [r3, #0]
    546c:	2b00      	cmp	r3, #0
    546e:	d100      	bne.n	5472 <dispatch+0x12>
    5470:	bdf7      	pop	{r0, r1, r2, r4, r5, r6, r7, pc}
    5472:	f7fa eeaa 	blx	1c8 <cpu_int_disable>
    5476:	2300      	movs	r3, #0
    5478:	0004      	movs	r4, r0
    547a:	4a2e      	ldr	r2, [pc, #184]	; (5534 <dispatch+0xd4>)
    547c:	6811      	ldr	r1, [r2, #0]
    547e:	2900      	cmp	r1, #0
    5480:	d112      	bne.n	54a8 <dispatch+0x48>
    5482:	6813      	ldr	r3, [r2, #0]
    5484:	2b00      	cmp	r3, #0
    5486:	d0ef      	beq.n	5468 <dispatch+0x8>
    5488:	f7fa eeaa 	blx	1e0 <cpu_wfi>
    548c:	4b28      	ldr	r3, [pc, #160]	; (5530 <dispatch+0xd0>)
    548e:	681b      	ldr	r3, [r3, #0]
    5490:	2b01      	cmp	r3, #1
    5492:	d105      	bne.n	54a0 <dispatch+0x40>
    5494:	f7ff ffd0 	bl	5438 <resume_wait>
    5498:	2800      	cmp	r0, #0
    549a:	d101      	bne.n	54a0 <dispatch+0x40>
    549c:	f7ff ffaa 	bl	53f4 <resume>
    54a0:	0020      	movs	r0, r4
    54a2:	f7fa ee9a 	blx	1d8 <cpu_int_restore>
    54a6:	e7df      	b.n	5468 <dispatch+0x8>
    54a8:	2b03      	cmp	r3, #3
    54aa:	d8ea      	bhi.n	5482 <dispatch+0x22>
    54ac:	22c8      	movs	r2, #200	; 0xc8
    54ae:	435a      	muls	r2, r3
    54b0:	4921      	ldr	r1, [pc, #132]	; (5538 <dispatch+0xd8>)
    54b2:	1c58      	adds	r0, r3, #1
    54b4:	0013      	movs	r3, r2
    54b6:	18ce      	adds	r6, r1, r3
    54b8:	5852      	ldr	r2, [r2, r1]
    54ba:	6876      	ldr	r6, [r6, #4]
    54bc:	42b2      	cmp	r2, r6
    54be:	d035      	beq.n	552c <dispatch+0xcc>
    54c0:	270c      	movs	r7, #12
    54c2:	4357      	muls	r7, r2
    54c4:	18ff      	adds	r7, r7, r3
    54c6:	19cf      	adds	r7, r1, r7
    54c8:	3201      	adds	r2, #1
    54ca:	68be      	ldr	r6, [r7, #8]
    54cc:	0015      	movs	r5, r2
    54ce:	220f      	movs	r2, #15
    54d0:	9601      	str	r6, [sp, #4]
    54d2:	4015      	ands	r5, r2
    54d4:	505d      	str	r5, [r3, r1]
    54d6:	9b01      	ldr	r3, [sp, #4]
    54d8:	68fe      	ldr	r6, [r7, #12]
    54da:	693f      	ldr	r7, [r7, #16]
    54dc:	2b00      	cmp	r3, #0
    54de:	d025      	beq.n	552c <dispatch+0xcc>
    54e0:	0020      	movs	r0, r4
    54e2:	f7fa ee7a 	blx	1d8 <cpu_int_restore>
    54e6:	4c15      	ldr	r4, [pc, #84]	; (553c <dispatch+0xdc>)
    54e8:	9a01      	ldr	r2, [sp, #4]
    54ea:	6923      	ldr	r3, [r4, #16]
    54ec:	4293      	cmp	r3, r2
    54ee:	d102      	bne.n	54f6 <dispatch+0x96>
    54f0:	4a13      	ldr	r2, [pc, #76]	; (5540 <dispatch+0xe0>)
    54f2:	2101      	movs	r1, #1
    54f4:	6391      	str	r1, [r2, #56]	; 0x38
    54f6:	9a01      	ldr	r2, [sp, #4]
    54f8:	4293      	cmp	r3, r2
    54fa:	d103      	bne.n	5504 <dispatch+0xa4>
    54fc:	4b11      	ldr	r3, [pc, #68]	; (5544 <dispatch+0xe4>)
    54fe:	681b      	ldr	r3, [r3, #0]
    5500:	2b00      	cmp	r3, #0
    5502:	d103      	bne.n	550c <dispatch+0xac>
    5504:	9b01      	ldr	r3, [sp, #4]
    5506:	0039      	movs	r1, r7
    5508:	0030      	movs	r0, r6
    550a:	4798      	blx	r3
    550c:	9b01      	ldr	r3, [sp, #4]
    550e:	6922      	ldr	r2, [r4, #16]
    5510:	429a      	cmp	r2, r3
    5512:	d107      	bne.n	5524 <dispatch+0xc4>
    5514:	4a0a      	ldr	r2, [pc, #40]	; (5540 <dispatch+0xe0>)
    5516:	6bd3      	ldr	r3, [r2, #60]	; 0x3c
    5518:	2b00      	cmp	r3, #0
    551a:	d001      	beq.n	5520 <dispatch+0xc0>
    551c:	3b01      	subs	r3, #1
    551e:	63d3      	str	r3, [r2, #60]	; 0x3c
    5520:	2300      	movs	r3, #0
    5522:	6393      	str	r3, [r2, #56]	; 0x38
    5524:	f7fa ee50 	blx	1c8 <cpu_int_disable>
    5528:	0004      	movs	r4, r0
    552a:	2000      	movs	r0, #0
    552c:	0003      	movs	r3, r0
    552e:	e7a4      	b.n	547a <dispatch+0x1a>
    5530:	00400458 	.word	0x00400458
    5534:	0040045c 	.word	0x0040045c
    5538:	00400460 	.word	0x00400460
    553c:	00400bac 	.word	0x00400bac
    5540:	00400a04 	.word	0x00400a04
    5544:	00400454 	.word	0x00400454

00005548 <spin1_callback_on>:
    5548:	4b1d      	ldr	r3, [pc, #116]	; (55c0 <spin1_callback_on+0x78>)
    554a:	b570      	push	{r4, r5, r6, lr}
    554c:	0015      	movs	r5, r2
    554e:	00c2      	lsls	r2, r0, #3
    5550:	50d1      	str	r1, [r2, r3]
    5552:	189b      	adds	r3, r3, r2
    5554:	0004      	movs	r4, r0
    5556:	605d      	str	r5, [r3, #4]
    5558:	2d00      	cmp	r5, #0
    555a:	da08      	bge.n	556e <spin1_callback_on+0x26>
    555c:	4a19      	ldr	r2, [pc, #100]	; (55c4 <spin1_callback_on+0x7c>)
    555e:	6813      	ldr	r3, [r2, #0]
    5560:	1c59      	adds	r1, r3, #1
    5562:	d003      	beq.n	556c <spin1_callback_on+0x24>
    5564:	2800      	cmp	r0, #0
    5566:	d10c      	bne.n	5582 <spin1_callback_on+0x3a>
    5568:	2b05      	cmp	r3, #5
    556a:	d10e      	bne.n	558a <spin1_callback_on+0x42>
    556c:	6014      	str	r4, [r2, #0]
    556e:	2c00      	cmp	r4, #0
    5570:	d001      	beq.n	5576 <spin1_callback_on+0x2e>
    5572:	2c05      	cmp	r4, #5
    5574:	d11f      	bne.n	55b6 <spin1_callback_on+0x6e>
    5576:	4a14      	ldr	r2, [pc, #80]	; (55c8 <spin1_callback_on+0x80>)
    5578:	6813      	ldr	r3, [r2, #0]
    557a:	1c99      	adds	r1, r3, #2
    557c:	d113      	bne.n	55a6 <spin1_callback_on+0x5e>
    557e:	6015      	str	r5, [r2, #0]
    5580:	e018      	b.n	55b4 <spin1_callback_on+0x6c>
    5582:	2805      	cmp	r0, #5
    5584:	d105      	bne.n	5592 <spin1_callback_on+0x4a>
    5586:	2b00      	cmp	r3, #0
    5588:	d0f0      	beq.n	556c <spin1_callback_on+0x24>
    558a:	2013      	movs	r0, #19
    558c:	f7fa edce 	blx	12c <rt_error>
    5590:	e7ed      	b.n	556e <spin1_callback_on+0x26>
    5592:	2806      	cmp	r0, #6
    5594:	d102      	bne.n	559c <spin1_callback_on+0x54>
    5596:	2b07      	cmp	r3, #7
    5598:	d1f7      	bne.n	558a <spin1_callback_on+0x42>
    559a:	e7e7      	b.n	556c <spin1_callback_on+0x24>
    559c:	2807      	cmp	r0, #7
    559e:	d1f4      	bne.n	558a <spin1_callback_on+0x42>
    55a0:	2b06      	cmp	r3, #6
    55a2:	d1f2      	bne.n	558a <spin1_callback_on+0x42>
    55a4:	e7e2      	b.n	556c <spin1_callback_on+0x24>
    55a6:	3301      	adds	r3, #1
    55a8:	d104      	bne.n	55b4 <spin1_callback_on+0x6c>
    55aa:	1c6b      	adds	r3, r5, #1
    55ac:	d002      	beq.n	55b4 <spin1_callback_on+0x6c>
    55ae:	2013      	movs	r0, #19
    55b0:	f7fa edbc 	blx	12c <rt_error>
    55b4:	bd70      	pop	{r4, r5, r6, pc}
    55b6:	3c06      	subs	r4, #6
    55b8:	2c01      	cmp	r4, #1
    55ba:	d8fb      	bhi.n	55b4 <spin1_callback_on+0x6c>
    55bc:	4a03      	ldr	r2, [pc, #12]	; (55cc <spin1_callback_on+0x84>)
    55be:	e7db      	b.n	5578 <spin1_callback_on+0x30>
    55c0:	00400bac 	.word	0x00400bac
    55c4:	00400004 	.word	0x00400004
    55c8:	0040000c 	.word	0x0040000c
    55cc:	00400008 	.word	0x00400008

000055d0 <spin1_get_simulation_time>:
    55d0:	4b01      	ldr	r3, [pc, #4]	; (55d8 <spin1_get_simulation_time+0x8>)
    55d2:	6818      	ldr	r0, [r3, #0]
    55d4:	4770      	bx	lr
    55d6:	46c0      	nop			; (mov r8, r8)
    55d8:	00400ba4 	.word	0x00400ba4

000055dc <spin1_exit>:
    55dc:	4b04      	ldr	r3, [pc, #16]	; (55f0 <spin1_exit+0x14>)
    55de:	4a05      	ldr	r2, [pc, #20]	; (55f4 <spin1_exit+0x18>)
    55e0:	601a      	str	r2, [r3, #0]
    55e2:	4b05      	ldr	r3, [pc, #20]	; (55f8 <spin1_exit+0x1c>)
    55e4:	2200      	movs	r2, #0
    55e6:	601a      	str	r2, [r3, #0]
    55e8:	4b04      	ldr	r3, [pc, #16]	; (55fc <spin1_exit+0x20>)
    55ea:	6018      	str	r0, [r3, #0]
    55ec:	4770      	bx	lr
    55ee:	46c0      	nop			; (mov r8, r8)
    55f0:	1f000014 	.word	0x1f000014
    55f4:	09003012 	.word	0x09003012
    55f8:	0040045c 	.word	0x0040045c
    55fc:	00400a04 	.word	0x00400a04

00005600 <spin1_set_timer_tick_and_phase>:
    5600:	4b02      	ldr	r3, [pc, #8]	; (560c <spin1_set_timer_tick_and_phase+0xc>)
    5602:	6018      	str	r0, [r3, #0]
    5604:	4b02      	ldr	r3, [pc, #8]	; (5610 <spin1_set_timer_tick_and_phase+0x10>)
    5606:	6019      	str	r1, [r3, #0]
    5608:	4770      	bx	lr
    560a:	46c0      	nop			; (mov r8, r8)
    560c:	00400784 	.word	0x00400784
    5610:	00400780 	.word	0x00400780

00005614 <clean_up>:
    5614:	b510      	push	{r4, lr}
    5616:	f7fa edd8 	blx	1c8 <cpu_int_disable>
    561a:	4b10      	ldr	r3, [pc, #64]	; (565c <clean_up+0x48>)
    561c:	681a      	ldr	r2, [r3, #0]
    561e:	2320      	movs	r3, #32
    5620:	61da      	str	r2, [r3, #28]
    5622:	4b0f      	ldr	r3, [pc, #60]	; (5660 <clean_up+0x4c>)
    5624:	681a      	ldr	r2, [r3, #0]
    5626:	4b0f      	ldr	r3, [pc, #60]	; (5664 <clean_up+0x50>)
    5628:	601a      	str	r2, [r3, #0]
    562a:	4b0f      	ldr	r3, [pc, #60]	; (5668 <clean_up+0x54>)
    562c:	681a      	ldr	r2, [r3, #0]
    562e:	4b0f      	ldr	r3, [pc, #60]	; (566c <clean_up+0x58>)
    5630:	601a      	str	r2, [r3, #0]
    5632:	2359      	movs	r3, #89	; 0x59
    5634:	781b      	ldrb	r3, [r3, #0]
    5636:	4a0e      	ldr	r2, [pc, #56]	; (5670 <clean_up+0x5c>)
    5638:	009b      	lsls	r3, r3, #2
    563a:	189b      	adds	r3, r3, r2
    563c:	2232      	movs	r2, #50	; 0x32
    563e:	601a      	str	r2, [r3, #0]
    5640:	4b0c      	ldr	r3, [pc, #48]	; (5674 <clean_up+0x60>)
    5642:	3a31      	subs	r2, #49	; 0x31
    5644:	601a      	str	r2, [r3, #0]
    5646:	4b0c      	ldr	r3, [pc, #48]	; (5678 <clean_up+0x64>)
    5648:	2200      	movs	r2, #0
    564a:	601a      	str	r2, [r3, #0]
    564c:	4b0b      	ldr	r3, [pc, #44]	; (567c <clean_up+0x68>)
    564e:	323f      	adds	r2, #63	; 0x3f
    5650:	601a      	str	r2, [r3, #0]
    5652:	3a32      	subs	r2, #50	; 0x32
    5654:	601a      	str	r2, [r3, #0]
    5656:	f7fa edc0 	blx	1d8 <cpu_int_restore>
    565a:	bd10      	pop	{r4, pc}
    565c:	00400a00 	.word	0x00400a00
    5660:	00400ba0 	.word	0x00400ba0
    5664:	1f00000c 	.word	0x1f00000c
    5668:	00400a4c 	.word	0x00400a4c
    566c:	1f000010 	.word	0x1f000010
    5670:	2f000200 	.word	0x2f000200
    5674:	2100000c 	.word	0x2100000c
    5678:	40000018 	.word	0x40000018
    567c:	40000010 	.word	0x40000010

00005680 <report_debug>:
    5680:	4b12      	ldr	r3, [pc, #72]	; (56cc <report_debug+0x4c>)
    5682:	b510      	push	{r4, lr}
    5684:	781b      	ldrb	r3, [r3, #0]
    5686:	2b00      	cmp	r3, #0
    5688:	d00e      	beq.n	56a8 <report_debug+0x28>
    568a:	4b11      	ldr	r3, [pc, #68]	; (56d0 <report_debug+0x50>)
    568c:	4911      	ldr	r1, [pc, #68]	; (56d4 <report_debug+0x54>)
    568e:	681a      	ldr	r2, [r3, #0]
    5690:	4b11      	ldr	r3, [pc, #68]	; (56d8 <report_debug+0x58>)
    5692:	2002      	movs	r0, #2
    5694:	681b      	ldr	r3, [r3, #0]
    5696:	18d2      	adds	r2, r2, r3
    5698:	f7ff fc80 	bl	4f9c <io_printf>
    569c:	4b0f      	ldr	r3, [pc, #60]	; (56dc <report_debug+0x5c>)
    569e:	4910      	ldr	r1, [pc, #64]	; (56e0 <report_debug+0x60>)
    56a0:	681a      	ldr	r2, [r3, #0]
    56a2:	2002      	movs	r0, #2
    56a4:	f7ff fc7a 	bl	4f9c <io_printf>
    56a8:	4c0e      	ldr	r4, [pc, #56]	; (56e4 <report_debug+0x64>)
    56aa:	490f      	ldr	r1, [pc, #60]	; (56e8 <report_debug+0x68>)
    56ac:	6922      	ldr	r2, [r4, #16]
    56ae:	2002      	movs	r0, #2
    56b0:	f7ff fc74 	bl	4f9c <io_printf>
    56b4:	6b62      	ldr	r2, [r4, #52]	; 0x34
    56b6:	490d      	ldr	r1, [pc, #52]	; (56ec <report_debug+0x6c>)
    56b8:	2002      	movs	r0, #2
    56ba:	f7ff fc6f 	bl	4f9c <io_printf>
    56be:	4b0c      	ldr	r3, [pc, #48]	; (56f0 <report_debug+0x70>)
    56c0:	490c      	ldr	r1, [pc, #48]	; (56f4 <report_debug+0x74>)
    56c2:	681a      	ldr	r2, [r3, #0]
    56c4:	2002      	movs	r0, #2
    56c6:	f7ff fc69 	bl	4f9c <io_printf>
    56ca:	bd10      	pop	{r4, pc}
    56cc:	00400a54 	.word	0x00400a54
    56d0:	e1000300 	.word	0xe1000300
    56d4:	00007b3e 	.word	0x00007b3e
    56d8:	e1000304 	.word	0xe1000304
    56dc:	e1000320 	.word	0xe1000320
    56e0:	00007b64 	.word	0x00007b64
    56e4:	00400a04 	.word	0x00400a04
    56e8:	00007b8a 	.word	0x00007b8a
    56ec:	00007bb0 	.word	0x00007bb0
    56f0:	40000040 	.word	0x40000040
    56f4:	00007bd9 	.word	0x00007bd9

000056f8 <report_warns>:
    56f8:	b510      	push	{r4, lr}
    56fa:	4c0d      	ldr	r4, [pc, #52]	; (5730 <report_warns+0x38>)
    56fc:	6863      	ldr	r3, [r4, #4]
    56fe:	07db      	lsls	r3, r3, #31
    5700:	d504      	bpl.n	570c <report_warns+0x14>
    5702:	6a22      	ldr	r2, [r4, #32]
    5704:	490b      	ldr	r1, [pc, #44]	; (5734 <report_warns+0x3c>)
    5706:	2002      	movs	r0, #2
    5708:	f7ff fc48 	bl	4f9c <io_printf>
    570c:	6863      	ldr	r3, [r4, #4]
    570e:	2002      	movs	r0, #2
    5710:	4203      	tst	r3, r0
    5712:	d003      	beq.n	571c <report_warns+0x24>
    5714:	69e2      	ldr	r2, [r4, #28]
    5716:	4908      	ldr	r1, [pc, #32]	; (5738 <report_warns+0x40>)
    5718:	f7ff fc40 	bl	4f9c <io_printf>
    571c:	6863      	ldr	r3, [r4, #4]
    571e:	075b      	lsls	r3, r3, #29
    5720:	d504      	bpl.n	572c <report_warns+0x34>
    5722:	6a62      	ldr	r2, [r4, #36]	; 0x24
    5724:	4905      	ldr	r1, [pc, #20]	; (573c <report_warns+0x44>)
    5726:	2002      	movs	r0, #2
    5728:	f7ff fc38 	bl	4f9c <io_printf>
    572c:	bd10      	pop	{r4, pc}
    572e:	46c0      	nop			; (mov r8, r8)
    5730:	00400a04 	.word	0x00400a04
    5734:	00007bf8 	.word	0x00007bf8
    5738:	00007c24 	.word	0x00007c24
    573c:	00007c4f 	.word	0x00007c4f

00005740 <start>:
    5740:	b5f7      	push	{r0, r1, r2, r4, r5, r6, r7, lr}
    5742:	4e2e      	ldr	r6, [pc, #184]	; (57fc <start+0xbc>)
    5744:	9001      	str	r0, [sp, #4]
    5746:	6031      	str	r1, [r6, #0]
    5748:	6833      	ldr	r3, [r6, #0]
    574a:	200a      	movs	r0, #10
    574c:	2b00      	cmp	r3, #0
    574e:	d100      	bne.n	5752 <start+0x12>
    5750:	2007      	movs	r0, #7
    5752:	f7fe ff19 	bl	4588 <sark_cpu_state>
    5756:	2380      	movs	r3, #128	; 0x80
    5758:	2500      	movs	r5, #0
    575a:	059b      	lsls	r3, r3, #22
    575c:	601d      	str	r5, [r3, #0]
    575e:	f7ff fd65 	bl	522c <configure_dma_controller>
    5762:	4b27      	ldr	r3, [pc, #156]	; (5800 <start+0xc0>)
    5764:	4f27      	ldr	r7, [pc, #156]	; (5804 <start+0xc4>)
    5766:	6819      	ldr	r1, [r3, #0]
    5768:	6838      	ldr	r0, [r7, #0]
    576a:	f7ff fd73 	bl	5254 <configure_timer1>
    576e:	6830      	ldr	r0, [r6, #0]
    5770:	4243      	negs	r3, r0
    5772:	4158      	adcs	r0, r3
    5774:	f7ff fd88 	bl	5288 <configure_vic>
    5778:	4c23      	ldr	r4, [pc, #140]	; (5808 <start+0xc8>)
    577a:	2301      	movs	r3, #1
    577c:	6163      	str	r3, [r4, #20]
    577e:	9b01      	ldr	r3, [sp, #4]
    5780:	6065      	str	r5, [r4, #4]
    5782:	61e5      	str	r5, [r4, #28]
    5784:	6225      	str	r5, [r4, #32]
    5786:	6265      	str	r5, [r4, #36]	; 0x24
    5788:	6025      	str	r5, [r4, #0]
    578a:	63a5      	str	r5, [r4, #56]	; 0x38
    578c:	63e5      	str	r5, [r4, #60]	; 0x3c
    578e:	6465      	str	r5, [r4, #68]	; 0x44
    5790:	6425      	str	r5, [r4, #64]	; 0x40
    5792:	2b01      	cmp	r3, #1
    5794:	d101      	bne.n	579a <start+0x5a>
    5796:	f7ff f9b5 	bl	4b04 <event_wait>
    579a:	683b      	ldr	r3, [r7, #0]
    579c:	2b00      	cmp	r3, #0
    579e:	d005      	beq.n	57ac <start+0x6c>
    57a0:	6833      	ldr	r3, [r6, #0]
    57a2:	2b00      	cmp	r3, #0
    57a4:	d102      	bne.n	57ac <start+0x6c>
    57a6:	4b19      	ldr	r3, [pc, #100]	; (580c <start+0xcc>)
    57a8:	22e2      	movs	r2, #226	; 0xe2
    57aa:	601a      	str	r2, [r3, #0]
    57ac:	4b18      	ldr	r3, [pc, #96]	; (5810 <start+0xd0>)
    57ae:	2200      	movs	r2, #0
    57b0:	601a      	str	r2, [r3, #0]
    57b2:	4b18      	ldr	r3, [pc, #96]	; (5814 <start+0xd4>)
    57b4:	3201      	adds	r2, #1
    57b6:	601a      	str	r2, [r3, #0]
    57b8:	f7ff fe52 	bl	5460 <dispatch>
    57bc:	f7ff ff2a 	bl	5614 <clean_up>
    57c0:	f7fa ecfa 	blx	1b8 <cpu_int_enable>
    57c4:	4b14      	ldr	r3, [pc, #80]	; (5818 <start+0xd8>)
    57c6:	4a15      	ldr	r2, [pc, #84]	; (581c <start+0xdc>)
    57c8:	681b      	ldr	r3, [r3, #0]
    57ca:	6812      	ldr	r2, [r2, #0]
    57cc:	189b      	adds	r3, r3, r2
    57ce:	60a3      	str	r3, [r4, #8]
    57d0:	4b13      	ldr	r3, [pc, #76]	; (5820 <start+0xe0>)
    57d2:	4a14      	ldr	r2, [pc, #80]	; (5824 <start+0xe4>)
    57d4:	681b      	ldr	r3, [r3, #0]
    57d6:	60e3      	str	r3, [r4, #12]
    57d8:	4b13      	ldr	r3, [pc, #76]	; (5828 <start+0xe8>)
    57da:	681b      	ldr	r3, [r3, #0]
    57dc:	61a3      	str	r3, [r4, #24]
    57de:	4b13      	ldr	r3, [pc, #76]	; (582c <start+0xec>)
    57e0:	681b      	ldr	r3, [r3, #0]
    57e2:	6812      	ldr	r2, [r2, #0]
    57e4:	189b      	adds	r3, r3, r2
    57e6:	62e3      	str	r3, [r4, #44]	; 0x2c
    57e8:	4b11      	ldr	r3, [pc, #68]	; (5830 <start+0xf0>)
    57ea:	681b      	ldr	r3, [r3, #0]
    57ec:	6323      	str	r3, [r4, #48]	; 0x30
    57ee:	f7ff ff47 	bl	5680 <report_debug>
    57f2:	f7ff ff81 	bl	56f8 <report_warns>
    57f6:	6820      	ldr	r0, [r4, #0]
    57f8:	bdfe      	pop	{r1, r2, r3, r4, r5, r6, r7, pc}
    57fa:	46c0      	nop			; (mov r8, r8)
    57fc:	00400454 	.word	0x00400454
    5800:	00400780 	.word	0x00400780
    5804:	00400784 	.word	0x00400784
    5808:	00400a04 	.word	0x00400a04
    580c:	21000008 	.word	0x21000008
    5810:	00400ba4 	.word	0x00400ba4
    5814:	0040045c 	.word	0x0040045c
    5818:	e1000300 	.word	0xe1000300
    581c:	e1000304 	.word	0xe1000304
    5820:	e1000320 	.word	0xe1000320
    5824:	e100031c 	.word	0xe100031c
    5828:	40000040 	.word	0x40000040
    582c:	e1000318 	.word	0xe1000318
    5830:	e100032c 	.word	0xe100032c

00005834 <spin1_start>:
    5834:	b510      	push	{r4, lr}
    5836:	2100      	movs	r1, #0
    5838:	f7ff ff82 	bl	5740 <start>
    583c:	bd10      	pop	{r4, pc}

0000583e <spin1_delay_us>:
    583e:	b510      	push	{r4, lr}
    5840:	f7fa fd3c 	bl	2bc <sark_delay_us>
    5844:	bd10      	pop	{r4, pc}
	...

00005848 <spin1_dma_transfer>:
    5848:	b5f0      	push	{r4, r5, r6, r7, lr}
    584a:	b085      	sub	sp, #20
    584c:	9100      	str	r1, [sp, #0]
    584e:	9201      	str	r2, [sp, #4]
    5850:	001c      	movs	r4, r3
    5852:	9003      	str	r0, [sp, #12]
    5854:	f7fa ecb8 	blx	1c8 <cpu_int_disable>
    5858:	4a1e      	ldr	r2, [pc, #120]	; (58d4 <spin1_dma_transfer+0x8c>)
    585a:	260f      	movs	r6, #15
    585c:	6851      	ldr	r1, [r2, #4]
    585e:	6817      	ldr	r7, [r2, #0]
    5860:	1c4d      	adds	r5, r1, #1
    5862:	402e      	ands	r6, r5
    5864:	4b1c      	ldr	r3, [pc, #112]	; (58d8 <spin1_dma_transfer+0x90>)
    5866:	9002      	str	r0, [sp, #8]
    5868:	42be      	cmp	r6, r7
    586a:	d02a      	beq.n	58c2 <spin1_dma_transfer+0x7a>
    586c:	695d      	ldr	r5, [r3, #20]
    586e:	04e4      	lsls	r4, r4, #19
    5870:	1c68      	adds	r0, r5, #1
    5872:	6158      	str	r0, [r3, #20]
    5874:	980a      	ldr	r0, [sp, #40]	; 0x28
    5876:	23c0      	movs	r3, #192	; 0xc0
    5878:	045b      	lsls	r3, r3, #17
    587a:	4303      	orrs	r3, r0
    587c:	2014      	movs	r0, #20
    587e:	431c      	orrs	r4, r3
    5880:	0003      	movs	r3, r0
    5882:	434b      	muls	r3, r1
    5884:	18d2      	adds	r2, r2, r3
    5886:	9b03      	ldr	r3, [sp, #12]
    5888:	60d3      	str	r3, [r2, #12]
    588a:	9b00      	ldr	r3, [sp, #0]
    588c:	6113      	str	r3, [r2, #16]
    588e:	9b01      	ldr	r3, [sp, #4]
    5890:	6153      	str	r3, [r2, #20]
    5892:	4b12      	ldr	r3, [pc, #72]	; (58dc <spin1_dma_transfer+0x94>)
    5894:	6095      	str	r5, [r2, #8]
    5896:	6194      	str	r4, [r2, #24]
    5898:	681b      	ldr	r3, [r3, #0]
    589a:	075b      	lsls	r3, r3, #29
    589c:	d409      	bmi.n	58b2 <spin1_dma_transfer+0x6a>
    589e:	42b9      	cmp	r1, r7
    58a0:	d107      	bne.n	58b2 <spin1_dma_transfer+0x6a>
    58a2:	4b0f      	ldr	r3, [pc, #60]	; (58e0 <spin1_dma_transfer+0x98>)
    58a4:	9a00      	ldr	r2, [sp, #0]
    58a6:	601a      	str	r2, [r3, #0]
    58a8:	4b0e      	ldr	r3, [pc, #56]	; (58e4 <spin1_dma_transfer+0x9c>)
    58aa:	9a01      	ldr	r2, [sp, #4]
    58ac:	601a      	str	r2, [r3, #0]
    58ae:	4b0e      	ldr	r3, [pc, #56]	; (58e8 <spin1_dma_transfer+0xa0>)
    58b0:	601c      	str	r4, [r3, #0]
    58b2:	4b08      	ldr	r3, [pc, #32]	; (58d4 <spin1_dma_transfer+0x8c>)
    58b4:	605e      	str	r6, [r3, #4]
    58b6:	9802      	ldr	r0, [sp, #8]
    58b8:	f7fa ec8e 	blx	1d8 <cpu_int_restore>
    58bc:	0028      	movs	r0, r5
    58be:	b005      	add	sp, #20
    58c0:	bdf0      	pop	{r4, r5, r6, r7, pc}
    58c2:	6859      	ldr	r1, [r3, #4]
    58c4:	2202      	movs	r2, #2
    58c6:	430a      	orrs	r2, r1
    58c8:	605a      	str	r2, [r3, #4]
    58ca:	69da      	ldr	r2, [r3, #28]
    58cc:	2500      	movs	r5, #0
    58ce:	3201      	adds	r2, #1
    58d0:	61da      	str	r2, [r3, #28]
    58d2:	e7f0      	b.n	58b6 <spin1_dma_transfer+0x6e>
    58d4:	00400a58 	.word	0x00400a58
    58d8:	00400a04 	.word	0x00400a04
    58dc:	40000014 	.word	0x40000014
    58e0:	40000004 	.word	0x40000004
    58e4:	40000008 	.word	0x40000008
    58e8:	4000000c 	.word	0x4000000c

000058ec <spin1_send_packet>:
    58ec:	b5f0      	push	{r4, r5, r6, r7, lr}
    58ee:	b085      	sub	sp, #20
    58f0:	000d      	movs	r5, r1
    58f2:	0014      	movs	r4, r2
    58f4:	0006      	movs	r6, r0
    58f6:	f7fa ec58 	blx	1a8 <cpu_irq_disable>
    58fa:	2180      	movs	r1, #128	; 0x80
    58fc:	0589      	lsls	r1, r1, #22
    58fe:	2300      	movs	r3, #0
    5900:	270f      	movs	r7, #15
    5902:	9001      	str	r0, [sp, #4]
    5904:	600b      	str	r3, [r1, #0]
    5906:	680a      	ldr	r2, [r1, #0]
    5908:	4694      	mov	ip, r2
    590a:	4660      	mov	r0, ip
    590c:	4a32      	ldr	r2, [pc, #200]	; (59d8 <spin1_send_packet+0xec>)
    590e:	0040      	lsls	r0, r0, #1
    5910:	d522      	bpl.n	5958 <spin1_send_packet+0x6c>
    5912:	6850      	ldr	r0, [r2, #4]
    5914:	1c41      	adds	r1, r0, #1
    5916:	400f      	ands	r7, r1
    5918:	6811      	ldr	r1, [r2, #0]
    591a:	428f      	cmp	r7, r1
    591c:	d10e      	bne.n	593c <spin1_send_packet+0x50>
    591e:	4a2f      	ldr	r2, [pc, #188]	; (59dc <spin1_send_packet+0xf0>)
    5920:	2104      	movs	r1, #4
    5922:	6850      	ldr	r0, [r2, #4]
    5924:	001c      	movs	r4, r3
    5926:	4301      	orrs	r1, r0
    5928:	6051      	str	r1, [r2, #4]
    592a:	6a51      	ldr	r1, [r2, #36]	; 0x24
    592c:	3101      	adds	r1, #1
    592e:	6251      	str	r1, [r2, #36]	; 0x24
    5930:	9801      	ldr	r0, [sp, #4]
    5932:	f7fa ec52 	blx	1d8 <cpu_int_restore>
    5936:	0020      	movs	r0, r4
    5938:	b005      	add	sp, #20
    593a:	bdf0      	pop	{r4, r5, r6, r7, pc}
    593c:	230c      	movs	r3, #12
    593e:	0001      	movs	r1, r0
    5940:	4359      	muls	r1, r3
    5942:	6057      	str	r7, [r2, #4]
    5944:	1851      	adds	r1, r2, r1
    5946:	4b26      	ldr	r3, [pc, #152]	; (59e0 <spin1_send_packet+0xf4>)
    5948:	2280      	movs	r2, #128	; 0x80
    594a:	0112      	lsls	r2, r2, #4
    594c:	608e      	str	r6, [r1, #8]
    594e:	60cd      	str	r5, [r1, #12]
    5950:	610c      	str	r4, [r1, #16]
    5952:	601a      	str	r2, [r3, #0]
    5954:	2401      	movs	r4, #1
    5956:	e7eb      	b.n	5930 <spin1_send_packet+0x44>
    5958:	6853      	ldr	r3, [r2, #4]
    595a:	6810      	ldr	r0, [r2, #0]
    595c:	3301      	adds	r3, #1
    595e:	403b      	ands	r3, r7
    5960:	4283      	cmp	r3, r0
    5962:	d11a      	bne.n	599a <spin1_send_packet+0xae>
    5964:	200c      	movs	r0, #12
    5966:	4684      	mov	ip, r0
    5968:	4660      	mov	r0, ip
    596a:	4358      	muls	r0, r3
    596c:	4684      	mov	ip, r0
    596e:	4494      	add	ip, r2
    5970:	4660      	mov	r0, ip
    5972:	6880      	ldr	r0, [r0, #8]
    5974:	9002      	str	r0, [sp, #8]
    5976:	4660      	mov	r0, ip
    5978:	68c0      	ldr	r0, [r0, #12]
    597a:	9003      	str	r0, [sp, #12]
    597c:	4660      	mov	r0, ip
    597e:	6900      	ldr	r0, [r0, #16]
    5980:	3301      	adds	r3, #1
    5982:	403b      	ands	r3, r7
    5984:	6013      	str	r3, [r2, #0]
    5986:	0003      	movs	r3, r0
    5988:	6008      	str	r0, [r1, #0]
    598a:	039b      	lsls	r3, r3, #14
    598c:	d502      	bpl.n	5994 <spin1_send_packet+0xa8>
    598e:	4b15      	ldr	r3, [pc, #84]	; (59e4 <spin1_send_packet+0xf8>)
    5990:	9a03      	ldr	r2, [sp, #12]
    5992:	601a      	str	r2, [r3, #0]
    5994:	4b14      	ldr	r3, [pc, #80]	; (59e8 <spin1_send_packet+0xfc>)
    5996:	9a02      	ldr	r2, [sp, #8]
    5998:	601a      	str	r2, [r3, #0]
    599a:	490f      	ldr	r1, [pc, #60]	; (59d8 <spin1_send_packet+0xec>)
    599c:	684b      	ldr	r3, [r1, #4]
    599e:	680a      	ldr	r2, [r1, #0]
    59a0:	429a      	cmp	r2, r3
    59a2:	d10c      	bne.n	59be <spin1_send_packet+0xd2>
    59a4:	2380      	movs	r3, #128	; 0x80
    59a6:	059b      	lsls	r3, r3, #22
    59a8:	601c      	str	r4, [r3, #0]
    59aa:	03a3      	lsls	r3, r4, #14
    59ac:	d501      	bpl.n	59b2 <spin1_send_packet+0xc6>
    59ae:	4b0d      	ldr	r3, [pc, #52]	; (59e4 <spin1_send_packet+0xf8>)
    59b0:	601d      	str	r5, [r3, #0]
    59b2:	4b0d      	ldr	r3, [pc, #52]	; (59e8 <spin1_send_packet+0xfc>)
    59b4:	2280      	movs	r2, #128	; 0x80
    59b6:	601e      	str	r6, [r3, #0]
    59b8:	0112      	lsls	r2, r2, #4
    59ba:	4b0c      	ldr	r3, [pc, #48]	; (59ec <spin1_send_packet+0x100>)
    59bc:	e7c9      	b.n	5952 <spin1_send_packet+0x66>
    59be:	200c      	movs	r0, #12
    59c0:	0002      	movs	r2, r0
    59c2:	435a      	muls	r2, r3
    59c4:	188a      	adds	r2, r1, r2
    59c6:	6096      	str	r6, [r2, #8]
    59c8:	60d5      	str	r5, [r2, #12]
    59ca:	6114      	str	r4, [r2, #16]
    59cc:	3301      	adds	r3, #1
    59ce:	220f      	movs	r2, #15
    59d0:	4013      	ands	r3, r2
    59d2:	604b      	str	r3, [r1, #4]
    59d4:	e7be      	b.n	5954 <spin1_send_packet+0x68>
    59d6:	46c0      	nop			; (mov r8, r8)
    59d8:	00400bec 	.word	0x00400bec
    59dc:	00400a04 	.word	0x00400a04
    59e0:	1f000010 	.word	0x1f000010
    59e4:	20000004 	.word	0x20000004
    59e8:	20000008 	.word	0x20000008
    59ec:	1f000014 	.word	0x1f000014

000059f0 <spin1_send_mc_packet>:
    59f0:	b510      	push	{r4, lr}
    59f2:	2a00      	cmp	r2, #0
    59f4:	d001      	beq.n	59fa <spin1_send_mc_packet+0xa>
    59f6:	2280      	movs	r2, #128	; 0x80
    59f8:	0292      	lsls	r2, r2, #10
    59fa:	f7ff ff77 	bl	58ec <spin1_send_packet>
    59fe:	bd10      	pop	{r4, pc}

00005a00 <spin1_get_core_id>:
    5a00:	4b01      	ldr	r3, [pc, #4]	; (5a08 <spin1_get_core_id+0x8>)
    5a02:	6818      	ldr	r0, [r3, #0]
    5a04:	4770      	bx	lr
    5a06:	46c0      	nop			; (mov r8, r8)
    5a08:	0040092c 	.word	0x0040092c

00005a0c <spin1_get_chip_id>:
    5a0c:	4b01      	ldr	r3, [pc, #4]	; (5a14 <spin1_get_chip_id+0x8>)
    5a0e:	8818      	ldrh	r0, [r3, #0]
    5a10:	4770      	bx	lr
    5a12:	46c0      	nop			; (mov r8, r8)
    5a14:	e5007f00 	.word	0xe5007f00

00005a18 <schedule_sysmode>:
    5a18:	b5f0      	push	{r4, r5, r6, r7, lr}
    5a1a:	b085      	sub	sp, #20
    5a1c:	9003      	str	r0, [sp, #12]
    5a1e:	9b03      	ldr	r3, [sp, #12]
    5a20:	4d1e      	ldr	r5, [pc, #120]	; (5a9c <schedule_sysmode+0x84>)
    5a22:	00de      	lsls	r6, r3, #3
    5a24:	19ab      	adds	r3, r5, r6
    5a26:	685c      	ldr	r4, [r3, #4]
    5a28:	0008      	movs	r0, r1
    5a2a:	2c00      	cmp	r4, #0
    5a2c:	dc04      	bgt.n	5a38 <schedule_sysmode+0x20>
    5a2e:	5973      	ldr	r3, [r6, r5]
    5a30:	0011      	movs	r1, r2
    5a32:	4798      	blx	r3
    5a34:	b005      	add	sp, #20
    5a36:	bdf0      	pop	{r4, r5, r6, r7, pc}
    5a38:	3c01      	subs	r4, #1
    5a3a:	21c8      	movs	r1, #200	; 0xc8
    5a3c:	0027      	movs	r7, r4
    5a3e:	434f      	muls	r7, r1
    5a40:	4b17      	ldr	r3, [pc, #92]	; (5aa0 <schedule_sysmode+0x88>)
    5a42:	9701      	str	r7, [sp, #4]
    5a44:	19df      	adds	r7, r3, r7
    5a46:	6879      	ldr	r1, [r7, #4]
    5a48:	9102      	str	r1, [sp, #8]
    5a4a:	3101      	adds	r1, #1
    5a4c:	468c      	mov	ip, r1
    5a4e:	4664      	mov	r4, ip
    5a50:	210f      	movs	r1, #15
    5a52:	400c      	ands	r4, r1
    5a54:	9901      	ldr	r1, [sp, #4]
    5a56:	46a4      	mov	ip, r4
    5a58:	58c9      	ldr	r1, [r1, r3]
    5a5a:	428c      	cmp	r4, r1
    5a5c:	d014      	beq.n	5a88 <schedule_sysmode+0x70>
    5a5e:	9c02      	ldr	r4, [sp, #8]
    5a60:	210c      	movs	r1, #12
    5a62:	434c      	muls	r4, r1
    5a64:	0021      	movs	r1, r4
    5a66:	9c01      	ldr	r4, [sp, #4]
    5a68:	190c      	adds	r4, r1, r4
    5a6a:	191b      	adds	r3, r3, r4
    5a6c:	5971      	ldr	r1, [r6, r5]
    5a6e:	6099      	str	r1, [r3, #8]
    5a70:	60d8      	str	r0, [r3, #12]
    5a72:	611a      	str	r2, [r3, #16]
    5a74:	4663      	mov	r3, ip
    5a76:	607b      	str	r3, [r7, #4]
    5a78:	9b03      	ldr	r3, [sp, #12]
    5a7a:	2b02      	cmp	r3, #2
    5a7c:	d1da      	bne.n	5a34 <schedule_sysmode+0x1c>
    5a7e:	4a09      	ldr	r2, [pc, #36]	; (5aa4 <schedule_sysmode+0x8c>)
    5a80:	6bd3      	ldr	r3, [r2, #60]	; 0x3c
    5a82:	3301      	adds	r3, #1
    5a84:	63d3      	str	r3, [r2, #60]	; 0x3c
    5a86:	e7d5      	b.n	5a34 <schedule_sysmode+0x1c>
    5a88:	4b06      	ldr	r3, [pc, #24]	; (5aa4 <schedule_sysmode+0x8c>)
    5a8a:	2201      	movs	r2, #1
    5a8c:	6859      	ldr	r1, [r3, #4]
    5a8e:	430a      	orrs	r2, r1
    5a90:	605a      	str	r2, [r3, #4]
    5a92:	6a1a      	ldr	r2, [r3, #32]
    5a94:	3201      	adds	r2, #1
    5a96:	621a      	str	r2, [r3, #32]
    5a98:	e7cc      	b.n	5a34 <schedule_sysmode+0x1c>
    5a9a:	46c0      	nop			; (mov r8, r8)
    5a9c:	00400bac 	.word	0x00400bac
    5aa0:	00400460 	.word	0x00400460
    5aa4:	00400a04 	.word	0x00400a04

00005aa8 <spin1_schedule_callback>:
    5aa8:	b5f7      	push	{r0, r1, r2, r4, r5, r6, r7, lr}
    5aaa:	001e      	movs	r6, r3
    5aac:	000c      	movs	r4, r1
    5aae:	9201      	str	r2, [sp, #4]
    5ab0:	3e01      	subs	r6, #1
    5ab2:	0005      	movs	r5, r0
    5ab4:	f7fa eb78 	blx	1a8 <cpu_irq_disable>
    5ab8:	21c8      	movs	r1, #200	; 0xc8
    5aba:	000b      	movs	r3, r1
    5abc:	4373      	muls	r3, r6
    5abe:	4a13      	ldr	r2, [pc, #76]	; (5b0c <spin1_schedule_callback+0x64>)
    5ac0:	9300      	str	r3, [sp, #0]
    5ac2:	18d7      	adds	r7, r2, r3
    5ac4:	687b      	ldr	r3, [r7, #4]
    5ac6:	260f      	movs	r6, #15
    5ac8:	469c      	mov	ip, r3
    5aca:	3301      	adds	r3, #1
    5acc:	401e      	ands	r6, r3
    5ace:	9b00      	ldr	r3, [sp, #0]
    5ad0:	589b      	ldr	r3, [r3, r2]
    5ad2:	429e      	cmp	r6, r3
    5ad4:	d010      	beq.n	5af8 <spin1_schedule_callback+0x50>
    5ad6:	230c      	movs	r3, #12
    5ad8:	4661      	mov	r1, ip
    5ada:	4359      	muls	r1, r3
    5adc:	000b      	movs	r3, r1
    5ade:	9900      	ldr	r1, [sp, #0]
    5ae0:	607e      	str	r6, [r7, #4]
    5ae2:	1859      	adds	r1, r3, r1
    5ae4:	1852      	adds	r2, r2, r1
    5ae6:	60d4      	str	r4, [r2, #12]
    5ae8:	9b01      	ldr	r3, [sp, #4]
    5aea:	2401      	movs	r4, #1
    5aec:	6095      	str	r5, [r2, #8]
    5aee:	6113      	str	r3, [r2, #16]
    5af0:	f7fa eb72 	blx	1d8 <cpu_int_restore>
    5af4:	0020      	movs	r0, r4
    5af6:	bdfe      	pop	{r1, r2, r3, r4, r5, r6, r7, pc}
    5af8:	4b05      	ldr	r3, [pc, #20]	; (5b10 <spin1_schedule_callback+0x68>)
    5afa:	2201      	movs	r2, #1
    5afc:	6859      	ldr	r1, [r3, #4]
    5afe:	2400      	movs	r4, #0
    5b00:	430a      	orrs	r2, r1
    5b02:	605a      	str	r2, [r3, #4]
    5b04:	6a1a      	ldr	r2, [r3, #32]
    5b06:	3201      	adds	r2, #1
    5b08:	621a      	str	r2, [r3, #32]
    5b0a:	e7f1      	b.n	5af0 <spin1_schedule_callback+0x48>
    5b0c:	00400460 	.word	0x00400460
    5b10:	00400a04 	.word	0x00400a04

00005b14 <spin1_trigger_user_event>:
    5b14:	4b08      	ldr	r3, [pc, #32]	; (5b38 <spin1_trigger_user_event+0x24>)
    5b16:	b510      	push	{r4, lr}
    5b18:	781a      	ldrb	r2, [r3, #0]
    5b1a:	0004      	movs	r4, r0
    5b1c:	2000      	movs	r0, #0
    5b1e:	4282      	cmp	r2, r0
    5b20:	d108      	bne.n	5b34 <spin1_trigger_user_event+0x20>
    5b22:	4a06      	ldr	r2, [pc, #24]	; (5b3c <spin1_trigger_user_event+0x28>)
    5b24:	3001      	adds	r0, #1
    5b26:	6014      	str	r4, [r2, #0]
    5b28:	4a05      	ldr	r2, [pc, #20]	; (5b40 <spin1_trigger_user_event+0x2c>)
    5b2a:	7018      	strb	r0, [r3, #0]
    5b2c:	4b05      	ldr	r3, [pc, #20]	; (5b44 <spin1_trigger_user_event+0x30>)
    5b2e:	6011      	str	r1, [r2, #0]
    5b30:	2202      	movs	r2, #2
    5b32:	601a      	str	r2, [r3, #0]
    5b34:	bd10      	pop	{r4, pc}
    5b36:	46c0      	nop			; (mov r8, r8)
    5b38:	00400788 	.word	0x00400788
    5b3c:	00400ba8 	.word	0x00400ba8
    5b40:	00400a50 	.word	0x00400a50
    5b44:	1f000018 	.word	0x1f000018

00005b48 <sark_pre_main>:
    5b48:	b510      	push	{r4, lr}
    5b4a:	f7fe fd93 	bl	4674 <sark_call_cpp_constructors>
    5b4e:	2006      	movs	r0, #6
    5b50:	f7fe fd1a 	bl	4588 <sark_cpu_state>
    5b54:	235b      	movs	r3, #91	; 0x5b
    5b56:	2201      	movs	r2, #1
    5b58:	701a      	strb	r2, [r3, #0]
    5b5a:	f7fe fd1d 	bl	4598 <sark_app_lead>
    5b5e:	4b04      	ldr	r3, [pc, #16]	; (5b70 <sark_pre_main+0x28>)
    5b60:	681b      	ldr	r3, [r3, #0]
    5b62:	1a18      	subs	r0, r3, r0
    5b64:	4243      	negs	r3, r0
    5b66:	4158      	adcs	r0, r3
    5b68:	4b02      	ldr	r3, [pc, #8]	; (5b74 <sark_pre_main+0x2c>)
    5b6a:	7018      	strb	r0, [r3, #0]
    5b6c:	bd10      	pop	{r4, pc}
    5b6e:	46c0      	nop			; (mov r8, r8)
    5b70:	0040092c 	.word	0x0040092c
    5b74:	00400a54 	.word	0x00400a54

00005b78 <sark_post_main>:
    5b78:	b510      	push	{r4, lr}
    5b7a:	200b      	movs	r0, #11
    5b7c:	f7fe fd04 	bl	4588 <sark_cpu_state>
    5b80:	bd10      	pop	{r4, pc}
	...

00005b84 <cc_rx_ready_isr>:
    5b84:	e24ee004 	sub	lr, lr, #4
    5b88:	e92d500f 	push	{r0, r1, r2, r3, ip, lr}
    5b8c:	e3a03202 	mov	r3, #536870912	; 0x20000000
    5b90:	e593200c 	ldr	r2, [r3, #12]
    5b94:	e59f0054 	ldr	r0, [pc, #84]	; 5bf0 <cc_rx_ready_isr+0x6c>
    5b98:	e2122802 	ands	r2, r2, #131072	; 0x20000
    5b9c:	0a00000a 	beq	5bcc <cc_rx_ready_isr+0x48>
    5ba0:	e5932010 	ldr	r2, [r3, #16]
    5ba4:	e5931014 	ldr	r1, [r3, #20]
    5ba8:	e5903028 	ldr	r3, [r0, #40]	; 0x28
    5bac:	e3530000 	cmp	r3, #0
    5bb0:	13a00005 	movne	r0, #5
    5bb4:	1a000009 	bne	5be0 <cc_rx_ready_isr+0x5c>
    5bb8:	e59f2034 	ldr	r2, [pc, #52]	; 5bf4 <cc_rx_ready_isr+0x70>
    5bbc:	e5923010 	ldr	r3, [r2, #16]
    5bc0:	e2833001 	add	r3, r3, #1
    5bc4:	e5823010 	str	r3, [r2, #16]
    5bc8:	ea000005 	b	5be4 <cc_rx_ready_isr+0x60>
    5bcc:	e5931014 	ldr	r1, [r3, #20]
    5bd0:	e5903000 	ldr	r3, [r0]
    5bd4:	e3530000 	cmp	r3, #0
    5bd8:	0afffff6 	beq	5bb8 <cc_rx_ready_isr+0x34>
    5bdc:	e1a00002 	mov	r0, r2
    5be0:	ebffe9d3 	bl	334 <schedule>
    5be4:	e3a0341f 	mov	r3, #520093696	; 0x1f000000
    5be8:	e5833030 	str	r3, [r3, #48]	; 0x30
    5bec:	e8fd900f 	ldm	sp!, {r0, r1, r2, r3, ip, pc}^
    5bf0:	00400bac 	.word	0x00400bac
    5bf4:	00400a04 	.word	0x00400a04

00005bf8 <cc_rx_ready_fiqsr>:
    5bf8:	e24ee004 	sub	lr, lr, #4
    5bfc:	e92d500f 	push	{r0, r1, r2, r3, ip, lr}
    5c00:	e3a03202 	mov	r3, #536870912	; 0x20000000
    5c04:	e593100c 	ldr	r1, [r3, #12]
    5c08:	e59f201c 	ldr	r2, [pc, #28]	; 5c2c <cc_rx_ready_fiqsr+0x34>
    5c0c:	e2111802 	ands	r1, r1, #131072	; 0x20000
    5c10:	15931010 	ldrne	r1, [r3, #16]
    5c14:	05930014 	ldreq	r0, [r3, #20]
    5c18:	15930014 	ldrne	r0, [r3, #20]
    5c1c:	05923000 	ldreq	r3, [r2]
    5c20:	15923028 	ldrne	r3, [r2, #40]	; 0x28
    5c24:	e12fff33 	blx	r3
    5c28:	e8fd900f 	ldm	sp!, {r0, r1, r2, r3, ip, pc}^
    5c2c:	00400bac 	.word	0x00400bac

00005c30 <cc_fr_ready_isr>:
    5c30:	e24ee004 	sub	lr, lr, #4
    5c34:	e92d500f 	push	{r0, r1, r2, r3, ip, lr}
    5c38:	e3a03202 	mov	r3, #536870912	; 0x20000000
    5c3c:	e593200c 	ldr	r2, [r3, #12]
    5c40:	e59f0054 	ldr	r0, [pc, #84]	; 5c9c <cc_fr_ready_isr+0x6c>
    5c44:	e2122802 	ands	r2, r2, #131072	; 0x20000
    5c48:	0a00000c 	beq	5c80 <cc_fr_ready_isr+0x50>
    5c4c:	e5932010 	ldr	r2, [r3, #16]
    5c50:	e5931014 	ldr	r1, [r3, #20]
    5c54:	e5903038 	ldr	r3, [r0, #56]	; 0x38
    5c58:	e3530000 	cmp	r3, #0
    5c5c:	13a00007 	movne	r0, #7
    5c60:	1a00000b 	bne	5c94 <cc_fr_ready_isr+0x64>
    5c64:	e59f2034 	ldr	r2, [pc, #52]	; 5ca0 <cc_fr_ready_isr+0x70>
    5c68:	e5923034 	ldr	r3, [r2, #52]	; 0x34
    5c6c:	e2833001 	add	r3, r3, #1
    5c70:	e5823034 	str	r3, [r2, #52]	; 0x34
    5c74:	e3a0341f 	mov	r3, #520093696	; 0x1f000000
    5c78:	e5833030 	str	r3, [r3, #48]	; 0x30
    5c7c:	e8fd900f 	ldm	sp!, {r0, r1, r2, r3, ip, pc}^
    5c80:	e5931014 	ldr	r1, [r3, #20]
    5c84:	e5903030 	ldr	r3, [r0, #48]	; 0x30
    5c88:	e3530000 	cmp	r3, #0
    5c8c:	0afffff4 	beq	5c64 <cc_fr_ready_isr+0x34>
    5c90:	e3a00006 	mov	r0, #6
    5c94:	ebffe9a6 	bl	334 <schedule>
    5c98:	eafffff5 	b	5c74 <cc_fr_ready_isr+0x44>
    5c9c:	00400bac 	.word	0x00400bac
    5ca0:	00400a04 	.word	0x00400a04

00005ca4 <cc_fr_ready_fiqsr>:
    5ca4:	e24ee004 	sub	lr, lr, #4
    5ca8:	e92d500f 	push	{r0, r1, r2, r3, ip, lr}
    5cac:	e3a03202 	mov	r3, #536870912	; 0x20000000
    5cb0:	e593100c 	ldr	r1, [r3, #12]
    5cb4:	e59f201c 	ldr	r2, [pc, #28]	; 5cd8 <cc_fr_ready_fiqsr+0x34>
    5cb8:	e2111802 	ands	r1, r1, #131072	; 0x20000
    5cbc:	15931010 	ldrne	r1, [r3, #16]
    5cc0:	05930014 	ldreq	r0, [r3, #20]
    5cc4:	15930014 	ldrne	r0, [r3, #20]
    5cc8:	05923030 	ldreq	r3, [r2, #48]	; 0x30
    5ccc:	15923038 	ldrne	r3, [r2, #56]	; 0x38
    5cd0:	e12fff33 	blx	r3
    5cd4:	e8fd900f 	ldm	sp!, {r0, r1, r2, r3, ip, pc}^
    5cd8:	00400bac 	.word	0x00400bac

00005cdc <cc_tx_empty_isr>:
    5cdc:	e24ee004 	sub	lr, lr, #4
    5ce0:	e92d501f 	push	{r0, r1, r2, r3, r4, ip, lr}
    5ce4:	e59f1078 	ldr	r1, [pc, #120]	; 5d64 <cc_tx_empty_isr+0x88>
    5ce8:	e3a03202 	mov	r3, #536870912	; 0x20000000
    5cec:	e3a02000 	mov	r2, #0
    5cf0:	e3a0c00c 	mov	ip, #12
    5cf4:	e5832000 	str	r2, [r3]
    5cf8:	e5912000 	ldr	r2, [r1]
    5cfc:	e5910004 	ldr	r0, [r1, #4]
    5d00:	e1520000 	cmp	r2, r0
    5d04:	0a000012 	beq	5d54 <cc_tx_empty_isr+0x78>
    5d08:	e5930000 	ldr	r0, [r3]
    5d0c:	e3100101 	tst	r0, #1073741824	; 0x40000000
    5d10:	0a000003 	beq	5d24 <cc_tx_empty_isr+0x48>
    5d14:	e3a02001 	mov	r2, #1
    5d18:	e3a0341f 	mov	r3, #520093696	; 0x1f000000
    5d1c:	e5832030 	str	r2, [r3, #48]	; 0x30
    5d20:	e8fd901f 	ldm	sp!, {r0, r1, r2, r3, r4, ip, pc}^
    5d24:	e020129c 	mla	r0, ip, r2, r1
    5d28:	e2822001 	add	r2, r2, #1
    5d2c:	e590e008 	ldr	lr, [r0, #8]
    5d30:	e590400c 	ldr	r4, [r0, #12]
    5d34:	e5900010 	ldr	r0, [r0, #16]
    5d38:	e202200f 	and	r2, r2, #15
    5d3c:	e3100802 	tst	r0, #131072	; 0x20000
    5d40:	e5812000 	str	r2, [r1]
    5d44:	e5830000 	str	r0, [r3]
    5d48:	15834004 	strne	r4, [r3, #4]
    5d4c:	e583e008 	str	lr, [r3, #8]
    5d50:	eaffffe8 	b	5cf8 <cc_tx_empty_isr+0x1c>
    5d54:	e3a02b02 	mov	r2, #2048	; 0x800
    5d58:	e3a0341f 	mov	r3, #520093696	; 0x1f000000
    5d5c:	e5832014 	str	r2, [r3, #20]
    5d60:	eaffffeb 	b	5d14 <cc_tx_empty_isr+0x38>
    5d64:	00400bec 	.word	0x00400bec

00005d68 <dma_done_isr>:
    5d68:	e24ee004 	sub	lr, lr, #4
    5d6c:	e92d503f 	push	{r0, r1, r2, r3, r4, r5, ip, lr}
    5d70:	e59f0078 	ldr	r0, [pc, #120]	; 5df0 <dma_done_isr+0x88>
    5d74:	e3a03008 	mov	r3, #8
    5d78:	e3a0c101 	mov	ip, #1073741824	; 0x40000000
    5d7c:	e58c3010 	str	r3, [ip, #16]
    5d80:	e5903000 	ldr	r3, [r0]
    5d84:	e3a0e014 	mov	lr, #20
    5d88:	e022039e 	mla	r2, lr, r3, r0
    5d8c:	e5904004 	ldr	r4, [r0, #4]
    5d90:	e2833001 	add	r3, r3, #1
    5d94:	e203300f 	and	r3, r3, #15
    5d98:	e1530004 	cmp	r3, r4
    5d9c:	e5921008 	ldr	r1, [r2, #8]
    5da0:	e5803000 	str	r3, [r0]
    5da4:	e592200c 	ldr	r2, [r2, #12]
    5da8:	0a000006 	beq	5dc8 <dma_done_isr+0x60>
    5dac:	e023039e 	mla	r3, lr, r3, r0
    5db0:	e593e014 	ldr	lr, [r3, #20]
    5db4:	e5930018 	ldr	r0, [r3, #24]
    5db8:	e5933010 	ldr	r3, [r3, #16]
    5dbc:	e58c3004 	str	r3, [ip, #4]
    5dc0:	e58ce008 	str	lr, [ip, #8]
    5dc4:	e58c000c 	str	r0, [ip, #12]
    5dc8:	e59f3024 	ldr	r3, [pc, #36]	; 5df4 <dma_done_isr+0x8c>
    5dcc:	e5933008 	ldr	r3, [r3, #8]
    5dd0:	e3530000 	cmp	r3, #0
    5dd4:	0a000001 	beq	5de0 <dma_done_isr+0x78>
    5dd8:	e3a00001 	mov	r0, #1
    5ddc:	ebffe954 	bl	334 <schedule>
    5de0:	e3a02001 	mov	r2, #1
    5de4:	e3a0341f 	mov	r3, #520093696	; 0x1f000000
    5de8:	e5832030 	str	r2, [r3, #48]	; 0x30
    5dec:	e8fd903f 	ldm	sp!, {r0, r1, r2, r3, r4, r5, ip, pc}^
    5df0:	00400a58 	.word	0x00400a58
    5df4:	00400bac 	.word	0x00400bac

00005df8 <dma_done_fiqsr>:
    5df8:	e24ee004 	sub	lr, lr, #4
    5dfc:	e92d503f 	push	{r0, r1, r2, r3, r4, r5, ip, lr}
    5e00:	e59f2060 	ldr	r2, [pc, #96]	; 5e68 <dma_done_fiqsr+0x70>
    5e04:	e3a03008 	mov	r3, #8
    5e08:	e3a0c101 	mov	ip, #1073741824	; 0x40000000
    5e0c:	e58c3010 	str	r3, [ip, #16]
    5e10:	e5923000 	ldr	r3, [r2]
    5e14:	e3a0e014 	mov	lr, #20
    5e18:	e021239e 	mla	r1, lr, r3, r2
    5e1c:	e5924004 	ldr	r4, [r2, #4]
    5e20:	e2833001 	add	r3, r3, #1
    5e24:	e203300f 	and	r3, r3, #15
    5e28:	e1530004 	cmp	r3, r4
    5e2c:	e5910008 	ldr	r0, [r1, #8]
    5e30:	e5823000 	str	r3, [r2]
    5e34:	e591100c 	ldr	r1, [r1, #12]
    5e38:	0a000006 	beq	5e58 <dma_done_fiqsr+0x60>
    5e3c:	e023239e 	mla	r3, lr, r3, r2
    5e40:	e593e014 	ldr	lr, [r3, #20]
    5e44:	e5932018 	ldr	r2, [r3, #24]
    5e48:	e5933010 	ldr	r3, [r3, #16]
    5e4c:	e58c3004 	str	r3, [ip, #4]
    5e50:	e58ce008 	str	lr, [ip, #8]
    5e54:	e58c200c 	str	r2, [ip, #12]
    5e58:	e59f300c 	ldr	r3, [pc, #12]	; 5e6c <dma_done_fiqsr+0x74>
    5e5c:	e5933008 	ldr	r3, [r3, #8]
    5e60:	e12fff33 	blx	r3
    5e64:	e8fd903f 	ldm	sp!, {r0, r1, r2, r3, r4, r5, ip, pc}^
    5e68:	00400a58 	.word	0x00400a58
    5e6c:	00400bac 	.word	0x00400bac

00005e70 <timer1_isr>:
    5e70:	e24ee004 	sub	lr, lr, #4
    5e74:	e92d500f 	push	{r0, r1, r2, r3, ip, lr}
    5e78:	e3a02001 	mov	r2, #1
    5e7c:	e3a03421 	mov	r3, #553648128	; 0x21000000
    5e80:	e583200c 	str	r2, [r3, #12]
    5e84:	e59f3060 	ldr	r3, [pc, #96]	; 5eec <timer1_isr+0x7c>
    5e88:	e5931000 	ldr	r1, [r3]
    5e8c:	e0811002 	add	r1, r1, r2
    5e90:	e5831000 	str	r1, [r3]
    5e94:	e59f3054 	ldr	r3, [pc, #84]	; 5ef0 <timer1_isr+0x80>
    5e98:	e5933010 	ldr	r3, [r3, #16]
    5e9c:	e3530000 	cmp	r3, #0
    5ea0:	0a00000d 	beq	5edc <timer1_isr+0x6c>
    5ea4:	e59f3048 	ldr	r3, [pc, #72]	; 5ef4 <timer1_isr+0x84>
    5ea8:	e5932038 	ldr	r2, [r3, #56]	; 0x38
    5eac:	e3520000 	cmp	r2, #0
    5eb0:	0a000006 	beq	5ed0 <timer1_isr+0x60>
    5eb4:	e5932044 	ldr	r2, [r3, #68]	; 0x44
    5eb8:	e5930040 	ldr	r0, [r3, #64]	; 0x40
    5ebc:	e2822001 	add	r2, r2, #1
    5ec0:	e5832044 	str	r2, [r3, #68]	; 0x44
    5ec4:	e593203c 	ldr	r2, [r3, #60]	; 0x3c
    5ec8:	e1520000 	cmp	r2, r0
    5ecc:	85832040 	strhi	r2, [r3, #64]	; 0x40
    5ed0:	e3a02000 	mov	r2, #0
    5ed4:	e3a00002 	mov	r0, #2
    5ed8:	ebffe915 	bl	334 <schedule>
    5edc:	e3a02001 	mov	r2, #1
    5ee0:	e3a0341f 	mov	r3, #520093696	; 0x1f000000
    5ee4:	e5832030 	str	r2, [r3, #48]	; 0x30
    5ee8:	e8fd900f 	ldm	sp!, {r0, r1, r2, r3, ip, pc}^
    5eec:	00400ba4 	.word	0x00400ba4
    5ef0:	00400bac 	.word	0x00400bac
    5ef4:	00400a04 	.word	0x00400a04

00005ef8 <timer1_fiqsr>:
    5ef8:	e24ee004 	sub	lr, lr, #4
    5efc:	e92d500f 	push	{r0, r1, r2, r3, ip, lr}
    5f00:	e3a02001 	mov	r2, #1
    5f04:	e3a03421 	mov	r3, #553648128	; 0x21000000
    5f08:	e583200c 	str	r2, [r3, #12]
    5f0c:	e59f301c 	ldr	r3, [pc, #28]	; 5f30 <timer1_fiqsr+0x38>
    5f10:	e3a01000 	mov	r1, #0
    5f14:	e5930000 	ldr	r0, [r3]
    5f18:	e0800002 	add	r0, r0, r2
    5f1c:	e5830000 	str	r0, [r3]
    5f20:	e59f300c 	ldr	r3, [pc, #12]	; 5f34 <timer1_fiqsr+0x3c>
    5f24:	e5933010 	ldr	r3, [r3, #16]
    5f28:	e12fff33 	blx	r3
    5f2c:	e8fd900f 	ldm	sp!, {r0, r1, r2, r3, ip, pc}^
    5f30:	00400ba4 	.word	0x00400ba4
    5f34:	00400bac 	.word	0x00400bac

00005f38 <soft_int_isr>:
    5f38:	e24ee004 	sub	lr, lr, #4
    5f3c:	e92d500f 	push	{r0, r1, r2, r3, ip, lr}
    5f40:	e3a0341f 	mov	r3, #520093696	; 0x1f000000
    5f44:	e3a02002 	mov	r2, #2
    5f48:	e583201c 	str	r2, [r3, #28]
    5f4c:	e59f303c 	ldr	r3, [pc, #60]	; 5f90 <soft_int_isr+0x58>
    5f50:	e5933020 	ldr	r3, [r3, #32]
    5f54:	e3530000 	cmp	r3, #0
    5f58:	0a000005 	beq	5f74 <soft_int_isr+0x3c>
    5f5c:	e59f3030 	ldr	r3, [pc, #48]	; 5f94 <soft_int_isr+0x5c>
    5f60:	e3a00004 	mov	r0, #4
    5f64:	e5932000 	ldr	r2, [r3]
    5f68:	e59f3028 	ldr	r3, [pc, #40]	; 5f98 <soft_int_isr+0x60>
    5f6c:	e5931000 	ldr	r1, [r3]
    5f70:	ebffe8ef 	bl	334 <schedule>
    5f74:	e59f3020 	ldr	r3, [pc, #32]	; 5f9c <soft_int_isr+0x64>
    5f78:	e3a02000 	mov	r2, #0
    5f7c:	e5c32000 	strb	r2, [r3]
    5f80:	e3a02001 	mov	r2, #1
    5f84:	e3a0341f 	mov	r3, #520093696	; 0x1f000000
    5f88:	e5832030 	str	r2, [r3, #48]	; 0x30
    5f8c:	e8fd900f 	ldm	sp!, {r0, r1, r2, r3, ip, pc}^
    5f90:	00400bac 	.word	0x00400bac
    5f94:	00400a50 	.word	0x00400a50
    5f98:	00400ba8 	.word	0x00400ba8
    5f9c:	00400788 	.word	0x00400788

00005fa0 <soft_int_fiqsr>:
    5fa0:	e24ee004 	sub	lr, lr, #4
    5fa4:	e92d500f 	push	{r0, r1, r2, r3, ip, lr}
    5fa8:	e3a02002 	mov	r2, #2
    5fac:	e3a0341f 	mov	r3, #520093696	; 0x1f000000
    5fb0:	e583201c 	str	r2, [r3, #28]
    5fb4:	e59f2024 	ldr	r2, [pc, #36]	; 5fe0 <soft_int_fiqsr+0x40>
    5fb8:	e59f3024 	ldr	r3, [pc, #36]	; 5fe4 <soft_int_fiqsr+0x44>
    5fbc:	e5921000 	ldr	r1, [r2]
    5fc0:	e59f2020 	ldr	r2, [pc, #32]	; 5fe8 <soft_int_fiqsr+0x48>
    5fc4:	e5933020 	ldr	r3, [r3, #32]
    5fc8:	e5920000 	ldr	r0, [r2]
    5fcc:	e12fff33 	blx	r3
    5fd0:	e59f3014 	ldr	r3, [pc, #20]	; 5fec <soft_int_fiqsr+0x4c>
    5fd4:	e3a02000 	mov	r2, #0
    5fd8:	e5c32000 	strb	r2, [r3]
    5fdc:	e8fd900f 	ldm	sp!, {r0, r1, r2, r3, ip, pc}^
    5fe0:	00400a50 	.word	0x00400a50
    5fe4:	00400bac 	.word	0x00400bac
    5fe8:	00400ba8 	.word	0x00400ba8
    5fec:	00400788 	.word	0x00400788

00005ff0 <__aeabi_drsub>:
    5ff0:	e2211102 	eor	r1, r1, #-2147483648	; 0x80000000
    5ff4:	ea000000 	b	5ffc <__adddf3>

00005ff8 <__aeabi_dsub>:
    5ff8:	e2233102 	eor	r3, r3, #-2147483648	; 0x80000000

00005ffc <__adddf3>:
    5ffc:	e92d4030 	push	{r4, r5, lr}
    6000:	e1a04081 	lsl	r4, r1, #1
    6004:	e1a05083 	lsl	r5, r3, #1
    6008:	e1340005 	teq	r4, r5
    600c:	01300002 	teqeq	r0, r2
    6010:	1194c000 	orrsne	ip, r4, r0
    6014:	1195c002 	orrsne	ip, r5, r2
    6018:	11f0cac4 	mvnsne	ip, r4, asr #21
    601c:	11f0cac5 	mvnsne	ip, r5, asr #21
    6020:	0a00008c 	beq	6258 <__adddf3+0x25c>
    6024:	e1a04aa4 	lsr	r4, r4, #21
    6028:	e0745aa5 	rsbs	r5, r4, r5, lsr #21
    602c:	b2655000 	rsblt	r5, r5, #0
    6030:	da000006 	ble	6050 <__adddf3+0x54>
    6034:	e0844005 	add	r4, r4, r5
    6038:	e0202002 	eor	r2, r0, r2
    603c:	e0213003 	eor	r3, r1, r3
    6040:	e0220000 	eor	r0, r2, r0
    6044:	e0231001 	eor	r1, r3, r1
    6048:	e0202002 	eor	r2, r0, r2
    604c:	e0213003 	eor	r3, r1, r3
    6050:	e3550036 	cmp	r5, #54	; 0x36
    6054:	88bd4030 	pophi	{r4, r5, lr}
    6058:	812fff1e 	bxhi	lr
    605c:	e3110102 	tst	r1, #-2147483648	; 0x80000000
    6060:	e1a01601 	lsl	r1, r1, #12
    6064:	e3a0c601 	mov	ip, #1048576	; 0x100000
    6068:	e18c1621 	orr	r1, ip, r1, lsr #12
    606c:	0a000001 	beq	6078 <__adddf3+0x7c>
    6070:	e2700000 	rsbs	r0, r0, #0
    6074:	e2e11000 	rsc	r1, r1, #0
    6078:	e3130102 	tst	r3, #-2147483648	; 0x80000000
    607c:	e1a03603 	lsl	r3, r3, #12
    6080:	e18c3623 	orr	r3, ip, r3, lsr #12
    6084:	0a000001 	beq	6090 <__adddf3+0x94>
    6088:	e2722000 	rsbs	r2, r2, #0
    608c:	e2e33000 	rsc	r3, r3, #0
    6090:	e1340005 	teq	r4, r5
    6094:	0a000069 	beq	6240 <__adddf3+0x244>
    6098:	e2444001 	sub	r4, r4, #1
    609c:	e275e020 	rsbs	lr, r5, #32
    60a0:	ba000005 	blt	60bc <__adddf3+0xc0>
    60a4:	e1a0ce12 	lsl	ip, r2, lr
    60a8:	e0900532 	adds	r0, r0, r2, lsr r5
    60ac:	e2a11000 	adc	r1, r1, #0
    60b0:	e0900e13 	adds	r0, r0, r3, lsl lr
    60b4:	e0b11553 	adcs	r1, r1, r3, asr r5
    60b8:	ea000006 	b	60d8 <__adddf3+0xdc>
    60bc:	e2455020 	sub	r5, r5, #32
    60c0:	e28ee020 	add	lr, lr, #32
    60c4:	e3520001 	cmp	r2, #1
    60c8:	e1a0ce13 	lsl	ip, r3, lr
    60cc:	238cc002 	orrcs	ip, ip, #2
    60d0:	e0900553 	adds	r0, r0, r3, asr r5
    60d4:	e0b11fc3 	adcs	r1, r1, r3, asr #31
    60d8:	e2015102 	and	r5, r1, #-2147483648	; 0x80000000
    60dc:	5a000002 	bpl	60ec <__adddf3+0xf0>
    60e0:	e27cc000 	rsbs	ip, ip, #0
    60e4:	e2f00000 	rscs	r0, r0, #0
    60e8:	e2e11000 	rsc	r1, r1, #0
    60ec:	e3510601 	cmp	r1, #1048576	; 0x100000
    60f0:	3a00000f 	bcc	6134 <__adddf3+0x138>
    60f4:	e3510602 	cmp	r1, #2097152	; 0x200000
    60f8:	3a000006 	bcc	6118 <__adddf3+0x11c>
    60fc:	e1b010a1 	lsrs	r1, r1, #1
    6100:	e1b00060 	rrxs	r0, r0
    6104:	e1a0c06c 	rrx	ip, ip
    6108:	e2844001 	add	r4, r4, #1
    610c:	e1a02a84 	lsl	r2, r4, #21
    6110:	e3720501 	cmn	r2, #4194304	; 0x400000
    6114:	2a00006b 	bcs	62c8 <__adddf3+0x2cc>
    6118:	e35c0102 	cmp	ip, #-2147483648	; 0x80000000
    611c:	01b0c0a0 	lsrseq	ip, r0, #1
    6120:	e2b00000 	adcs	r0, r0, #0
    6124:	e0a11a04 	adc	r1, r1, r4, lsl #20
    6128:	e1811005 	orr	r1, r1, r5
    612c:	e8bd4030 	pop	{r4, r5, lr}
    6130:	e12fff1e 	bx	lr
    6134:	e1b0c08c 	lsls	ip, ip, #1
    6138:	e0b00000 	adcs	r0, r0, r0
    613c:	e0a11001 	adc	r1, r1, r1
    6140:	e3110601 	tst	r1, #1048576	; 0x100000
    6144:	e2444001 	sub	r4, r4, #1
    6148:	1afffff2 	bne	6118 <__adddf3+0x11c>
    614c:	e3310000 	teq	r1, #0
    6150:	13a03014 	movne	r3, #20
    6154:	03a03034 	moveq	r3, #52	; 0x34
    6158:	01a01000 	moveq	r1, r0
    615c:	03a00000 	moveq	r0, #0
    6160:	e1a02001 	mov	r2, r1
    6164:	e3520801 	cmp	r2, #65536	; 0x10000
    6168:	21a02822 	lsrcs	r2, r2, #16
    616c:	22433010 	subcs	r3, r3, #16
    6170:	e3520c01 	cmp	r2, #256	; 0x100
    6174:	21a02422 	lsrcs	r2, r2, #8
    6178:	22433008 	subcs	r3, r3, #8
    617c:	e3520010 	cmp	r2, #16
    6180:	21a02222 	lsrcs	r2, r2, #4
    6184:	22433004 	subcs	r3, r3, #4
    6188:	e3520004 	cmp	r2, #4
    618c:	22433002 	subcs	r3, r3, #2
    6190:	304330a2 	subcc	r3, r3, r2, lsr #1
    6194:	e04331a2 	sub	r3, r3, r2, lsr #3
    6198:	e2532020 	subs	r2, r3, #32
    619c:	aa000007 	bge	61c0 <__adddf3+0x1c4>
    61a0:	e292200c 	adds	r2, r2, #12
    61a4:	da000004 	ble	61bc <__adddf3+0x1c0>
    61a8:	e282c014 	add	ip, r2, #20
    61ac:	e262200c 	rsb	r2, r2, #12
    61b0:	e1a00c11 	lsl	r0, r1, ip
    61b4:	e1a01231 	lsr	r1, r1, r2
    61b8:	ea000004 	b	61d0 <__adddf3+0x1d4>
    61bc:	e2822014 	add	r2, r2, #20
    61c0:	d262c020 	rsble	ip, r2, #32
    61c4:	e1a01211 	lsl	r1, r1, r2
    61c8:	d1811c30 	orrle	r1, r1, r0, lsr ip
    61cc:	d1a00210 	lslle	r0, r0, r2
    61d0:	e0544003 	subs	r4, r4, r3
    61d4:	a0811a04 	addge	r1, r1, r4, lsl #20
    61d8:	a1811005 	orrge	r1, r1, r5
    61dc:	a8bd4030 	popge	{r4, r5, lr}
    61e0:	a12fff1e 	bxge	lr
    61e4:	e1e04004 	mvn	r4, r4
    61e8:	e254401f 	subs	r4, r4, #31
    61ec:	aa00000f 	bge	6230 <__adddf3+0x234>
    61f0:	e294400c 	adds	r4, r4, #12
    61f4:	ca000006 	bgt	6214 <__adddf3+0x218>
    61f8:	e2844014 	add	r4, r4, #20
    61fc:	e2642020 	rsb	r2, r4, #32
    6200:	e1a00430 	lsr	r0, r0, r4
    6204:	e1800211 	orr	r0, r0, r1, lsl r2
    6208:	e1851431 	orr	r1, r5, r1, lsr r4
    620c:	e8bd4030 	pop	{r4, r5, lr}
    6210:	e12fff1e 	bx	lr
    6214:	e264400c 	rsb	r4, r4, #12
    6218:	e2642020 	rsb	r2, r4, #32
    621c:	e1a00230 	lsr	r0, r0, r2
    6220:	e1800411 	orr	r0, r0, r1, lsl r4
    6224:	e1a01005 	mov	r1, r5
    6228:	e8bd4030 	pop	{r4, r5, lr}
    622c:	e12fff1e 	bx	lr
    6230:	e1a00431 	lsr	r0, r1, r4
    6234:	e1a01005 	mov	r1, r5
    6238:	e8bd4030 	pop	{r4, r5, lr}
    623c:	e12fff1e 	bx	lr
    6240:	e3340000 	teq	r4, #0
    6244:	e2233601 	eor	r3, r3, #1048576	; 0x100000
    6248:	02211601 	eoreq	r1, r1, #1048576	; 0x100000
    624c:	02844001 	addeq	r4, r4, #1
    6250:	12455001 	subne	r5, r5, #1
    6254:	eaffff8f 	b	6098 <__adddf3+0x9c>
    6258:	e1f0cac4 	mvns	ip, r4, asr #21
    625c:	11f0cac5 	mvnsne	ip, r5, asr #21
    6260:	0a00001d 	beq	62dc <__adddf3+0x2e0>
    6264:	e1340005 	teq	r4, r5
    6268:	01300002 	teqeq	r0, r2
    626c:	0a000004 	beq	6284 <__adddf3+0x288>
    6270:	e194c000 	orrs	ip, r4, r0
    6274:	01a01003 	moveq	r1, r3
    6278:	01a00002 	moveq	r0, r2
    627c:	e8bd4030 	pop	{r4, r5, lr}
    6280:	e12fff1e 	bx	lr
    6284:	e1310003 	teq	r1, r3
    6288:	13a01000 	movne	r1, #0
    628c:	13a00000 	movne	r0, #0
    6290:	18bd4030 	popne	{r4, r5, lr}
    6294:	112fff1e 	bxne	lr
    6298:	e1b0caa4 	lsrs	ip, r4, #21
    629c:	1a000004 	bne	62b4 <__adddf3+0x2b8>
    62a0:	e1b00080 	lsls	r0, r0, #1
    62a4:	e0b11001 	adcs	r1, r1, r1
    62a8:	23811102 	orrcs	r1, r1, #-2147483648	; 0x80000000
    62ac:	e8bd4030 	pop	{r4, r5, lr}
    62b0:	e12fff1e 	bx	lr
    62b4:	e2944501 	adds	r4, r4, #4194304	; 0x400000
    62b8:	32811601 	addcc	r1, r1, #1048576	; 0x100000
    62bc:	38bd4030 	popcc	{r4, r5, lr}
    62c0:	312fff1e 	bxcc	lr
    62c4:	e2015102 	and	r5, r1, #-2147483648	; 0x80000000
    62c8:	e385147f 	orr	r1, r5, #2130706432	; 0x7f000000
    62cc:	e381160f 	orr	r1, r1, #15728640	; 0xf00000
    62d0:	e3a00000 	mov	r0, #0
    62d4:	e8bd4030 	pop	{r4, r5, lr}
    62d8:	e12fff1e 	bx	lr
    62dc:	e1f0cac4 	mvns	ip, r4, asr #21
    62e0:	11a01003 	movne	r1, r3
    62e4:	11a00002 	movne	r0, r2
    62e8:	01f0cac5 	mvnseq	ip, r5, asr #21
    62ec:	11a03001 	movne	r3, r1
    62f0:	11a02000 	movne	r2, r0
    62f4:	e1904601 	orrs	r4, r0, r1, lsl #12
    62f8:	01925603 	orrseq	r5, r2, r3, lsl #12
    62fc:	01310003 	teqeq	r1, r3
    6300:	13811702 	orrne	r1, r1, #524288	; 0x80000
    6304:	e8bd4030 	pop	{r4, r5, lr}
    6308:	e12fff1e 	bx	lr

0000630c <__aeabi_ui2d>:
    630c:	e3300000 	teq	r0, #0
    6310:	03a01000 	moveq	r1, #0
    6314:	012fff1e 	bxeq	lr
    6318:	e92d4030 	push	{r4, r5, lr}
    631c:	e3a04b01 	mov	r4, #1024	; 0x400
    6320:	e2844032 	add	r4, r4, #50	; 0x32
    6324:	e3a05000 	mov	r5, #0
    6328:	e3a01000 	mov	r1, #0
    632c:	eaffff86 	b	614c <__adddf3+0x150>

00006330 <__aeabi_i2d>:
    6330:	e3300000 	teq	r0, #0
    6334:	03a01000 	moveq	r1, #0
    6338:	012fff1e 	bxeq	lr
    633c:	e92d4030 	push	{r4, r5, lr}
    6340:	e3a04b01 	mov	r4, #1024	; 0x400
    6344:	e2844032 	add	r4, r4, #50	; 0x32
    6348:	e2105102 	ands	r5, r0, #-2147483648	; 0x80000000
    634c:	42600000 	rsbmi	r0, r0, #0
    6350:	e3a01000 	mov	r1, #0
    6354:	eaffff7c 	b	614c <__adddf3+0x150>

00006358 <__aeabi_f2d>:
    6358:	e1b02080 	lsls	r2, r0, #1
    635c:	e1a011c2 	asr	r1, r2, #3
    6360:	e1a01061 	rrx	r1, r1
    6364:	e1a00e02 	lsl	r0, r2, #28
    6368:	121234ff 	andsne	r3, r2, #-16777216	; 0xff000000
    636c:	133304ff 	teqne	r3, #-16777216	; 0xff000000
    6370:	1221130e 	eorne	r1, r1, #939524096	; 0x38000000
    6374:	112fff1e 	bxne	lr
    6378:	e3320000 	teq	r2, #0
    637c:	133304ff 	teqne	r3, #-16777216	; 0xff000000
    6380:	012fff1e 	bxeq	lr
    6384:	e92d4030 	push	{r4, r5, lr}
    6388:	e3a04d0e 	mov	r4, #896	; 0x380
    638c:	e2015102 	and	r5, r1, #-2147483648	; 0x80000000
    6390:	e3c11102 	bic	r1, r1, #-2147483648	; 0x80000000
    6394:	eaffff6c 	b	614c <__adddf3+0x150>

00006398 <__aeabi_ul2d>:
    6398:	e1902001 	orrs	r2, r0, r1
    639c:	012fff1e 	bxeq	lr
    63a0:	e92d4030 	push	{r4, r5, lr}
    63a4:	e3a05000 	mov	r5, #0
    63a8:	ea000006 	b	63c8 <__aeabi_l2d+0x1c>

000063ac <__aeabi_l2d>:
    63ac:	e1902001 	orrs	r2, r0, r1
    63b0:	012fff1e 	bxeq	lr
    63b4:	e92d4030 	push	{r4, r5, lr}
    63b8:	e2115102 	ands	r5, r1, #-2147483648	; 0x80000000
    63bc:	5a000001 	bpl	63c8 <__aeabi_l2d+0x1c>
    63c0:	e2700000 	rsbs	r0, r0, #0
    63c4:	e2e11000 	rsc	r1, r1, #0
    63c8:	e3a04b01 	mov	r4, #1024	; 0x400
    63cc:	e2844032 	add	r4, r4, #50	; 0x32
    63d0:	e1b0cb21 	lsrs	ip, r1, #22
    63d4:	0affff44 	beq	60ec <__adddf3+0xf0>
    63d8:	e3a02003 	mov	r2, #3
    63dc:	e1b0c1ac 	lsrs	ip, ip, #3
    63e0:	12822003 	addne	r2, r2, #3
    63e4:	e1b0c1ac 	lsrs	ip, ip, #3
    63e8:	12822003 	addne	r2, r2, #3
    63ec:	e08221ac 	add	r2, r2, ip, lsr #3
    63f0:	e2623020 	rsb	r3, r2, #32
    63f4:	e1a0c310 	lsl	ip, r0, r3
    63f8:	e1a00230 	lsr	r0, r0, r2
    63fc:	e1800311 	orr	r0, r0, r1, lsl r3
    6400:	e1a01231 	lsr	r1, r1, r2
    6404:	e0844002 	add	r4, r4, r2
    6408:	eaffff37 	b	60ec <__adddf3+0xf0>

0000640c <__aeabi_dmul>:
    640c:	e92d4070 	push	{r4, r5, r6, lr}
    6410:	e3a0c0ff 	mov	ip, #255	; 0xff
    6414:	e38ccc07 	orr	ip, ip, #1792	; 0x700
    6418:	e01c4a21 	ands	r4, ip, r1, lsr #20
    641c:	101c5a23 	andsne	r5, ip, r3, lsr #20
    6420:	1134000c 	teqne	r4, ip
    6424:	1135000c 	teqne	r5, ip
    6428:	0b000075 	bleq	6604 <__aeabi_dmul+0x1f8>
    642c:	e0844005 	add	r4, r4, r5
    6430:	e0216003 	eor	r6, r1, r3
    6434:	e1c11a8c 	bic	r1, r1, ip, lsl #21
    6438:	e1c33a8c 	bic	r3, r3, ip, lsl #21
    643c:	e1905601 	orrs	r5, r0, r1, lsl #12
    6440:	11925603 	orrsne	r5, r2, r3, lsl #12
    6444:	e3811601 	orr	r1, r1, #1048576	; 0x100000
    6448:	e3833601 	orr	r3, r3, #1048576	; 0x100000
    644c:	0a00001d 	beq	64c8 <__aeabi_dmul+0xbc>
    6450:	e08ec290 	umull	ip, lr, r0, r2
    6454:	e3a05000 	mov	r5, #0
    6458:	e0a5e291 	umlal	lr, r5, r1, r2
    645c:	e2062102 	and	r2, r6, #-2147483648	; 0x80000000
    6460:	e0a5e390 	umlal	lr, r5, r0, r3
    6464:	e3a06000 	mov	r6, #0
    6468:	e0a65391 	umlal	r5, r6, r1, r3
    646c:	e33c0000 	teq	ip, #0
    6470:	138ee001 	orrne	lr, lr, #1
    6474:	e24440ff 	sub	r4, r4, #255	; 0xff
    6478:	e3560c02 	cmp	r6, #512	; 0x200
    647c:	e2c44c03 	sbc	r4, r4, #768	; 0x300
    6480:	2a000002 	bcs	6490 <__aeabi_dmul+0x84>
    6484:	e1b0e08e 	lsls	lr, lr, #1
    6488:	e0b55005 	adcs	r5, r5, r5
    648c:	e0a66006 	adc	r6, r6, r6
    6490:	e1821586 	orr	r1, r2, r6, lsl #11
    6494:	e1811aa5 	orr	r1, r1, r5, lsr #21
    6498:	e1a00585 	lsl	r0, r5, #11
    649c:	e1800aae 	orr	r0, r0, lr, lsr #21
    64a0:	e1a0e58e 	lsl	lr, lr, #11
    64a4:	e254c0fd 	subs	ip, r4, #253	; 0xfd
    64a8:	835c0c07 	cmphi	ip, #1792	; 0x700
    64ac:	8a000011 	bhi	64f8 <__aeabi_dmul+0xec>
    64b0:	e35e0102 	cmp	lr, #-2147483648	; 0x80000000
    64b4:	01b0e0a0 	lsrseq	lr, r0, #1
    64b8:	e2b00000 	adcs	r0, r0, #0
    64bc:	e0a11a04 	adc	r1, r1, r4, lsl #20
    64c0:	e8bd4070 	pop	{r4, r5, r6, lr}
    64c4:	e12fff1e 	bx	lr
    64c8:	e2066102 	and	r6, r6, #-2147483648	; 0x80000000
    64cc:	e1861001 	orr	r1, r6, r1
    64d0:	e1800002 	orr	r0, r0, r2
    64d4:	e0211003 	eor	r1, r1, r3
    64d8:	e05440ac 	subs	r4, r4, ip, lsr #1
    64dc:	c074500c 	rsbsgt	r5, r4, ip
    64e0:	c1811a04 	orrgt	r1, r1, r4, lsl #20
    64e4:	c8bd4070 	popgt	{r4, r5, r6, lr}
    64e8:	c12fff1e 	bxgt	lr
    64ec:	e3811601 	orr	r1, r1, #1048576	; 0x100000
    64f0:	e3a0e000 	mov	lr, #0
    64f4:	e2544001 	subs	r4, r4, #1
    64f8:	ca00005d 	bgt	6674 <__aeabi_dmul+0x268>
    64fc:	e3740036 	cmn	r4, #54	; 0x36
    6500:	d3a00000 	movle	r0, #0
    6504:	d2011102 	andle	r1, r1, #-2147483648	; 0x80000000
    6508:	d8bd4070 	pople	{r4, r5, r6, lr}
    650c:	d12fff1e 	bxle	lr
    6510:	e2644000 	rsb	r4, r4, #0
    6514:	e2544020 	subs	r4, r4, #32
    6518:	aa00001a 	bge	6588 <__aeabi_dmul+0x17c>
    651c:	e294400c 	adds	r4, r4, #12
    6520:	ca00000c 	bgt	6558 <__aeabi_dmul+0x14c>
    6524:	e2844014 	add	r4, r4, #20
    6528:	e2645020 	rsb	r5, r4, #32
    652c:	e1a03510 	lsl	r3, r0, r5
    6530:	e1a00430 	lsr	r0, r0, r4
    6534:	e1800511 	orr	r0, r0, r1, lsl r5
    6538:	e2012102 	and	r2, r1, #-2147483648	; 0x80000000
    653c:	e3c11102 	bic	r1, r1, #-2147483648	; 0x80000000
    6540:	e0900fa3 	adds	r0, r0, r3, lsr #31
    6544:	e0a21431 	adc	r1, r2, r1, lsr r4
    6548:	e19ee083 	orrs	lr, lr, r3, lsl #1
    654c:	01c00fa3 	biceq	r0, r0, r3, lsr #31
    6550:	e8bd4070 	pop	{r4, r5, r6, lr}
    6554:	e12fff1e 	bx	lr
    6558:	e264400c 	rsb	r4, r4, #12
    655c:	e2645020 	rsb	r5, r4, #32
    6560:	e1a03410 	lsl	r3, r0, r4
    6564:	e1a00530 	lsr	r0, r0, r5
    6568:	e1800411 	orr	r0, r0, r1, lsl r4
    656c:	e2011102 	and	r1, r1, #-2147483648	; 0x80000000
    6570:	e0900fa3 	adds	r0, r0, r3, lsr #31
    6574:	e2a11000 	adc	r1, r1, #0
    6578:	e19ee083 	orrs	lr, lr, r3, lsl #1
    657c:	01c00fa3 	biceq	r0, r0, r3, lsr #31
    6580:	e8bd4070 	pop	{r4, r5, r6, lr}
    6584:	e12fff1e 	bx	lr
    6588:	e2645020 	rsb	r5, r4, #32
    658c:	e18ee510 	orr	lr, lr, r0, lsl r5
    6590:	e1a03430 	lsr	r3, r0, r4
    6594:	e1833511 	orr	r3, r3, r1, lsl r5
    6598:	e1a00431 	lsr	r0, r1, r4
    659c:	e2011102 	and	r1, r1, #-2147483648	; 0x80000000
    65a0:	e1c00431 	bic	r0, r0, r1, lsr r4
    65a4:	e0800fa3 	add	r0, r0, r3, lsr #31
    65a8:	e19ee083 	orrs	lr, lr, r3, lsl #1
    65ac:	01c00fa3 	biceq	r0, r0, r3, lsr #31
    65b0:	e8bd4070 	pop	{r4, r5, r6, lr}
    65b4:	e12fff1e 	bx	lr
    65b8:	e3340000 	teq	r4, #0
    65bc:	1a000008 	bne	65e4 <__aeabi_dmul+0x1d8>
    65c0:	e2016102 	and	r6, r1, #-2147483648	; 0x80000000
    65c4:	e1b00080 	lsls	r0, r0, #1
    65c8:	e0a11001 	adc	r1, r1, r1
    65cc:	e3110601 	tst	r1, #1048576	; 0x100000
    65d0:	02444001 	subeq	r4, r4, #1
    65d4:	0afffffa 	beq	65c4 <__aeabi_dmul+0x1b8>
    65d8:	e1811006 	orr	r1, r1, r6
    65dc:	e3350000 	teq	r5, #0
    65e0:	112fff1e 	bxne	lr
    65e4:	e2036102 	and	r6, r3, #-2147483648	; 0x80000000
    65e8:	e1b02082 	lsls	r2, r2, #1
    65ec:	e0a33003 	adc	r3, r3, r3
    65f0:	e3130601 	tst	r3, #1048576	; 0x100000
    65f4:	02455001 	subeq	r5, r5, #1
    65f8:	0afffffa 	beq	65e8 <__aeabi_dmul+0x1dc>
    65fc:	e1833006 	orr	r3, r3, r6
    6600:	e12fff1e 	bx	lr
    6604:	e134000c 	teq	r4, ip
    6608:	e00c5a23 	and	r5, ip, r3, lsr #20
    660c:	1135000c 	teqne	r5, ip
    6610:	0a000007 	beq	6634 <__aeabi_dmul+0x228>
    6614:	e1906081 	orrs	r6, r0, r1, lsl #1
    6618:	11926083 	orrsne	r6, r2, r3, lsl #1
    661c:	1affffe5 	bne	65b8 <__aeabi_dmul+0x1ac>
    6620:	e0211003 	eor	r1, r1, r3
    6624:	e2011102 	and	r1, r1, #-2147483648	; 0x80000000
    6628:	e3a00000 	mov	r0, #0
    662c:	e8bd4070 	pop	{r4, r5, r6, lr}
    6630:	e12fff1e 	bx	lr
    6634:	e1906081 	orrs	r6, r0, r1, lsl #1
    6638:	01a00002 	moveq	r0, r2
    663c:	01a01003 	moveq	r1, r3
    6640:	11926083 	orrsne	r6, r2, r3, lsl #1
    6644:	0a000010 	beq	668c <__aeabi_dmul+0x280>
    6648:	e134000c 	teq	r4, ip
    664c:	1a000001 	bne	6658 <__aeabi_dmul+0x24c>
    6650:	e1906601 	orrs	r6, r0, r1, lsl #12
    6654:	1a00000c 	bne	668c <__aeabi_dmul+0x280>
    6658:	e135000c 	teq	r5, ip
    665c:	1a000003 	bne	6670 <__aeabi_dmul+0x264>
    6660:	e1926603 	orrs	r6, r2, r3, lsl #12
    6664:	11a00002 	movne	r0, r2
    6668:	11a01003 	movne	r1, r3
    666c:	1a000006 	bne	668c <__aeabi_dmul+0x280>
    6670:	e0211003 	eor	r1, r1, r3
    6674:	e2011102 	and	r1, r1, #-2147483648	; 0x80000000
    6678:	e381147f 	orr	r1, r1, #2130706432	; 0x7f000000
    667c:	e381160f 	orr	r1, r1, #15728640	; 0xf00000
    6680:	e3a00000 	mov	r0, #0
    6684:	e8bd4070 	pop	{r4, r5, r6, lr}
    6688:	e12fff1e 	bx	lr
    668c:	e381147f 	orr	r1, r1, #2130706432	; 0x7f000000
    6690:	e381173e 	orr	r1, r1, #16252928	; 0xf80000
    6694:	e8bd4070 	pop	{r4, r5, r6, lr}
    6698:	e12fff1e 	bx	lr

0000669c <__aeabi_ddiv>:
    669c:	e92d4070 	push	{r4, r5, r6, lr}
    66a0:	e3a0c0ff 	mov	ip, #255	; 0xff
    66a4:	e38ccc07 	orr	ip, ip, #1792	; 0x700
    66a8:	e01c4a21 	ands	r4, ip, r1, lsr #20
    66ac:	101c5a23 	andsne	r5, ip, r3, lsr #20
    66b0:	1134000c 	teqne	r4, ip
    66b4:	1135000c 	teqne	r5, ip
    66b8:	0b00005e 	bleq	6838 <__aeabi_ddiv+0x19c>
    66bc:	e0444005 	sub	r4, r4, r5
    66c0:	e021e003 	eor	lr, r1, r3
    66c4:	e1925603 	orrs	r5, r2, r3, lsl #12
    66c8:	e1a01601 	lsl	r1, r1, #12
    66cc:	0a00004c 	beq	6804 <__aeabi_ddiv+0x168>
    66d0:	e1a03603 	lsl	r3, r3, #12
    66d4:	e3a05201 	mov	r5, #268435456	; 0x10000000
    66d8:	e1853223 	orr	r3, r5, r3, lsr #4
    66dc:	e1833c22 	orr	r3, r3, r2, lsr #24
    66e0:	e1a02402 	lsl	r2, r2, #8
    66e4:	e1855221 	orr	r5, r5, r1, lsr #4
    66e8:	e1855c20 	orr	r5, r5, r0, lsr #24
    66ec:	e1a06400 	lsl	r6, r0, #8
    66f0:	e20e1102 	and	r1, lr, #-2147483648	; 0x80000000
    66f4:	e1550003 	cmp	r5, r3
    66f8:	01560002 	cmpeq	r6, r2
    66fc:	e2a440fd 	adc	r4, r4, #253	; 0xfd
    6700:	e2844c03 	add	r4, r4, #768	; 0x300
    6704:	2a000001 	bcs	6710 <__aeabi_ddiv+0x74>
    6708:	e1b030a3 	lsrs	r3, r3, #1
    670c:	e1a02062 	rrx	r2, r2
    6710:	e0566002 	subs	r6, r6, r2
    6714:	e0c55003 	sbc	r5, r5, r3
    6718:	e1b030a3 	lsrs	r3, r3, #1
    671c:	e1a02062 	rrx	r2, r2
    6720:	e3a00601 	mov	r0, #1048576	; 0x100000
    6724:	e3a0c702 	mov	ip, #524288	; 0x80000
    6728:	e056e002 	subs	lr, r6, r2
    672c:	e0d5e003 	sbcs	lr, r5, r3
    6730:	20466002 	subcs	r6, r6, r2
    6734:	21a0500e 	movcs	r5, lr
    6738:	2180000c 	orrcs	r0, r0, ip
    673c:	e1b030a3 	lsrs	r3, r3, #1
    6740:	e1a02062 	rrx	r2, r2
    6744:	e056e002 	subs	lr, r6, r2
    6748:	e0d5e003 	sbcs	lr, r5, r3
    674c:	20466002 	subcs	r6, r6, r2
    6750:	21a0500e 	movcs	r5, lr
    6754:	218000ac 	orrcs	r0, r0, ip, lsr #1
    6758:	e1b030a3 	lsrs	r3, r3, #1
    675c:	e1a02062 	rrx	r2, r2
    6760:	e056e002 	subs	lr, r6, r2
    6764:	e0d5e003 	sbcs	lr, r5, r3
    6768:	20466002 	subcs	r6, r6, r2
    676c:	21a0500e 	movcs	r5, lr
    6770:	2180012c 	orrcs	r0, r0, ip, lsr #2
    6774:	e1b030a3 	lsrs	r3, r3, #1
    6778:	e1a02062 	rrx	r2, r2
    677c:	e056e002 	subs	lr, r6, r2
    6780:	e0d5e003 	sbcs	lr, r5, r3
    6784:	20466002 	subcs	r6, r6, r2
    6788:	21a0500e 	movcs	r5, lr
    678c:	218001ac 	orrcs	r0, r0, ip, lsr #3
    6790:	e195e006 	orrs	lr, r5, r6
    6794:	0a00000d 	beq	67d0 <__aeabi_ddiv+0x134>
    6798:	e1a05205 	lsl	r5, r5, #4
    679c:	e1855e26 	orr	r5, r5, r6, lsr #28
    67a0:	e1a06206 	lsl	r6, r6, #4
    67a4:	e1a03183 	lsl	r3, r3, #3
    67a8:	e1833ea2 	orr	r3, r3, r2, lsr #29
    67ac:	e1a02182 	lsl	r2, r2, #3
    67b0:	e1b0c22c 	lsrs	ip, ip, #4
    67b4:	1affffdb 	bne	6728 <__aeabi_ddiv+0x8c>
    67b8:	e3110601 	tst	r1, #1048576	; 0x100000
    67bc:	1a000006 	bne	67dc <__aeabi_ddiv+0x140>
    67c0:	e1811000 	orr	r1, r1, r0
    67c4:	e3a00000 	mov	r0, #0
    67c8:	e3a0c102 	mov	ip, #-2147483648	; 0x80000000
    67cc:	eaffffd5 	b	6728 <__aeabi_ddiv+0x8c>
    67d0:	e3110601 	tst	r1, #1048576	; 0x100000
    67d4:	01811000 	orreq	r1, r1, r0
    67d8:	03a00000 	moveq	r0, #0
    67dc:	e254c0fd 	subs	ip, r4, #253	; 0xfd
    67e0:	835c0c07 	cmphi	ip, #1792	; 0x700
    67e4:	8affff43 	bhi	64f8 <__aeabi_dmul+0xec>
    67e8:	e055c003 	subs	ip, r5, r3
    67ec:	0056c002 	subseq	ip, r6, r2
    67f0:	01b0c0a0 	lsrseq	ip, r0, #1
    67f4:	e2b00000 	adcs	r0, r0, #0
    67f8:	e0a11a04 	adc	r1, r1, r4, lsl #20
    67fc:	e8bd4070 	pop	{r4, r5, r6, lr}
    6800:	e12fff1e 	bx	lr
    6804:	e20ee102 	and	lr, lr, #-2147483648	; 0x80000000
    6808:	e18e1621 	orr	r1, lr, r1, lsr #12
    680c:	e09440ac 	adds	r4, r4, ip, lsr #1
    6810:	c074500c 	rsbsgt	r5, r4, ip
    6814:	c1811a04 	orrgt	r1, r1, r4, lsl #20
    6818:	c8bd4070 	popgt	{r4, r5, r6, lr}
    681c:	c12fff1e 	bxgt	lr
    6820:	e3811601 	orr	r1, r1, #1048576	; 0x100000
    6824:	e3a0e000 	mov	lr, #0
    6828:	e2544001 	subs	r4, r4, #1
    682c:	eaffff31 	b	64f8 <__aeabi_dmul+0xec>
    6830:	e185e006 	orr	lr, r5, r6
    6834:	eaffff2f 	b	64f8 <__aeabi_dmul+0xec>
    6838:	e00c5a23 	and	r5, ip, r3, lsr #20
    683c:	e134000c 	teq	r4, ip
    6840:	0135000c 	teqeq	r5, ip
    6844:	0affff90 	beq	668c <__aeabi_dmul+0x280>
    6848:	e134000c 	teq	r4, ip
    684c:	1a000006 	bne	686c <__aeabi_ddiv+0x1d0>
    6850:	e1904601 	orrs	r4, r0, r1, lsl #12
    6854:	1affff8c 	bne	668c <__aeabi_dmul+0x280>
    6858:	e135000c 	teq	r5, ip
    685c:	1affff83 	bne	6670 <__aeabi_dmul+0x264>
    6860:	e1a00002 	mov	r0, r2
    6864:	e1a01003 	mov	r1, r3
    6868:	eaffff87 	b	668c <__aeabi_dmul+0x280>
    686c:	e135000c 	teq	r5, ip
    6870:	1a000004 	bne	6888 <__aeabi_ddiv+0x1ec>
    6874:	e1925603 	orrs	r5, r2, r3, lsl #12
    6878:	0affff68 	beq	6620 <__aeabi_dmul+0x214>
    687c:	e1a00002 	mov	r0, r2
    6880:	e1a01003 	mov	r1, r3
    6884:	eaffff80 	b	668c <__aeabi_dmul+0x280>
    6888:	e1906081 	orrs	r6, r0, r1, lsl #1
    688c:	11926083 	orrsne	r6, r2, r3, lsl #1
    6890:	1affff48 	bne	65b8 <__aeabi_dmul+0x1ac>
    6894:	e1904081 	orrs	r4, r0, r1, lsl #1
    6898:	1affff74 	bne	6670 <__aeabi_dmul+0x264>
    689c:	e1925083 	orrs	r5, r2, r3, lsl #1
    68a0:	1affff5e 	bne	6620 <__aeabi_dmul+0x214>
    68a4:	eaffff78 	b	668c <__aeabi_dmul+0x280>

000068a8 <__gedf2>:
    68a8:	e3e0c000 	mvn	ip, #0
    68ac:	ea000002 	b	68bc <__cmpdf2+0x4>

000068b0 <__ledf2>:
    68b0:	e3a0c001 	mov	ip, #1
    68b4:	ea000000 	b	68bc <__cmpdf2+0x4>

000068b8 <__cmpdf2>:
    68b8:	e3a0c001 	mov	ip, #1
    68bc:	e52dc004 	push	{ip}		; (str ip, [sp, #-4]!)
    68c0:	e1a0c081 	lsl	ip, r1, #1
    68c4:	e1f0cacc 	mvns	ip, ip, asr #21
    68c8:	e1a0c083 	lsl	ip, r3, #1
    68cc:	11f0cacc 	mvnsne	ip, ip, asr #21
    68d0:	0a00000e 	beq	6910 <__cmpdf2+0x58>
    68d4:	e28dd004 	add	sp, sp, #4
    68d8:	e190c081 	orrs	ip, r0, r1, lsl #1
    68dc:	0192c083 	orrseq	ip, r2, r3, lsl #1
    68e0:	11310003 	teqne	r1, r3
    68e4:	01300002 	teqeq	r0, r2
    68e8:	03a00000 	moveq	r0, #0
    68ec:	012fff1e 	bxeq	lr
    68f0:	e3700000 	cmn	r0, #0
    68f4:	e1310003 	teq	r1, r3
    68f8:	51510003 	cmppl	r1, r3
    68fc:	01500002 	cmpeq	r0, r2
    6900:	21a00fc3 	asrcs	r0, r3, #31
    6904:	31e00fc3 	mvncc	r0, r3, asr #31
    6908:	e3800001 	orr	r0, r0, #1
    690c:	e12fff1e 	bx	lr
    6910:	e1a0c081 	lsl	ip, r1, #1
    6914:	e1f0cacc 	mvns	ip, ip, asr #21
    6918:	1a000001 	bne	6924 <__cmpdf2+0x6c>
    691c:	e190c601 	orrs	ip, r0, r1, lsl #12
    6920:	1a000004 	bne	6938 <__cmpdf2+0x80>
    6924:	e1a0c083 	lsl	ip, r3, #1
    6928:	e1f0cacc 	mvns	ip, ip, asr #21
    692c:	1affffe8 	bne	68d4 <__cmpdf2+0x1c>
    6930:	e192c603 	orrs	ip, r2, r3, lsl #12
    6934:	0affffe6 	beq	68d4 <__cmpdf2+0x1c>
    6938:	e49d0004 	pop	{r0}		; (ldr r0, [sp], #4)
    693c:	e12fff1e 	bx	lr

00006940 <__aeabi_cdrcmple>:
    6940:	e1a0c000 	mov	ip, r0
    6944:	e1a00002 	mov	r0, r2
    6948:	e1a0200c 	mov	r2, ip
    694c:	e1a0c001 	mov	ip, r1
    6950:	e1a01003 	mov	r1, r3
    6954:	e1a0300c 	mov	r3, ip
    6958:	eaffffff 	b	695c <__aeabi_cdcmpeq>

0000695c <__aeabi_cdcmpeq>:
    695c:	e92d4001 	push	{r0, lr}
    6960:	ebffffd4 	bl	68b8 <__cmpdf2>
    6964:	e3500000 	cmp	r0, #0
    6968:	43700000 	cmnmi	r0, #0
    696c:	e8bd4001 	pop	{r0, lr}
    6970:	e12fff1e 	bx	lr

00006974 <__aeabi_dcmpeq>:
    6974:	e52de008 	str	lr, [sp, #-8]!
    6978:	ebfffff7 	bl	695c <__aeabi_cdcmpeq>
    697c:	03a00001 	moveq	r0, #1
    6980:	13a00000 	movne	r0, #0
    6984:	e49de008 	ldr	lr, [sp], #8
    6988:	e12fff1e 	bx	lr

0000698c <__aeabi_dcmplt>:
    698c:	e52de008 	str	lr, [sp, #-8]!
    6990:	ebfffff1 	bl	695c <__aeabi_cdcmpeq>
    6994:	33a00001 	movcc	r0, #1
    6998:	23a00000 	movcs	r0, #0
    699c:	e49de008 	ldr	lr, [sp], #8
    69a0:	e12fff1e 	bx	lr

000069a4 <__aeabi_dcmple>:
    69a4:	e52de008 	str	lr, [sp, #-8]!
    69a8:	ebffffeb 	bl	695c <__aeabi_cdcmpeq>
    69ac:	93a00001 	movls	r0, #1
    69b0:	83a00000 	movhi	r0, #0
    69b4:	e49de008 	ldr	lr, [sp], #8
    69b8:	e12fff1e 	bx	lr

000069bc <__aeabi_dcmpge>:
    69bc:	e52de008 	str	lr, [sp, #-8]!
    69c0:	ebffffde 	bl	6940 <__aeabi_cdrcmple>
    69c4:	93a00001 	movls	r0, #1
    69c8:	83a00000 	movhi	r0, #0
    69cc:	e49de008 	ldr	lr, [sp], #8
    69d0:	e12fff1e 	bx	lr

000069d4 <__aeabi_dcmpgt>:
    69d4:	e52de008 	str	lr, [sp, #-8]!
    69d8:	ebffffd8 	bl	6940 <__aeabi_cdrcmple>
    69dc:	33a00001 	movcc	r0, #1
    69e0:	23a00000 	movcs	r0, #0
    69e4:	e49de008 	ldr	lr, [sp], #8
    69e8:	e12fff1e 	bx	lr

000069ec <__aeabi_d2iz>:
    69ec:	e1a02081 	lsl	r2, r1, #1
    69f0:	e2922602 	adds	r2, r2, #2097152	; 0x200000
    69f4:	2a00000c 	bcs	6a2c <__aeabi_d2iz+0x40>
    69f8:	5a000009 	bpl	6a24 <__aeabi_d2iz+0x38>
    69fc:	e3e03e3e 	mvn	r3, #992	; 0x3e0
    6a00:	e0532ac2 	subs	r2, r3, r2, asr #21
    6a04:	9a00000a 	bls	6a34 <__aeabi_d2iz+0x48>
    6a08:	e1a03581 	lsl	r3, r1, #11
    6a0c:	e3833102 	orr	r3, r3, #-2147483648	; 0x80000000
    6a10:	e1833aa0 	orr	r3, r3, r0, lsr #21
    6a14:	e3110102 	tst	r1, #-2147483648	; 0x80000000
    6a18:	e1a00233 	lsr	r0, r3, r2
    6a1c:	12600000 	rsbne	r0, r0, #0
    6a20:	e12fff1e 	bx	lr
    6a24:	e3a00000 	mov	r0, #0
    6a28:	e12fff1e 	bx	lr
    6a2c:	e1900601 	orrs	r0, r0, r1, lsl #12
    6a30:	1a000002 	bne	6a40 <__aeabi_d2iz+0x54>
    6a34:	e2110102 	ands	r0, r1, #-2147483648	; 0x80000000
    6a38:	03e00102 	mvneq	r0, #-2147483648	; 0x80000000
    6a3c:	e12fff1e 	bx	lr
    6a40:	e3a00000 	mov	r0, #0
    6a44:	e12fff1e 	bx	lr

00006a48 <__aeabi_d2f>:
    6a48:	e1a02081 	lsl	r2, r1, #1
    6a4c:	e2523207 	subs	r3, r2, #1879048192	; 0x70000000
    6a50:	2253c602 	subscs	ip, r3, #2097152	; 0x200000
    6a54:	227cc57f 	rsbscs	ip, ip, #532676608	; 0x1fc00000
    6a58:	9a000006 	bls	6a78 <__aeabi_d2f+0x30>
    6a5c:	e201c102 	and	ip, r1, #-2147483648	; 0x80000000
    6a60:	e1a02180 	lsl	r2, r0, #3
    6a64:	e18c0ea0 	orr	r0, ip, r0, lsr #29
    6a68:	e3520102 	cmp	r2, #-2147483648	; 0x80000000
    6a6c:	e0a00103 	adc	r0, r0, r3, lsl #2
    6a70:	03c00001 	biceq	r0, r0, #1
    6a74:	e12fff1e 	bx	lr
    6a78:	e3110101 	tst	r1, #1073741824	; 0x40000000
    6a7c:	1a00000f 	bne	6ac0 <__aeabi_d2f+0x78>
    6a80:	e293262e 	adds	r2, r3, #48234496	; 0x2e00000
    6a84:	b2010102 	andlt	r0, r1, #-2147483648	; 0x80000000
    6a88:	b12fff1e 	bxlt	lr
    6a8c:	e3811601 	orr	r1, r1, #1048576	; 0x100000
    6a90:	e1a02aa2 	lsr	r2, r2, #21
    6a94:	e2622018 	rsb	r2, r2, #24
    6a98:	e262c020 	rsb	ip, r2, #32
    6a9c:	e1b03c10 	lsls	r3, r0, ip
    6aa0:	e1a00230 	lsr	r0, r0, r2
    6aa4:	13800001 	orrne	r0, r0, #1
    6aa8:	e1a03581 	lsl	r3, r1, #11
    6aac:	e1a035a3 	lsr	r3, r3, #11
    6ab0:	e1800c13 	orr	r0, r0, r3, lsl ip
    6ab4:	e1a03233 	lsr	r3, r3, r2
    6ab8:	e1a03083 	lsl	r3, r3, #1
    6abc:	eaffffe6 	b	6a5c <__aeabi_d2f+0x14>
    6ac0:	e1f03ac2 	mvns	r3, r2, asr #21
    6ac4:	1a000003 	bne	6ad8 <__aeabi_d2f+0x90>
    6ac8:	e1903601 	orrs	r3, r0, r1, lsl #12
    6acc:	13a0047f 	movne	r0, #2130706432	; 0x7f000000
    6ad0:	13800503 	orrne	r0, r0, #12582912	; 0xc00000
    6ad4:	112fff1e 	bxne	lr
    6ad8:	e2010102 	and	r0, r1, #-2147483648	; 0x80000000
    6adc:	e380047f 	orr	r0, r0, #2130706432	; 0x7f000000
    6ae0:	e3800502 	orr	r0, r0, #8388608	; 0x800000
    6ae4:	e12fff1e 	bx	lr

00006ae8 <__aeabi_frsub>:
    6ae8:	e2200102 	eor	r0, r0, #-2147483648	; 0x80000000
    6aec:	ea000000 	b	6af4 <__addsf3>

00006af0 <__aeabi_fsub>:
    6af0:	e2211102 	eor	r1, r1, #-2147483648	; 0x80000000

00006af4 <__addsf3>:
    6af4:	e1b02080 	lsls	r2, r0, #1
    6af8:	11b03081 	lslsne	r3, r1, #1
    6afc:	11320003 	teqne	r2, r3
    6b00:	11f0cc42 	mvnsne	ip, r2, asr #24
    6b04:	11f0cc43 	mvnsne	ip, r3, asr #24
    6b08:	0a000047 	beq	6c2c <__addsf3+0x138>
    6b0c:	e1a02c22 	lsr	r2, r2, #24
    6b10:	e0723c23 	rsbs	r3, r2, r3, lsr #24
    6b14:	c0822003 	addgt	r2, r2, r3
    6b18:	c0201001 	eorgt	r1, r0, r1
    6b1c:	c0210000 	eorgt	r0, r1, r0
    6b20:	c0201001 	eorgt	r1, r0, r1
    6b24:	b2633000 	rsblt	r3, r3, #0
    6b28:	e3530019 	cmp	r3, #25
    6b2c:	812fff1e 	bxhi	lr
    6b30:	e3100102 	tst	r0, #-2147483648	; 0x80000000
    6b34:	e3800502 	orr	r0, r0, #8388608	; 0x800000
    6b38:	e3c004ff 	bic	r0, r0, #-16777216	; 0xff000000
    6b3c:	12600000 	rsbne	r0, r0, #0
    6b40:	e3110102 	tst	r1, #-2147483648	; 0x80000000
    6b44:	e3811502 	orr	r1, r1, #8388608	; 0x800000
    6b48:	e3c114ff 	bic	r1, r1, #-16777216	; 0xff000000
    6b4c:	12611000 	rsbne	r1, r1, #0
    6b50:	e1320003 	teq	r2, r3
    6b54:	0a00002e 	beq	6c14 <__addsf3+0x120>
    6b58:	e2422001 	sub	r2, r2, #1
    6b5c:	e0900351 	adds	r0, r0, r1, asr r3
    6b60:	e2633020 	rsb	r3, r3, #32
    6b64:	e1a01311 	lsl	r1, r1, r3
    6b68:	e2003102 	and	r3, r0, #-2147483648	; 0x80000000
    6b6c:	5a000001 	bpl	6b78 <__addsf3+0x84>
    6b70:	e2711000 	rsbs	r1, r1, #0
    6b74:	e2e00000 	rsc	r0, r0, #0
    6b78:	e3500502 	cmp	r0, #8388608	; 0x800000
    6b7c:	3a00000b 	bcc	6bb0 <__addsf3+0xbc>
    6b80:	e3500401 	cmp	r0, #16777216	; 0x1000000
    6b84:	3a000004 	bcc	6b9c <__addsf3+0xa8>
    6b88:	e1b000a0 	lsrs	r0, r0, #1
    6b8c:	e1a01061 	rrx	r1, r1
    6b90:	e2822001 	add	r2, r2, #1
    6b94:	e35200fe 	cmp	r2, #254	; 0xfe
    6b98:	2a000038 	bcs	6c80 <__addsf3+0x18c>
    6b9c:	e3510102 	cmp	r1, #-2147483648	; 0x80000000
    6ba0:	e0a00b82 	adc	r0, r0, r2, lsl #23
    6ba4:	03c00001 	biceq	r0, r0, #1
    6ba8:	e1800003 	orr	r0, r0, r3
    6bac:	e12fff1e 	bx	lr
    6bb0:	e1b01081 	lsls	r1, r1, #1
    6bb4:	e0a00000 	adc	r0, r0, r0
    6bb8:	e3100502 	tst	r0, #8388608	; 0x800000
    6bbc:	e2422001 	sub	r2, r2, #1
    6bc0:	1afffff5 	bne	6b9c <__addsf3+0xa8>
    6bc4:	e1b0c620 	lsrs	ip, r0, #12
    6bc8:	01a00600 	lsleq	r0, r0, #12
    6bcc:	0242200c 	subeq	r2, r2, #12
    6bd0:	e31008ff 	tst	r0, #16711680	; 0xff0000
    6bd4:	01a00400 	lsleq	r0, r0, #8
    6bd8:	02422008 	subeq	r2, r2, #8
    6bdc:	e310060f 	tst	r0, #15728640	; 0xf00000
    6be0:	01a00200 	lsleq	r0, r0, #4
    6be4:	02422004 	subeq	r2, r2, #4
    6be8:	e3100503 	tst	r0, #12582912	; 0xc00000
    6bec:	01a00100 	lsleq	r0, r0, #2
    6bf0:	02422002 	subeq	r2, r2, #2
    6bf4:	e3500502 	cmp	r0, #8388608	; 0x800000
    6bf8:	31a00080 	lslcc	r0, r0, #1
    6bfc:	e2d22000 	sbcs	r2, r2, #0
    6c00:	a0800b82 	addge	r0, r0, r2, lsl #23
    6c04:	b2622000 	rsblt	r2, r2, #0
    6c08:	a1800003 	orrge	r0, r0, r3
    6c0c:	b1830230 	orrlt	r0, r3, r0, lsr r2
    6c10:	e12fff1e 	bx	lr
    6c14:	e3320000 	teq	r2, #0
    6c18:	e2211502 	eor	r1, r1, #8388608	; 0x800000
    6c1c:	02200502 	eoreq	r0, r0, #8388608	; 0x800000
    6c20:	02822001 	addeq	r2, r2, #1
    6c24:	12433001 	subne	r3, r3, #1
    6c28:	eaffffca 	b	6b58 <__addsf3+0x64>
    6c2c:	e1a03081 	lsl	r3, r1, #1
    6c30:	e1f0cc42 	mvns	ip, r2, asr #24
    6c34:	11f0cc43 	mvnsne	ip, r3, asr #24
    6c38:	0a000013 	beq	6c8c <__addsf3+0x198>
    6c3c:	e1320003 	teq	r2, r3
    6c40:	0a000002 	beq	6c50 <__addsf3+0x15c>
    6c44:	e3320000 	teq	r2, #0
    6c48:	01a00001 	moveq	r0, r1
    6c4c:	e12fff1e 	bx	lr
    6c50:	e1300001 	teq	r0, r1
    6c54:	13a00000 	movne	r0, #0
    6c58:	112fff1e 	bxne	lr
    6c5c:	e31204ff 	tst	r2, #-16777216	; 0xff000000
    6c60:	1a000002 	bne	6c70 <__addsf3+0x17c>
    6c64:	e1b00080 	lsls	r0, r0, #1
    6c68:	23800102 	orrcs	r0, r0, #-2147483648	; 0x80000000
    6c6c:	e12fff1e 	bx	lr
    6c70:	e2922402 	adds	r2, r2, #33554432	; 0x2000000
    6c74:	32800502 	addcc	r0, r0, #8388608	; 0x800000
    6c78:	312fff1e 	bxcc	lr
    6c7c:	e2003102 	and	r3, r0, #-2147483648	; 0x80000000
    6c80:	e383047f 	orr	r0, r3, #2130706432	; 0x7f000000
    6c84:	e3800502 	orr	r0, r0, #8388608	; 0x800000
    6c88:	e12fff1e 	bx	lr
    6c8c:	e1f02c42 	mvns	r2, r2, asr #24
    6c90:	11a00001 	movne	r0, r1
    6c94:	01f03c43 	mvnseq	r3, r3, asr #24
    6c98:	11a01000 	movne	r1, r0
    6c9c:	e1b02480 	lsls	r2, r0, #9
    6ca0:	01b03481 	lslseq	r3, r1, #9
    6ca4:	01300001 	teqeq	r0, r1
    6ca8:	13800501 	orrne	r0, r0, #4194304	; 0x400000
    6cac:	e12fff1e 	bx	lr

00006cb0 <__aeabi_ui2f>:
    6cb0:	e3a03000 	mov	r3, #0
    6cb4:	ea000001 	b	6cc0 <__aeabi_i2f+0x8>

00006cb8 <__aeabi_i2f>:
    6cb8:	e2103102 	ands	r3, r0, #-2147483648	; 0x80000000
    6cbc:	42600000 	rsbmi	r0, r0, #0
    6cc0:	e1b0c000 	movs	ip, r0
    6cc4:	012fff1e 	bxeq	lr
    6cc8:	e383344b 	orr	r3, r3, #1258291200	; 0x4b000000
    6ccc:	e1a01000 	mov	r1, r0
    6cd0:	e3a00000 	mov	r0, #0
    6cd4:	ea00000f 	b	6d18 <__aeabi_l2f+0x30>

00006cd8 <__aeabi_ul2f>:
    6cd8:	e1902001 	orrs	r2, r0, r1
    6cdc:	012fff1e 	bxeq	lr
    6ce0:	e3a03000 	mov	r3, #0
    6ce4:	ea000005 	b	6d00 <__aeabi_l2f+0x18>

00006ce8 <__aeabi_l2f>:
    6ce8:	e1902001 	orrs	r2, r0, r1
    6cec:	012fff1e 	bxeq	lr
    6cf0:	e2113102 	ands	r3, r1, #-2147483648	; 0x80000000
    6cf4:	5a000001 	bpl	6d00 <__aeabi_l2f+0x18>
    6cf8:	e2700000 	rsbs	r0, r0, #0
    6cfc:	e2e11000 	rsc	r1, r1, #0
    6d00:	e1b0c001 	movs	ip, r1
    6d04:	01a0c000 	moveq	ip, r0
    6d08:	01a01000 	moveq	r1, r0
    6d0c:	03a00000 	moveq	r0, #0
    6d10:	e383345b 	orr	r3, r3, #1526726656	; 0x5b000000
    6d14:	02433201 	subeq	r3, r3, #268435456	; 0x10000000
    6d18:	e2433502 	sub	r3, r3, #8388608	; 0x800000
    6d1c:	e3a02017 	mov	r2, #23
    6d20:	e35c0801 	cmp	ip, #65536	; 0x10000
    6d24:	21a0c82c 	lsrcs	ip, ip, #16
    6d28:	22422010 	subcs	r2, r2, #16
    6d2c:	e35c0c01 	cmp	ip, #256	; 0x100
    6d30:	21a0c42c 	lsrcs	ip, ip, #8
    6d34:	22422008 	subcs	r2, r2, #8
    6d38:	e35c0010 	cmp	ip, #16
    6d3c:	21a0c22c 	lsrcs	ip, ip, #4
    6d40:	22422004 	subcs	r2, r2, #4
    6d44:	e35c0004 	cmp	ip, #4
    6d48:	22422002 	subcs	r2, r2, #2
    6d4c:	304220ac 	subcc	r2, r2, ip, lsr #1
    6d50:	e05221ac 	subs	r2, r2, ip, lsr #3
    6d54:	e0433b82 	sub	r3, r3, r2, lsl #23
    6d58:	ba000006 	blt	6d78 <__aeabi_l2f+0x90>
    6d5c:	e0833211 	add	r3, r3, r1, lsl r2
    6d60:	e1a0c210 	lsl	ip, r0, r2
    6d64:	e2622020 	rsb	r2, r2, #32
    6d68:	e35c0102 	cmp	ip, #-2147483648	; 0x80000000
    6d6c:	e0a30230 	adc	r0, r3, r0, lsr r2
    6d70:	03c00001 	biceq	r0, r0, #1
    6d74:	e12fff1e 	bx	lr
    6d78:	e2822020 	add	r2, r2, #32
    6d7c:	e1a0c211 	lsl	ip, r1, r2
    6d80:	e2622020 	rsb	r2, r2, #32
    6d84:	e190008c 	orrs	r0, r0, ip, lsl #1
    6d88:	e0a30231 	adc	r0, r3, r1, lsr r2
    6d8c:	01c00fac 	biceq	r0, r0, ip, lsr #31
    6d90:	e12fff1e 	bx	lr

00006d94 <__aeabi_fmul>:
    6d94:	e3a0c0ff 	mov	ip, #255	; 0xff
    6d98:	e01c2ba0 	ands	r2, ip, r0, lsr #23
    6d9c:	101c3ba1 	andsne	r3, ip, r1, lsr #23
    6da0:	1132000c 	teqne	r2, ip
    6da4:	1133000c 	teqne	r3, ip
    6da8:	0a00003e 	beq	6ea8 <__aeabi_fmul+0x114>
    6dac:	e0822003 	add	r2, r2, r3
    6db0:	e020c001 	eor	ip, r0, r1
    6db4:	e1b00480 	lsls	r0, r0, #9
    6db8:	11b01481 	lslsne	r1, r1, #9
    6dbc:	0a000010 	beq	6e04 <__aeabi_fmul+0x70>
    6dc0:	e3a03302 	mov	r3, #134217728	; 0x8000000
    6dc4:	e18302a0 	orr	r0, r3, r0, lsr #5
    6dc8:	e18312a1 	orr	r1, r3, r1, lsr #5
    6dcc:	e0813190 	umull	r3, r1, r0, r1
    6dd0:	e20c0102 	and	r0, ip, #-2147483648	; 0x80000000
    6dd4:	e3510502 	cmp	r1, #8388608	; 0x800000
    6dd8:	31a01081 	lslcc	r1, r1, #1
    6ddc:	31811fa3 	orrcc	r1, r1, r3, lsr #31
    6de0:	31a03083 	lslcc	r3, r3, #1
    6de4:	e1800001 	orr	r0, r0, r1
    6de8:	e2c2207f 	sbc	r2, r2, #127	; 0x7f
    6dec:	e35200fd 	cmp	r2, #253	; 0xfd
    6df0:	8a00000f 	bhi	6e34 <__aeabi_fmul+0xa0>
    6df4:	e3530102 	cmp	r3, #-2147483648	; 0x80000000
    6df8:	e0a00b82 	adc	r0, r0, r2, lsl #23
    6dfc:	03c00001 	biceq	r0, r0, #1
    6e00:	e12fff1e 	bx	lr
    6e04:	e3300000 	teq	r0, #0
    6e08:	e20cc102 	and	ip, ip, #-2147483648	; 0x80000000
    6e0c:	01a01481 	lsleq	r1, r1, #9
    6e10:	e18c04a0 	orr	r0, ip, r0, lsr #9
    6e14:	e18004a1 	orr	r0, r0, r1, lsr #9
    6e18:	e252207f 	subs	r2, r2, #127	; 0x7f
    6e1c:	c27230ff 	rsbsgt	r3, r2, #255	; 0xff
    6e20:	c1800b82 	orrgt	r0, r0, r2, lsl #23
    6e24:	c12fff1e 	bxgt	lr
    6e28:	e3800502 	orr	r0, r0, #8388608	; 0x800000
    6e2c:	e3a03000 	mov	r3, #0
    6e30:	e2522001 	subs	r2, r2, #1
    6e34:	ca000035 	bgt	6f10 <__aeabi_fmul+0x17c>
    6e38:	e3720019 	cmn	r2, #25
    6e3c:	d2000102 	andle	r0, r0, #-2147483648	; 0x80000000
    6e40:	d12fff1e 	bxle	lr
    6e44:	e2622000 	rsb	r2, r2, #0
    6e48:	e1b01080 	lsls	r1, r0, #1
    6e4c:	e1a01231 	lsr	r1, r1, r2
    6e50:	e2622020 	rsb	r2, r2, #32
    6e54:	e1a0c210 	lsl	ip, r0, r2
    6e58:	e1b00061 	rrxs	r0, r1
    6e5c:	e2a00000 	adc	r0, r0, #0
    6e60:	e193308c 	orrs	r3, r3, ip, lsl #1
    6e64:	01c00fac 	biceq	r0, r0, ip, lsr #31
    6e68:	e12fff1e 	bx	lr
    6e6c:	e3320000 	teq	r2, #0
    6e70:	e200c102 	and	ip, r0, #-2147483648	; 0x80000000
    6e74:	01a00080 	lsleq	r0, r0, #1
    6e78:	03100502 	tsteq	r0, #8388608	; 0x800000
    6e7c:	02422001 	subeq	r2, r2, #1
    6e80:	0afffffb 	beq	6e74 <__aeabi_fmul+0xe0>
    6e84:	e180000c 	orr	r0, r0, ip
    6e88:	e3330000 	teq	r3, #0
    6e8c:	e201c102 	and	ip, r1, #-2147483648	; 0x80000000
    6e90:	01a01081 	lsleq	r1, r1, #1
    6e94:	03110502 	tsteq	r1, #8388608	; 0x800000
    6e98:	02433001 	subeq	r3, r3, #1
    6e9c:	0afffffb 	beq	6e90 <__aeabi_fmul+0xfc>
    6ea0:	e181100c 	orr	r1, r1, ip
    6ea4:	eaffffc0 	b	6dac <__aeabi_fmul+0x18>
    6ea8:	e00c3ba1 	and	r3, ip, r1, lsr #23
    6eac:	e132000c 	teq	r2, ip
    6eb0:	1133000c 	teqne	r3, ip
    6eb4:	0a000005 	beq	6ed0 <__aeabi_fmul+0x13c>
    6eb8:	e3d0c102 	bics	ip, r0, #-2147483648	; 0x80000000
    6ebc:	13d1c102 	bicsne	ip, r1, #-2147483648	; 0x80000000
    6ec0:	1affffe9 	bne	6e6c <__aeabi_fmul+0xd8>
    6ec4:	e0200001 	eor	r0, r0, r1
    6ec8:	e2000102 	and	r0, r0, #-2147483648	; 0x80000000
    6ecc:	e12fff1e 	bx	lr
    6ed0:	e3300000 	teq	r0, #0
    6ed4:	13300102 	teqne	r0, #-2147483648	; 0x80000000
    6ed8:	01a00001 	moveq	r0, r1
    6edc:	13310000 	teqne	r1, #0
    6ee0:	13310102 	teqne	r1, #-2147483648	; 0x80000000
    6ee4:	0a00000d 	beq	6f20 <__aeabi_fmul+0x18c>
    6ee8:	e132000c 	teq	r2, ip
    6eec:	1a000001 	bne	6ef8 <__aeabi_fmul+0x164>
    6ef0:	e1b02480 	lsls	r2, r0, #9
    6ef4:	1a000009 	bne	6f20 <__aeabi_fmul+0x18c>
    6ef8:	e133000c 	teq	r3, ip
    6efc:	1a000002 	bne	6f0c <__aeabi_fmul+0x178>
    6f00:	e1b03481 	lsls	r3, r1, #9
    6f04:	11a00001 	movne	r0, r1
    6f08:	1a000004 	bne	6f20 <__aeabi_fmul+0x18c>
    6f0c:	e0200001 	eor	r0, r0, r1
    6f10:	e2000102 	and	r0, r0, #-2147483648	; 0x80000000
    6f14:	e380047f 	orr	r0, r0, #2130706432	; 0x7f000000
    6f18:	e3800502 	orr	r0, r0, #8388608	; 0x800000
    6f1c:	e12fff1e 	bx	lr
    6f20:	e380047f 	orr	r0, r0, #2130706432	; 0x7f000000
    6f24:	e3800503 	orr	r0, r0, #12582912	; 0xc00000
    6f28:	e12fff1e 	bx	lr

00006f2c <__aeabi_fdiv>:
    6f2c:	e3a0c0ff 	mov	ip, #255	; 0xff
    6f30:	e01c2ba0 	ands	r2, ip, r0, lsr #23
    6f34:	101c3ba1 	andsne	r3, ip, r1, lsr #23
    6f38:	1132000c 	teqne	r2, ip
    6f3c:	1133000c 	teqne	r3, ip
    6f40:	0a00003a 	beq	7030 <__aeabi_fdiv+0x104>
    6f44:	e0422003 	sub	r2, r2, r3
    6f48:	e020c001 	eor	ip, r0, r1
    6f4c:	e1b01481 	lsls	r1, r1, #9
    6f50:	e1a00480 	lsl	r0, r0, #9
    6f54:	0a00001c 	beq	6fcc <__aeabi_fdiv+0xa0>
    6f58:	e3a03201 	mov	r3, #268435456	; 0x10000000
    6f5c:	e1831221 	orr	r1, r3, r1, lsr #4
    6f60:	e1833220 	orr	r3, r3, r0, lsr #4
    6f64:	e20c0102 	and	r0, ip, #-2147483648	; 0x80000000
    6f68:	e1530001 	cmp	r3, r1
    6f6c:	31a03083 	lslcc	r3, r3, #1
    6f70:	e2a2207d 	adc	r2, r2, #125	; 0x7d
    6f74:	e3a0c502 	mov	ip, #8388608	; 0x800000
    6f78:	e1530001 	cmp	r3, r1
    6f7c:	20433001 	subcs	r3, r3, r1
    6f80:	2180000c 	orrcs	r0, r0, ip
    6f84:	e15300a1 	cmp	r3, r1, lsr #1
    6f88:	204330a1 	subcs	r3, r3, r1, lsr #1
    6f8c:	218000ac 	orrcs	r0, r0, ip, lsr #1
    6f90:	e1530121 	cmp	r3, r1, lsr #2
    6f94:	20433121 	subcs	r3, r3, r1, lsr #2
    6f98:	2180012c 	orrcs	r0, r0, ip, lsr #2
    6f9c:	e15301a1 	cmp	r3, r1, lsr #3
    6fa0:	204331a1 	subcs	r3, r3, r1, lsr #3
    6fa4:	218001ac 	orrcs	r0, r0, ip, lsr #3
    6fa8:	e1b03203 	lsls	r3, r3, #4
    6fac:	11b0c22c 	lsrsne	ip, ip, #4
    6fb0:	1afffff0 	bne	6f78 <__aeabi_fdiv+0x4c>
    6fb4:	e35200fd 	cmp	r2, #253	; 0xfd
    6fb8:	8affff9d 	bhi	6e34 <__aeabi_fmul+0xa0>
    6fbc:	e1530001 	cmp	r3, r1
    6fc0:	e0a00b82 	adc	r0, r0, r2, lsl #23
    6fc4:	03c00001 	biceq	r0, r0, #1
    6fc8:	e12fff1e 	bx	lr
    6fcc:	e20cc102 	and	ip, ip, #-2147483648	; 0x80000000
    6fd0:	e18c04a0 	orr	r0, ip, r0, lsr #9
    6fd4:	e292207f 	adds	r2, r2, #127	; 0x7f
    6fd8:	c27230ff 	rsbsgt	r3, r2, #255	; 0xff
    6fdc:	c1800b82 	orrgt	r0, r0, r2, lsl #23
    6fe0:	c12fff1e 	bxgt	lr
    6fe4:	e3800502 	orr	r0, r0, #8388608	; 0x800000
    6fe8:	e3a03000 	mov	r3, #0
    6fec:	e2522001 	subs	r2, r2, #1
    6ff0:	eaffff8f 	b	6e34 <__aeabi_fmul+0xa0>
    6ff4:	e3320000 	teq	r2, #0
    6ff8:	e200c102 	and	ip, r0, #-2147483648	; 0x80000000
    6ffc:	01a00080 	lsleq	r0, r0, #1
    7000:	03100502 	tsteq	r0, #8388608	; 0x800000
    7004:	02422001 	subeq	r2, r2, #1
    7008:	0afffffb 	beq	6ffc <__aeabi_fdiv+0xd0>
    700c:	e180000c 	orr	r0, r0, ip
    7010:	e3330000 	teq	r3, #0
    7014:	e201c102 	and	ip, r1, #-2147483648	; 0x80000000
    7018:	01a01081 	lsleq	r1, r1, #1
    701c:	03110502 	tsteq	r1, #8388608	; 0x800000
    7020:	02433001 	subeq	r3, r3, #1
    7024:	0afffffb 	beq	7018 <__aeabi_fdiv+0xec>
    7028:	e181100c 	orr	r1, r1, ip
    702c:	eaffffc4 	b	6f44 <__aeabi_fdiv+0x18>
    7030:	e00c3ba1 	and	r3, ip, r1, lsr #23
    7034:	e132000c 	teq	r2, ip
    7038:	1a000005 	bne	7054 <__aeabi_fdiv+0x128>
    703c:	e1b02480 	lsls	r2, r0, #9
    7040:	1affffb6 	bne	6f20 <__aeabi_fmul+0x18c>
    7044:	e133000c 	teq	r3, ip
    7048:	1affffaf 	bne	6f0c <__aeabi_fmul+0x178>
    704c:	e1a00001 	mov	r0, r1
    7050:	eaffffb2 	b	6f20 <__aeabi_fmul+0x18c>
    7054:	e133000c 	teq	r3, ip
    7058:	1a000003 	bne	706c <__aeabi_fdiv+0x140>
    705c:	e1b03481 	lsls	r3, r1, #9
    7060:	0affff97 	beq	6ec4 <__aeabi_fmul+0x130>
    7064:	e1a00001 	mov	r0, r1
    7068:	eaffffac 	b	6f20 <__aeabi_fmul+0x18c>
    706c:	e3d0c102 	bics	ip, r0, #-2147483648	; 0x80000000
    7070:	13d1c102 	bicsne	ip, r1, #-2147483648	; 0x80000000
    7074:	1affffde 	bne	6ff4 <__aeabi_fdiv+0xc8>
    7078:	e3d02102 	bics	r2, r0, #-2147483648	; 0x80000000
    707c:	1affffa2 	bne	6f0c <__aeabi_fmul+0x178>
    7080:	e3d13102 	bics	r3, r1, #-2147483648	; 0x80000000
    7084:	1affff8e 	bne	6ec4 <__aeabi_fmul+0x130>
    7088:	eaffffa4 	b	6f20 <__aeabi_fmul+0x18c>

0000708c <__gesf2>:
    708c:	e3e0c000 	mvn	ip, #0
    7090:	ea000002 	b	70a0 <__cmpsf2+0x4>

00007094 <__lesf2>:
    7094:	e3a0c001 	mov	ip, #1
    7098:	ea000000 	b	70a0 <__cmpsf2+0x4>

0000709c <__cmpsf2>:
    709c:	e3a0c001 	mov	ip, #1
    70a0:	e52dc004 	push	{ip}		; (str ip, [sp, #-4]!)
    70a4:	e1a02080 	lsl	r2, r0, #1
    70a8:	e1a03081 	lsl	r3, r1, #1
    70ac:	e1f0cc42 	mvns	ip, r2, asr #24
    70b0:	11f0cc43 	mvnsne	ip, r3, asr #24
    70b4:	0a000007 	beq	70d8 <__cmpsf2+0x3c>
    70b8:	e28dd004 	add	sp, sp, #4
    70bc:	e192c0a3 	orrs	ip, r2, r3, lsr #1
    70c0:	11300001 	teqne	r0, r1
    70c4:	50520003 	subspl	r0, r2, r3
    70c8:	81a00fc1 	asrhi	r0, r1, #31
    70cc:	31e00fc1 	mvncc	r0, r1, asr #31
    70d0:	13800001 	orrne	r0, r0, #1
    70d4:	e12fff1e 	bx	lr
    70d8:	e1f0cc42 	mvns	ip, r2, asr #24
    70dc:	1a000001 	bne	70e8 <__cmpsf2+0x4c>
    70e0:	e1b0c480 	lsls	ip, r0, #9
    70e4:	1a000003 	bne	70f8 <__cmpsf2+0x5c>
    70e8:	e1f0cc43 	mvns	ip, r3, asr #24
    70ec:	1afffff1 	bne	70b8 <__cmpsf2+0x1c>
    70f0:	e1b0c481 	lsls	ip, r1, #9
    70f4:	0affffef 	beq	70b8 <__cmpsf2+0x1c>
    70f8:	e49d0004 	pop	{r0}		; (ldr r0, [sp], #4)
    70fc:	e12fff1e 	bx	lr

00007100 <__aeabi_cfrcmple>:
    7100:	e1a0c000 	mov	ip, r0
    7104:	e1a00001 	mov	r0, r1
    7108:	e1a0100c 	mov	r1, ip
    710c:	eaffffff 	b	7110 <__aeabi_cfcmpeq>

00007110 <__aeabi_cfcmpeq>:
    7110:	e92d400f 	push	{r0, r1, r2, r3, lr}
    7114:	ebffffe0 	bl	709c <__cmpsf2>
    7118:	e3500000 	cmp	r0, #0
    711c:	43700000 	cmnmi	r0, #0
    7120:	e8bd400f 	pop	{r0, r1, r2, r3, lr}
    7124:	e12fff1e 	bx	lr

00007128 <__aeabi_fcmpeq>:
    7128:	e52de008 	str	lr, [sp, #-8]!
    712c:	ebfffff7 	bl	7110 <__aeabi_cfcmpeq>
    7130:	03a00001 	moveq	r0, #1
    7134:	13a00000 	movne	r0, #0
    7138:	e49de008 	ldr	lr, [sp], #8
    713c:	e12fff1e 	bx	lr

00007140 <__aeabi_fcmplt>:
    7140:	e52de008 	str	lr, [sp, #-8]!
    7144:	ebfffff1 	bl	7110 <__aeabi_cfcmpeq>
    7148:	33a00001 	movcc	r0, #1
    714c:	23a00000 	movcs	r0, #0
    7150:	e49de008 	ldr	lr, [sp], #8
    7154:	e12fff1e 	bx	lr

00007158 <__aeabi_fcmple>:
    7158:	e52de008 	str	lr, [sp, #-8]!
    715c:	ebffffeb 	bl	7110 <__aeabi_cfcmpeq>
    7160:	93a00001 	movls	r0, #1
    7164:	83a00000 	movhi	r0, #0
    7168:	e49de008 	ldr	lr, [sp], #8
    716c:	e12fff1e 	bx	lr

00007170 <__aeabi_fcmpge>:
    7170:	e52de008 	str	lr, [sp, #-8]!
    7174:	ebffffe1 	bl	7100 <__aeabi_cfrcmple>
    7178:	93a00001 	movls	r0, #1
    717c:	83a00000 	movhi	r0, #0
    7180:	e49de008 	ldr	lr, [sp], #8
    7184:	e12fff1e 	bx	lr

00007188 <__aeabi_fcmpgt>:
    7188:	e52de008 	str	lr, [sp, #-8]!
    718c:	ebffffdb 	bl	7100 <__aeabi_cfrcmple>
    7190:	33a00001 	movcc	r0, #1
    7194:	23a00000 	movcs	r0, #0
    7198:	e49de008 	ldr	lr, [sp], #8
    719c:	e12fff1e 	bx	lr

000071a0 <__gnu_fractsasf>:
    71a0:	e92d4010 	push	{r4, lr}
    71a4:	ebfffec3 	bl	6cb8 <__aeabi_i2f>
    71a8:	e3a0130e 	mov	r1, #939524096	; 0x38000000
    71ac:	ebfffef8 	bl	6d94 <__aeabi_fmul>
    71b0:	e8bd4010 	pop	{r4, lr}
    71b4:	e12fff1e 	bx	lr

000071b8 <__gnu_fractsfsa>:
    71b8:	e92d4010 	push	{r4, lr}
    71bc:	e3a01447 	mov	r1, #1191182336	; 0x47000000
    71c0:	ebfffef3 	bl	6d94 <__aeabi_fmul>
    71c4:	eb000001 	bl	71d0 <__aeabi_f2iz>
    71c8:	e8bd4010 	pop	{r4, lr}
    71cc:	e12fff1e 	bx	lr

000071d0 <__aeabi_f2iz>:
    71d0:	e1a02080 	lsl	r2, r0, #1
    71d4:	e352047f 	cmp	r2, #2130706432	; 0x7f000000
    71d8:	3a000008 	bcc	7200 <__aeabi_f2iz+0x30>
    71dc:	e3a0309e 	mov	r3, #158	; 0x9e
    71e0:	e0532c22 	subs	r2, r3, r2, lsr #24
    71e4:	9a000007 	bls	7208 <__aeabi_f2iz+0x38>
    71e8:	e1a03400 	lsl	r3, r0, #8
    71ec:	e3833102 	orr	r3, r3, #-2147483648	; 0x80000000
    71f0:	e3100102 	tst	r0, #-2147483648	; 0x80000000
    71f4:	e1a00233 	lsr	r0, r3, r2
    71f8:	12600000 	rsbne	r0, r0, #0
    71fc:	e12fff1e 	bx	lr
    7200:	e3a00000 	mov	r0, #0
    7204:	e12fff1e 	bx	lr
    7208:	e3720061 	cmn	r2, #97	; 0x61
    720c:	1a000001 	bne	7218 <__aeabi_f2iz+0x48>
    7210:	e1b02480 	lsls	r2, r0, #9
    7214:	1a000002 	bne	7224 <__aeabi_f2iz+0x54>
    7218:	e2100102 	ands	r0, r0, #-2147483648	; 0x80000000
    721c:	03e00102 	mvneq	r0, #-2147483648	; 0x80000000
    7220:	e12fff1e 	bx	lr
    7224:	e3a00000 	mov	r0, #0
    7228:	e12fff1e 	bx	lr

0000722c <__errno>:
    722c:	e59f3004 	ldr	r3, [pc, #4]	; 7238 <__errno+0xc>
    7230:	e5930000 	ldr	r0, [r3]
    7234:	e12fff1e 	bx	lr
    7238:	00400010 	.word	0x00400010

0000723c <memset>:
    723c:	e3100003 	tst	r0, #3
    7240:	0a000040 	beq	7348 <memset+0x10c>
    7244:	e3520000 	cmp	r2, #0
    7248:	e2422001 	sub	r2, r2, #1
    724c:	012fff1e 	bxeq	lr
    7250:	e201c0ff 	and	ip, r1, #255	; 0xff
    7254:	e1a03000 	mov	r3, r0
    7258:	ea000002 	b	7268 <memset+0x2c>
    725c:	e2422001 	sub	r2, r2, #1
    7260:	e3720001 	cmn	r2, #1
    7264:	012fff1e 	bxeq	lr
    7268:	e4c3c001 	strb	ip, [r3], #1
    726c:	e3130003 	tst	r3, #3
    7270:	1afffff9 	bne	725c <memset+0x20>
    7274:	e3520003 	cmp	r2, #3
    7278:	9a00002a 	bls	7328 <memset+0xec>
    727c:	e92d4010 	push	{r4, lr}
    7280:	e201e0ff 	and	lr, r1, #255	; 0xff
    7284:	e18ee40e 	orr	lr, lr, lr, lsl #8
    7288:	e352000f 	cmp	r2, #15
    728c:	e18ee80e 	orr	lr, lr, lr, lsl #16
    7290:	9a000010 	bls	72d8 <memset+0x9c>
    7294:	e1a04002 	mov	r4, r2
    7298:	e283c010 	add	ip, r3, #16
    729c:	e2444010 	sub	r4, r4, #16
    72a0:	e354000f 	cmp	r4, #15
    72a4:	e50ce010 	str	lr, [ip, #-16]
    72a8:	e50ce00c 	str	lr, [ip, #-12]
    72ac:	e50ce008 	str	lr, [ip, #-8]
    72b0:	e50ce004 	str	lr, [ip, #-4]
    72b4:	e28cc010 	add	ip, ip, #16
    72b8:	8afffff7 	bhi	729c <memset+0x60>
    72bc:	e242c010 	sub	ip, r2, #16
    72c0:	e3ccc00f 	bic	ip, ip, #15
    72c4:	e202200f 	and	r2, r2, #15
    72c8:	e28cc010 	add	ip, ip, #16
    72cc:	e3520003 	cmp	r2, #3
    72d0:	e083300c 	add	r3, r3, ip
    72d4:	9a00000a 	bls	7304 <memset+0xc8>
    72d8:	e1a04003 	mov	r4, r3
    72dc:	e1a0c002 	mov	ip, r2
    72e0:	e24cc004 	sub	ip, ip, #4
    72e4:	e35c0003 	cmp	ip, #3
    72e8:	e484e004 	str	lr, [r4], #4
    72ec:	8afffffb 	bhi	72e0 <memset+0xa4>
    72f0:	e242c004 	sub	ip, r2, #4
    72f4:	e3ccc003 	bic	ip, ip, #3
    72f8:	e28cc004 	add	ip, ip, #4
    72fc:	e083300c 	add	r3, r3, ip
    7300:	e2022003 	and	r2, r2, #3
    7304:	e3520000 	cmp	r2, #0
    7308:	0a000004 	beq	7320 <memset+0xe4>
    730c:	e20110ff 	and	r1, r1, #255	; 0xff
    7310:	e0832002 	add	r2, r3, r2
    7314:	e4c31001 	strb	r1, [r3], #1
    7318:	e1520003 	cmp	r2, r3
    731c:	1afffffc 	bne	7314 <memset+0xd8>
    7320:	e8bd4010 	pop	{r4, lr}
    7324:	e12fff1e 	bx	lr
    7328:	e3520000 	cmp	r2, #0
    732c:	012fff1e 	bxeq	lr
    7330:	e20110ff 	and	r1, r1, #255	; 0xff
    7334:	e0832002 	add	r2, r3, r2
    7338:	e4c31001 	strb	r1, [r3], #1
    733c:	e1520003 	cmp	r2, r3
    7340:	1afffffc 	bne	7338 <memset+0xfc>
    7344:	e12fff1e 	bx	lr
    7348:	e1a03000 	mov	r3, r0
    734c:	eaffffc8 	b	7274 <memset+0x38>

00007350 <__spin1_trigger_user_event_from_arm>:
    7350:	e51ff004 	ldr	pc, [pc, #-4]	; 7354 <__spin1_trigger_user_event_from_arm+0x4>
    7354:	00005b15 	.word	0x00005b15

00007358 <__io_printf_from_arm>:
    7358:	e51ff004 	ldr	pc, [pc, #-4]	; 735c <__io_printf_from_arm+0x4>
    735c:	00004f9d 	.word	0x00004f9d

00007360 <__spin1_exit_from_arm>:
    7360:	e51ff004 	ldr	pc, [pc, #-4]	; 7364 <__spin1_exit_from_arm+0x4>
    7364:	000055dd 	.word	0x000055dd

00007368 <__spin1_schedule_callback_from_arm>:
    7368:	e51ff004 	ldr	pc, [pc, #-4]	; 736c <__spin1_schedule_callback_from_arm+0x4>
    736c:	00005aa9 	.word	0x00005aa9

00007370 <__init_array_end>:
    7370:	6e697073 	.word	0x6e697073
    7374:	78655f6e 	.word	0x78655f6e
    7378:	25207469 	.word	0x25207469
    737c:	00000a64 	.word	0x00000a64
    7380:	4c4e5244 	.word	0x4c4e5244
    7384:	6970535f 	.word	0x6970535f
    7388:	705f4e4e 	.word	0x705f4e4e
    738c:	2e657069 	.word	0x2e657069
    7390:	00000063 	.word	0x00000063
    7394:	464e495b 	.word	0x464e495b
    7398:	20205d4f 	.word	0x20205d4f
    739c:	25282020 	.word	0x25282020
    73a0:	34253a73 	.word	0x34253a73
    73a4:	203a2964 	.word	0x203a2964
    73a8:	206b6361 	.word	0x206b6361
    73ac:	6170636d 	.word	0x6170636d
    73b0:	74656b63 	.word	0x74656b63
    73b4:	63657220 	.word	0x63657220
    73b8:	65766569 	.word	0x65766569
    73bc:	79732064 	.word	0x79732064
    73c0:	635f636e 	.word	0x635f636e
    73c4:	746e756f 	.word	0x746e756f
    73c8:	2064253d 	.word	0x2064253d
    73cc:	5f676573 	.word	0x5f676573
    73d0:	65646e69 	.word	0x65646e69
    73d4:	64253d78 	.word	0x64253d78
    73d8:	00000a0a 	.word	0x00000a0a
    73dc:	464e495b 	.word	0x464e495b
    73e0:	20205d4f 	.word	0x20205d4f
    73e4:	25282020 	.word	0x25282020
    73e8:	34253a73 	.word	0x34253a73
    73ec:	203a2964 	.word	0x203a2964
    73f0:	726f635b 	.word	0x726f635b
    73f4:	64252065 	.word	0x64252065
    73f8:	6572205d 	.word	0x6572205d
    73fc:	20796461 	.word	0x20796461
    7400:	73206f74 	.word	0x73206f74
    7404:	20646e65 	.word	0x20646e65
    7408:	6d6f7266 	.word	0x6d6f7266
    740c:	454d4f20 	.word	0x454d4f20
    7410:	63657220 	.word	0x63657220
    7414:	65766965 	.word	0x65766965
    7418:	73202c64 	.word	0x73202c64
    741c:	69747465 	.word	0x69747465
    7420:	7520676e 	.word	0x7520676e
    7424:	6e692070 	.word	0x6e692070
    7428:	20747570 	.word	0x20747570
    742c:	66667562 	.word	0x66667562
    7430:	000a7265 	.word	0x000a7265
    7434:	464e495b 	.word	0x464e495b
    7438:	20205d4f 	.word	0x20205d4f
    743c:	25282020 	.word	0x25282020
    7440:	34253a73 	.word	0x34253a73
    7444:	203a2964 	.word	0x203a2964
    7448:	726f635b 	.word	0x726f635b
    744c:	64252065 	.word	0x64252065
    7450:	6473205d 	.word	0x6473205d
    7454:	206d6172 	.word	0x206d6172
    7458:	62206e69 	.word	0x62206e69
    745c:	65666675 	.word	0x65666675
    7460:	20402072 	.word	0x20402072
    7464:	30257830 	.word	0x30257830
    7468:	0a0a7838 	.word	0x0a0a7838
    746c:	00000000 	.word	0x00000000
    7470:	726f635b 	.word	0x726f635b
    7474:	64252065 	.word	0x64252065
    7478:	2d2d205d 	.word	0x2d2d205d
    747c:	2d2d2d2d 	.word	0x2d2d2d2d
    7480:	2d2d2d2d 	.word	0x2d2d2d2d
    7484:	2d2d2d2d 	.word	0x2d2d2d2d
    7488:	2d2d2d2d 	.word	0x2d2d2d2d
    748c:	2d2d2d2d 	.word	0x2d2d2d2d
    7490:	00000a2d 	.word	0x00000a2d
    7494:	726f635b 	.word	0x726f635b
    7498:	64252065 	.word	0x64252065
    749c:	7473205d 	.word	0x7473205d
    74a0:	69747261 	.word	0x69747261
    74a4:	7320676e 	.word	0x7320676e
    74a8:	6c756d69 	.word	0x6c756d69
    74ac:	6f697461 	.word	0x6f697461
    74b0:	00000a6e 	.word	0x00000a6e
    74b4:	464e495b 	.word	0x464e495b
    74b8:	20205d4f 	.word	0x20205d4f
    74bc:	25282020 	.word	0x25282020
    74c0:	34253a73 	.word	0x34253a73
    74c4:	203a2964 	.word	0x203a2964
    74c8:	61746164 	.word	0x61746164
    74cc:	7a69735f 	.word	0x7a69735f
    74d0:	64253d65 	.word	0x64253d65
    74d4:	0000000a 	.word	0x0000000a
    74d8:	464e495b 	.word	0x464e495b
    74dc:	20205d4f 	.word	0x20205d4f
    74e0:	25282020 	.word	0x25282020
    74e4:	34253a73 	.word	0x34253a73
    74e8:	203a2964 	.word	0x203a2964
    74ec:	4c4e5244 	.word	0x4c4e5244
    74f0:	493e2d2d 	.word	0x493e2d2d
    74f4:	4e414348 	.word	0x4e414348
    74f8:	79656b20 	.word	0x79656b20
    74fc:	0a64253d 	.word	0x0a64253d
    7500:	0000000a 	.word	0x0000000a
    7504:	726f635b 	.word	0x726f635b
    7508:	64252065 	.word	0x64252065
    750c:	7265205d 	.word	0x7265205d
    7510:	20726f72 	.word	0x20726f72
    7514:	6163202d 	.word	0x6163202d
    7518:	746f6e6e 	.word	0x746f6e6e
    751c:	6c6c6120 	.word	0x6c6c6120
    7520:	7461636f 	.word	0x7461636f
    7524:	75622065 	.word	0x75622065
    7528:	72656666 	.word	0x72656666
    752c:	0000000a 	.word	0x0000000a
    7530:	726f635b 	.word	0x726f635b
    7534:	64252065 	.word	0x64252065
    7538:	7464205d 	.word	0x7464205d
    753c:	62206d63 	.word	0x62206d63
    7540:	65666675 	.word	0x65666675
    7544:	20612072 	.word	0x20612072
    7548:	78302040 	.word	0x78302040
    754c:	78383025 	.word	0x78383025
    7550:	0000000a 	.word	0x0000000a
    7554:	726f635b 	.word	0x726f635b
    7558:	64252065 	.word	0x64252065
    755c:	6473205d 	.word	0x6473205d
    7560:	206d6172 	.word	0x206d6172
    7564:	2074756f 	.word	0x2074756f
    7568:	66667562 	.word	0x66667562
    756c:	40207265 	.word	0x40207265
    7570:	25783020 	.word	0x25783020
    7574:	0a783830 	.word	0x0a783830
    7578:	00000000 	.word	0x00000000
    757c:	726f635b 	.word	0x726f635b
    7580:	64252065 	.word	0x64252065
    7584:	6473205d 	.word	0x6473205d
    7588:	206d6172 	.word	0x206d6172
    758c:	62206e69 	.word	0x62206e69
    7590:	65666675 	.word	0x65666675
    7594:	20402072 	.word	0x20402072
    7598:	30257830 	.word	0x30257830
    759c:	000a7838 	.word	0x000a7838
    75a0:	726f635b 	.word	0x726f635b
    75a4:	64252065 	.word	0x64252065
    75a8:	6973205d 	.word	0x6973205d
    75ac:	616c756d 	.word	0x616c756d
    75b0:	6e6f6974 	.word	0x6e6f6974
    75b4:	73616c20 	.word	0x73616c20
    75b8:	20646574 	.word	0x20646574
    75bc:	74206425 	.word	0x74206425
    75c0:	736b6369 	.word	0x736b6369
    75c4:	0000000a 	.word	0x0000000a
    75c8:	726f635b 	.word	0x726f635b
    75cc:	64252065 	.word	0x64252065
    75d0:	7473205d 	.word	0x7473205d
    75d4:	6970706f 	.word	0x6970706f
    75d8:	7320676e 	.word	0x7320676e
    75dc:	6c756d69 	.word	0x6c756d69
    75e0:	6f697461 	.word	0x6f697461
    75e4:	00000a6e 	.word	0x00000a6e
    75e8:	726f635b 	.word	0x726f635b
    75ec:	64252065 	.word	0x64252065
    75f0:	2d2d205d 	.word	0x2d2d205d
    75f4:	2d2d2d2d 	.word	0x2d2d2d2d
    75f8:	2d2d2d2d 	.word	0x2d2d2d2d
    75fc:	2d2d2d2d 	.word	0x2d2d2d2d
    7600:	2d2d2d2d 	.word	0x2d2d2d2d
    7604:	00000a2d 	.word	0x00000a2d

00007608 <build_name>:
    7608:	4c4e5244 00000000                       DRNL....

00007610 <build_date>:
    7610:	59720fb6 2f637273 61746164 6570735f     ..rYsrc/data_spe
    7620:	69666963 69746163 632e6e6f 4e495b00     cification.c.[IN
    7630:	205d4f46 28202020 253a7325 3a296434     FO]    (%s:%4d):
    7640:	52445320 64204d41 20617461 69676562      SDRAM data begi
    7650:	6120736e 64612074 73657264 25203a73     ns at address: %
    7660:	0a783830 00000000                       08x.....

00007668 <__exp_hi>:
    7668:	000025ec 00000000 00006715 00000000     .%.......g......
    7678:	00011835 00000000 0002f9af 00000000     5...............
    7688:	00081679 00000000 0015fc21 00000000     y.......!.......
    7698:	003bc2d7 00000000 00a27290 00000000     ..;......r......
    76a8:	01b993fe 00000000 04b0556e 00000000     ........nU......
    76b8:	0cbed866 00000000 22a55547 00000000     f.......GU."....
    76c8:	5e2d58d9 00000000 00000000 00000001     .X-^............
    76d8:	b7e15163 00000002 63992e35 00000007     cQ......5..c....
    76e8:	15e5bf70 00000014 99205c4e 00000036     p.......N\ .6...
    76f8:	69c4cb82 00000094 6dc5690c 00000193     ...i.....i.m....
    7708:	a216abb7 00000448 f53ea386 00000ba4     ....H.....>.....
    7718:	157c4710 00001fa7 773e5415 0000560a     .G|......T>w.V..
    7728:	2447727c 0000e9e2 ca9a6f93 00027bc2     |rG$.....o...{..

00007738 <__expm1_mid>:
    7738:	00000000 0f82a022 1e14aed9 2bc4bf6a     ....".......j..+
    7748:	38a0830b 44b4d690 500dcf51 5ab6c736     ...8...DQ..P6..Z
    7758:	64ba681d 6e22b67a 76f91b66 7f466e01     .h.dz."nf..v.nF.
    7768:	8712fc50 8e669388 954887db 9bbfbbd0     P.....f...H.....

00007778 <recip_table>:
    7778:	fc100000 f48af83e ed73f0f1 e6c3ea0f     ....>.....s.....
    7788:	e070e38e da74dd68 d4c7d794 cf64d20d     ..p.h.t.......d.
    7798:	ca46cccd c566c7ce c0c1c30c bc52be83     ..F...f.......R.
    77a8:	b817ba2f b40bb60b b02cb216 ac77ae4c     /.........,.L.w.
    77b8:	a8e8aaab a57fa72f a238a3d7 9f11a0a1     ..../.....8.....
    77c8:	9c0a9d8a 991f9a91 965097b4 939b94f2     ..........P.....
    77d8:	90fe9249 8e788fb8 8c098d3e 89ae8ad9     I.....x.>.......
    77e8:	87688889 8534864c 83128421 81028208     ..h.L.4.!.......
    77f8:	00008000                                ....

000077fc <log_ck>:
    77fc:	60000000 601fc0a9 603f0536 605dd164     ...`...`6.?`d.]`
    780c:	607c28c3 609a0ebd 60b78694 60d4936a     .(|`...`...`j..`
    781c:	60f1383b 610d77e8 61295530 6144d2b7     ;8.`.w.a0U)a..Da
    782c:	615ff307 617ab890 619525aa 61af3c95     .._a..za.%.a.<.a
    783c:	61c8ff7c 61e27077 61fb9187 6214649c     |..awp.a...a.d.b
    784c:	622ceb95 6245283f 625d1c57 6274c98b     ..,b?(EbW.]b..tb
    785c:	628c3178 62a355b1 62ba37b8 62d0d904     x1.b.U.b.7.b...b
    786c:	62e73aff 62fd5f07 63134671 6328f284     .:.b._.bqF.c..(c
    787c:	633e647e 63539d93 63689eef 637d69b4     ~d>c..Sc..hc.i}c
    788c:	6391fef9 63a65fd0 63ba8d41 63ce884c     ...c._.cA..cL..c
    789c:	63e251ec 63f5eb12 640954a9 641c8f97     .Q.c...c.T.d...d
    78ac:	642f9cb9 64427ce8 645530f5 6467b9ad     ../d.|Bd.0Ud..gd
    78bc:	647a17d8 648c4c36 649e5785 64b03a7b     ..zd6L.d.W.d{:.d
    78cc:	64c1f5cd 64d38a27 64e4f835 64f6409b     ...d'..d5..d.@.d
    78dc:	650763fa 651862f1 65293e17 6539f604     .c.e.b.e.>)e..9e
    78ec:	654a8b4a 655afe75 656b5013 657b80aa     J.Jeu.Ze.Pke..{e
    78fc:	658b90c0 00707865 6f707968 00006674     ...eexp.hypotf..
    790c:	00000000                                ....

00007910 <halF>:
    7910:	00000000 3fe00000 00000000 bfe00000     .......?........

00007920 <ln2HI>:
    7920:	fee00000 3fe62e42 fee00000 bfe62e42     ....B..?....B...

00007930 <ln2LO>:
    7930:	35793c76 3dea39ef 35793c76 bdea39ef     v<y5.9.=v<y5.9..

00007940 <npio2_hw>:
    7940:	3ff921fb 400921fb 4012d97c 401921fb     .!.?.!.@|..@.!.@
    7950:	401f6a7a 4022d97c 4025fdbb 402921fb     zj.@|."@..%@.!)@
    7960:	402c463a 402f6a7a 4031475c 4032d97c     :F,@zj/@\G1@|.2@
    7970:	40346b9c 4035fdbb 40378fdb 403921fb     .k4@..5@..7@.!9@
    7980:	403ab41b 403c463a 403dd85a 403f6a7a     ..:@:F<@Z.=@zj?@
    7990:	40407e4c 4041475c 4042106c 4042d97c     L~@@\GA@l.B@|.B@
    79a0:	4043a28c 40446b9c 404534ac 4045fdbb     ..C@.kD@.4E@..E@
    79b0:	4046c6cb 40478fdb 404858eb 404921fb     ..F@..G@.XH@.!I@

000079c0 <two_over_pi>:
    79c0:	00a2f983 006e4e44 001529fc 002757d1     ....DNn..)...W'.
    79d0:	00f534dd 00c0db62 0095993c 00439041     .4..b...<...A.C.
    79e0:	00fe5163 00abdebb 00c561b7 00246e3a     cQ.......a..:n$.
    79f0:	00424dd2 00e00649 002eea09 00d1921c     .MB.I...........
    7a00:	00fe1deb 001cb129 00a73ee8 008235f5     ....)....>...5..
    7a10:	002ebb44 0084e99c 007026b4 005f7e41     D........&p.A~_.
    7a20:	003991d6 00398353 0039f49c 00845f8b     ..9.S.9...9.._..
    7a30:	00bdf928 003b1ff8 0097ffde 0005980f     (.....;.........
    7a40:	00ef2f11 008b5a0a 006d1f6d 00367ecf     ./...Z..m.m..~6.
    7a50:	0027cb09 00b74f46 003f669e 005fea2d     ..'.FO...f?.-._.
    7a60:	007527ba 00c7ebe5 00f17b3d 000739f7     .'u.....={...9..
    7a70:	008a5292 00ea6bfb 005fb11f 008d5d08     .R...k...._..]..
    7a80:	00560330 0046fc7b 006babf0 00cfbc20     0.V.{.F...k. ...
    7a90:	009af436 001da9e3 0091615e 00e61b08     6.......^a......
    7aa0:	00659985 005f14a0 0068408d 00ffd880     ..e..._..@h.....
    7ab0:	004d7327 00310606 001556ca 0073a8c9     'sM...1..V....s.
    7ac0:	0060e27b 00c08c6b                       {.`.k...

00007ac8 <PIo2>:
    7ac8:	40000000 3ff921fb 00000000 3e74442d     ...@.!.?....-Dt>
    7ad8:	80000000 3cf84698 60000000 3b78cc51     .....F.<...`Q.x;
    7ae8:	80000000 39f01b83 40000000 387a2520     .......9...@ %z8
    7af8:	80000000 36e38222 00000000 3569f31d     ...."..6......i5

00007b08 <init_jk>:
    7b08:	00000002 00000003 00000004 00000006     ................
    7b18:	4b524153 6970532f 6b614e4e 33007265     SARK/SpiNNaker.3
    7b28:	302e312e 32313000                                .1.0.

00007b2d <hex>:
    7b2d:	33323130 37363534 62613938 66656463     0123456789abcdef
    7b3d:	5b090900 5f697061 75626564 52205d67     ...[api_debug] R
    7b4d:	6d205254 20202063 61702020 74656b63     TR mc     packet
    7b5d:	25203a73 09000a64 70615b09 65645f69     s: %d....[api_de
    7b6d:	5d677562 52545220 64706420 20636d20     bug] RTR dpd mc 
    7b7d:	6b636170 3a737465 0a642520 5b090900     packets: %d....[
    7b8d:	5f697061 75626564 49205d67 74205253     api_debug] ISR t
    7b9d:	776f7268 6170206e 74656b63 25203a73     hrown packets: %
    7bad:	09000a64 70615b09 65645f69 5d677562     d....[api_debug]
    7bbd:	52534920 72687420 206e776f 70205246      ISR thrown FR p
    7bcd:	656b6361 203a7374 000a6425 615b0909     ackets: %d....[a
    7bdd:	645f6970 67756265 4d44205d 75622041     pi_debug] DMA bu
    7bed:	73747372 2520203a 09000a64 70615b09     rsts:  %d....[ap
    7bfd:	61775f69 205d6e72 6e726177 3a676e69     i_warn] warning:
    7c0d:	73617420 7571206b 20657565 6c6c7566      task queue full
    7c1d:	75252820 09000a29 70615b09 61775f69      (%u)....[api_wa
    7c2d:	205d6e72 6e726177 3a676e69 414d4420     rn] warning: DMA
    7c3d:	65757120 66206575 206c6c75 29752528      queue full (%u)
    7c4d:	0909000a 6970615b 7261775f 77205d6e     ....[api_warn] w
    7c5d:	696e7261 203a676e 6b636170 71207465     arning: packet q
    7c6d:	65756575 6c756620 2528206c 000a2975     ueue full (%u)..
